ARM GAS  C:\Users\LAIMON~1\AppData\Local\Temp\cclE2jtb.s 			page 1


   1              		.cpu cortex-m0
   2              		.fpu softvfp
   3              		.eabi_attribute 20, 1
   4              		.eabi_attribute 21, 1
   5              		.eabi_attribute 23, 3
   6              		.eabi_attribute 24, 1
   7              		.eabi_attribute 25, 1
   8              		.eabi_attribute 26, 1
   9              		.eabi_attribute 30, 1
  10              		.eabi_attribute 34, 0
  11              		.eabi_attribute 18, 4
  12              		.code	16
  13              		.file	"cyfitter_cfg.c"
  14              		.text
  15              	.Ltext0:
  16              		.cfi_sections	.debug_frame
  17              		.section	.text.cfg_write_bytes32,"ax",%progbits
  18              		.align	2
  19              		.code	16
  20              		.thumb_func
  21              		.type	cfg_write_bytes32, %function
  22              	cfg_write_bytes32:
  23              	.LFB3:
  24              		.file 1 ".\\Generated_Source\\PSoC4\\cyfitter_cfg.c"
   1:.\Generated_Source\PSoC4/cyfitter_cfg.c **** /*******************************************************************************
   2:.\Generated_Source\PSoC4/cyfitter_cfg.c **** * File Name: cyfitter_cfg.c
   3:.\Generated_Source\PSoC4/cyfitter_cfg.c **** * 
   4:.\Generated_Source\PSoC4/cyfitter_cfg.c **** * PSoC Creator  3.3
   5:.\Generated_Source\PSoC4/cyfitter_cfg.c **** *
   6:.\Generated_Source\PSoC4/cyfitter_cfg.c **** * Description:
   7:.\Generated_Source\PSoC4/cyfitter_cfg.c **** * This file contains device initialization code.
   8:.\Generated_Source\PSoC4/cyfitter_cfg.c **** * Except for the user defined sections in CyClockStartupError(), this file should not be modified.
   9:.\Generated_Source\PSoC4/cyfitter_cfg.c **** * This file is automatically generated by PSoC Creator.
  10:.\Generated_Source\PSoC4/cyfitter_cfg.c **** *
  11:.\Generated_Source\PSoC4/cyfitter_cfg.c **** ********************************************************************************
  12:.\Generated_Source\PSoC4/cyfitter_cfg.c **** * Copyright (c) 2007-2015 Cypress Semiconductor.  All rights reserved.
  13:.\Generated_Source\PSoC4/cyfitter_cfg.c **** * You may use this file only in accordance with the license, terms, conditions, 
  14:.\Generated_Source\PSoC4/cyfitter_cfg.c **** * disclaimers, and limitations in the end user license agreement accompanying 
  15:.\Generated_Source\PSoC4/cyfitter_cfg.c **** * the software package with which this file was provided.
  16:.\Generated_Source\PSoC4/cyfitter_cfg.c **** ********************************************************************************/
  17:.\Generated_Source\PSoC4/cyfitter_cfg.c **** 
  18:.\Generated_Source\PSoC4/cyfitter_cfg.c **** #include <string.h>
  19:.\Generated_Source\PSoC4/cyfitter_cfg.c **** #include "cytypes.h"
  20:.\Generated_Source\PSoC4/cyfitter_cfg.c **** #include "cydevice_trm.h"
  21:.\Generated_Source\PSoC4/cyfitter_cfg.c **** #include "cyfitter.h"
  22:.\Generated_Source\PSoC4/cyfitter_cfg.c **** #include "CyLib.h"
  23:.\Generated_Source\PSoC4/cyfitter_cfg.c **** #include "CyLFClk.h"
  24:.\Generated_Source\PSoC4/cyfitter_cfg.c **** #include "cyfitter_cfg.h"
  25:.\Generated_Source\PSoC4/cyfitter_cfg.c **** 
  26:.\Generated_Source\PSoC4/cyfitter_cfg.c **** 
  27:.\Generated_Source\PSoC4/cyfitter_cfg.c **** #if defined(__GNUC__) || defined(__ARMCC_VERSION)
  28:.\Generated_Source\PSoC4/cyfitter_cfg.c ****     #define CYPACKED 
  29:.\Generated_Source\PSoC4/cyfitter_cfg.c ****     #define CYPACKED_ATTR __attribute__ ((packed))
  30:.\Generated_Source\PSoC4/cyfitter_cfg.c ****     #define CYALIGNED __attribute__ ((aligned))
  31:.\Generated_Source\PSoC4/cyfitter_cfg.c ****     #define CY_CFG_UNUSED __attribute__ ((unused))
  32:.\Generated_Source\PSoC4/cyfitter_cfg.c ****     #define CY_CFG_SECTION __attribute__ ((section(".psocinit")))
  33:.\Generated_Source\PSoC4/cyfitter_cfg.c ****     
ARM GAS  C:\Users\LAIMON~1\AppData\Local\Temp\cclE2jtb.s 			page 2


  34:.\Generated_Source\PSoC4/cyfitter_cfg.c ****     #if defined(__ARMCC_VERSION)
  35:.\Generated_Source\PSoC4/cyfitter_cfg.c ****         #define CY_CFG_MEMORY_BARRIER() __memory_changed()
  36:.\Generated_Source\PSoC4/cyfitter_cfg.c ****     #else
  37:.\Generated_Source\PSoC4/cyfitter_cfg.c ****         #define CY_CFG_MEMORY_BARRIER() __sync_synchronize()
  38:.\Generated_Source\PSoC4/cyfitter_cfg.c ****     #endif
  39:.\Generated_Source\PSoC4/cyfitter_cfg.c ****     
  40:.\Generated_Source\PSoC4/cyfitter_cfg.c **** #elif defined(__ICCARM__)
  41:.\Generated_Source\PSoC4/cyfitter_cfg.c ****     #include <intrinsics.h>
  42:.\Generated_Source\PSoC4/cyfitter_cfg.c **** 
  43:.\Generated_Source\PSoC4/cyfitter_cfg.c ****     #define CYPACKED __packed
  44:.\Generated_Source\PSoC4/cyfitter_cfg.c ****     #define CYPACKED_ATTR 
  45:.\Generated_Source\PSoC4/cyfitter_cfg.c ****     #define CYALIGNED _Pragma("data_alignment=4")
  46:.\Generated_Source\PSoC4/cyfitter_cfg.c ****     #define CY_CFG_UNUSED _Pragma("diag_suppress=Pe177")
  47:.\Generated_Source\PSoC4/cyfitter_cfg.c ****     #define CY_CFG_SECTION _Pragma("location=\".psocinit\"")
  48:.\Generated_Source\PSoC4/cyfitter_cfg.c ****     
  49:.\Generated_Source\PSoC4/cyfitter_cfg.c ****     #define CY_CFG_MEMORY_BARRIER() __DMB()
  50:.\Generated_Source\PSoC4/cyfitter_cfg.c ****     
  51:.\Generated_Source\PSoC4/cyfitter_cfg.c **** #else
  52:.\Generated_Source\PSoC4/cyfitter_cfg.c ****     #error Unsupported toolchain
  53:.\Generated_Source\PSoC4/cyfitter_cfg.c **** #endif
  54:.\Generated_Source\PSoC4/cyfitter_cfg.c **** 
  55:.\Generated_Source\PSoC4/cyfitter_cfg.c **** 
  56:.\Generated_Source\PSoC4/cyfitter_cfg.c **** CY_CFG_UNUSED
  57:.\Generated_Source\PSoC4/cyfitter_cfg.c **** static void CYMEMZERO(void *s, size_t n);
  58:.\Generated_Source\PSoC4/cyfitter_cfg.c **** CY_CFG_UNUSED
  59:.\Generated_Source\PSoC4/cyfitter_cfg.c **** static void CYMEMZERO(void *s, size_t n)
  60:.\Generated_Source\PSoC4/cyfitter_cfg.c **** {
  61:.\Generated_Source\PSoC4/cyfitter_cfg.c **** 	(void)memset(s, 0, n);
  62:.\Generated_Source\PSoC4/cyfitter_cfg.c **** }
  63:.\Generated_Source\PSoC4/cyfitter_cfg.c **** CY_CFG_UNUSED
  64:.\Generated_Source\PSoC4/cyfitter_cfg.c **** static void CYCONFIGCPY(void *dest, const void *src, size_t n);
  65:.\Generated_Source\PSoC4/cyfitter_cfg.c **** CY_CFG_UNUSED
  66:.\Generated_Source\PSoC4/cyfitter_cfg.c **** static void CYCONFIGCPY(void *dest, const void *src, size_t n)
  67:.\Generated_Source\PSoC4/cyfitter_cfg.c **** {
  68:.\Generated_Source\PSoC4/cyfitter_cfg.c **** 	(void)memcpy(dest, src, n);
  69:.\Generated_Source\PSoC4/cyfitter_cfg.c **** }
  70:.\Generated_Source\PSoC4/cyfitter_cfg.c **** CY_CFG_UNUSED
  71:.\Generated_Source\PSoC4/cyfitter_cfg.c **** static void CYCONFIGCPYCODE(void *dest, const void *src, size_t n);
  72:.\Generated_Source\PSoC4/cyfitter_cfg.c **** CY_CFG_UNUSED
  73:.\Generated_Source\PSoC4/cyfitter_cfg.c **** static void CYCONFIGCPYCODE(void *dest, const void *src, size_t n)
  74:.\Generated_Source\PSoC4/cyfitter_cfg.c **** {
  75:.\Generated_Source\PSoC4/cyfitter_cfg.c **** 	(void)memcpy(dest, src, n);
  76:.\Generated_Source\PSoC4/cyfitter_cfg.c **** }
  77:.\Generated_Source\PSoC4/cyfitter_cfg.c **** 
  78:.\Generated_Source\PSoC4/cyfitter_cfg.c **** 
  79:.\Generated_Source\PSoC4/cyfitter_cfg.c **** 
  80:.\Generated_Source\PSoC4/cyfitter_cfg.c **** /* Clock startup error codes                                                   */
  81:.\Generated_Source\PSoC4/cyfitter_cfg.c **** #define CYCLOCKSTART_NO_ERROR    0u
  82:.\Generated_Source\PSoC4/cyfitter_cfg.c **** #define CYCLOCKSTART_XTAL_ERROR  1u
  83:.\Generated_Source\PSoC4/cyfitter_cfg.c **** #define CYCLOCKSTART_32KHZ_ERROR 2u
  84:.\Generated_Source\PSoC4/cyfitter_cfg.c **** #define CYCLOCKSTART_PLL_ERROR   3u
  85:.\Generated_Source\PSoC4/cyfitter_cfg.c **** 
  86:.\Generated_Source\PSoC4/cyfitter_cfg.c **** #ifdef CY_NEED_CYCLOCKSTARTUPERROR
  87:.\Generated_Source\PSoC4/cyfitter_cfg.c **** /*******************************************************************************
  88:.\Generated_Source\PSoC4/cyfitter_cfg.c **** * Function Name: CyClockStartupError
  89:.\Generated_Source\PSoC4/cyfitter_cfg.c **** ********************************************************************************
  90:.\Generated_Source\PSoC4/cyfitter_cfg.c **** * Summary:
ARM GAS  C:\Users\LAIMON~1\AppData\Local\Temp\cclE2jtb.s 			page 3


  91:.\Generated_Source\PSoC4/cyfitter_cfg.c **** *  If an error is encountered during clock configuration (crystal startup error,
  92:.\Generated_Source\PSoC4/cyfitter_cfg.c **** *  PLL lock error, etc.), the system will end up here.  Unless reimplemented by
  93:.\Generated_Source\PSoC4/cyfitter_cfg.c **** *  the customer, this function will stop in an infinite loop.
  94:.\Generated_Source\PSoC4/cyfitter_cfg.c **** *
  95:.\Generated_Source\PSoC4/cyfitter_cfg.c **** * Parameters:
  96:.\Generated_Source\PSoC4/cyfitter_cfg.c **** *   void
  97:.\Generated_Source\PSoC4/cyfitter_cfg.c **** *
  98:.\Generated_Source\PSoC4/cyfitter_cfg.c **** * Return:
  99:.\Generated_Source\PSoC4/cyfitter_cfg.c **** *   void
 100:.\Generated_Source\PSoC4/cyfitter_cfg.c **** *
 101:.\Generated_Source\PSoC4/cyfitter_cfg.c **** *******************************************************************************/
 102:.\Generated_Source\PSoC4/cyfitter_cfg.c **** CY_CFG_UNUSED
 103:.\Generated_Source\PSoC4/cyfitter_cfg.c **** static void CyClockStartupError(uint8 errorCode);
 104:.\Generated_Source\PSoC4/cyfitter_cfg.c **** CY_CFG_UNUSED
 105:.\Generated_Source\PSoC4/cyfitter_cfg.c **** static void CyClockStartupError(uint8 errorCode)
 106:.\Generated_Source\PSoC4/cyfitter_cfg.c **** {
 107:.\Generated_Source\PSoC4/cyfitter_cfg.c ****     /* To remove the compiler warning if errorCode not used.                */
 108:.\Generated_Source\PSoC4/cyfitter_cfg.c ****     errorCode = errorCode;
 109:.\Generated_Source\PSoC4/cyfitter_cfg.c **** 
 110:.\Generated_Source\PSoC4/cyfitter_cfg.c ****     /* `#START CyClockStartupError` */
 111:.\Generated_Source\PSoC4/cyfitter_cfg.c **** 
 112:.\Generated_Source\PSoC4/cyfitter_cfg.c ****     /* If we have a clock startup error (bad MHz crystal, PLL lock, etc.),  */
 113:.\Generated_Source\PSoC4/cyfitter_cfg.c ****     /* we will end up here to allow the customer to implement something to  */
 114:.\Generated_Source\PSoC4/cyfitter_cfg.c ****     /* deal with the clock condition.                                       */
 115:.\Generated_Source\PSoC4/cyfitter_cfg.c **** 
 116:.\Generated_Source\PSoC4/cyfitter_cfg.c ****     /* `#END` */
 117:.\Generated_Source\PSoC4/cyfitter_cfg.c **** 
 118:.\Generated_Source\PSoC4/cyfitter_cfg.c ****     /* If nothing else, stop here since the clocks have not started         */
 119:.\Generated_Source\PSoC4/cyfitter_cfg.c ****     /* correctly.                                                           */
 120:.\Generated_Source\PSoC4/cyfitter_cfg.c ****     while(1) {}
 121:.\Generated_Source\PSoC4/cyfitter_cfg.c **** }
 122:.\Generated_Source\PSoC4/cyfitter_cfg.c **** #endif
 123:.\Generated_Source\PSoC4/cyfitter_cfg.c **** 
 124:.\Generated_Source\PSoC4/cyfitter_cfg.c **** #define CY_CFG_BASE_ADDR_COUNT 8u
 125:.\Generated_Source\PSoC4/cyfitter_cfg.c **** CYPACKED typedef struct
 126:.\Generated_Source\PSoC4/cyfitter_cfg.c **** {
 127:.\Generated_Source\PSoC4/cyfitter_cfg.c **** 	uint8 offset;
 128:.\Generated_Source\PSoC4/cyfitter_cfg.c **** 	uint8 value;
 129:.\Generated_Source\PSoC4/cyfitter_cfg.c **** } CYPACKED_ATTR cy_cfg_addrvalue_t;
 130:.\Generated_Source\PSoC4/cyfitter_cfg.c **** 
 131:.\Generated_Source\PSoC4/cyfitter_cfg.c **** 
 132:.\Generated_Source\PSoC4/cyfitter_cfg.c **** 
 133:.\Generated_Source\PSoC4/cyfitter_cfg.c **** /*******************************************************************************
 134:.\Generated_Source\PSoC4/cyfitter_cfg.c **** * Function Name: cfg_write_bytes32
 135:.\Generated_Source\PSoC4/cyfitter_cfg.c **** ********************************************************************************
 136:.\Generated_Source\PSoC4/cyfitter_cfg.c **** * Summary:
 137:.\Generated_Source\PSoC4/cyfitter_cfg.c **** *  This function is used for setting up the chip configuration areas that
 138:.\Generated_Source\PSoC4/cyfitter_cfg.c **** *  contain relatively sparse data.
 139:.\Generated_Source\PSoC4/cyfitter_cfg.c **** *
 140:.\Generated_Source\PSoC4/cyfitter_cfg.c **** * Parameters:
 141:.\Generated_Source\PSoC4/cyfitter_cfg.c **** *   void
 142:.\Generated_Source\PSoC4/cyfitter_cfg.c **** *
 143:.\Generated_Source\PSoC4/cyfitter_cfg.c **** * Return:
 144:.\Generated_Source\PSoC4/cyfitter_cfg.c **** *   void
 145:.\Generated_Source\PSoC4/cyfitter_cfg.c **** *
 146:.\Generated_Source\PSoC4/cyfitter_cfg.c **** *******************************************************************************/
 147:.\Generated_Source\PSoC4/cyfitter_cfg.c **** static void cfg_write_bytes32(const uint32 addr_table[], const cy_cfg_addrvalue_t data_table[]);
ARM GAS  C:\Users\LAIMON~1\AppData\Local\Temp\cclE2jtb.s 			page 4


 148:.\Generated_Source\PSoC4/cyfitter_cfg.c **** static void cfg_write_bytes32(const uint32 addr_table[], const cy_cfg_addrvalue_t data_table[])
 149:.\Generated_Source\PSoC4/cyfitter_cfg.c **** {
  25              		.loc 1 149 0
  26              		.cfi_startproc
  27              	.LVL0:
  28 0000 F0B5     		push	{r4, r5, r6, r7, lr}
  29              		.cfi_def_cfa_offset 20
  30              		.cfi_offset 4, -20
  31              		.cfi_offset 5, -16
  32              		.cfi_offset 6, -12
  33              		.cfi_offset 7, -8
  34              		.cfi_offset 14, -4
  35              	.LVL1:
 150:.\Generated_Source\PSoC4/cyfitter_cfg.c **** 	/* For 32-bit little-endian architectures */
 151:.\Generated_Source\PSoC4/cyfitter_cfg.c **** 	uint32 i, j = 0u;
  36              		.loc 1 151 0
  37 0002 0025     		mov	r5, #0
 152:.\Generated_Source\PSoC4/cyfitter_cfg.c **** 	for (i = 0u; i < CY_CFG_BASE_ADDR_COUNT; i++)
  38              		.loc 1 152 0
  39 0004 0027     		mov	r7, #0
  40 0006 11E0     		b	.L2
  41              	.LVL2:
  42              	.L5:
  43              	.LBB2:
 153:.\Generated_Source\PSoC4/cyfitter_cfg.c **** 	{
 154:.\Generated_Source\PSoC4/cyfitter_cfg.c **** 		uint32 baseAddr = addr_table[i];
  44              		.loc 1 154 0
  45 0008 BB00     		lsl	r3, r7, #2
  46 000a C658     		ldr	r6, [r0, r3]
  47              	.LVL3:
 155:.\Generated_Source\PSoC4/cyfitter_cfg.c **** 		uint8 count = (uint8)baseAddr;
  48              		.loc 1 155 0
  49 000c F3B2     		uxtb	r3, r6
  50              	.LVL4:
 156:.\Generated_Source\PSoC4/cyfitter_cfg.c **** 		baseAddr &= 0xFFFFFF00u;
  51              		.loc 1 156 0
  52 000e FF22     		mov	r2, #255
  53 0010 9643     		bic	r6, r2
  54              	.LVL5:
 157:.\Generated_Source\PSoC4/cyfitter_cfg.c **** 		while (count != 0u)
  55              		.loc 1 157 0
  56 0012 08E0     		b	.L3
  57              	.L4:
 158:.\Generated_Source\PSoC4/cyfitter_cfg.c **** 		{
 159:.\Generated_Source\PSoC4/cyfitter_cfg.c **** 			CY_SET_XTND_REG8((void CYFAR *)(baseAddr + data_table[j].offset), data_table[j].value);
  58              		.loc 1 159 0
  59 0014 6A00     		lsl	r2, r5, #1
  60 0016 8A18     		add	r2, r1, r2
  61 0018 1478     		ldrb	r4, [r2]
  62 001a A419     		add	r4, r4, r6
  63 001c 5278     		ldrb	r2, [r2, #1]
  64 001e 2270     		strb	r2, [r4]
 160:.\Generated_Source\PSoC4/cyfitter_cfg.c **** 			j++;
  65              		.loc 1 160 0
  66 0020 0135     		add	r5, r5, #1
  67              	.LVL6:
 161:.\Generated_Source\PSoC4/cyfitter_cfg.c **** 			count--;
ARM GAS  C:\Users\LAIMON~1\AppData\Local\Temp\cclE2jtb.s 			page 5


  68              		.loc 1 161 0
  69 0022 013B     		sub	r3, r3, #1
  70              	.LVL7:
  71 0024 DBB2     		uxtb	r3, r3
  72              	.LVL8:
  73              	.L3:
 157:.\Generated_Source\PSoC4/cyfitter_cfg.c **** 		{
  74              		.loc 1 157 0
  75 0026 002B     		cmp	r3, #0
  76 0028 F4D1     		bne	.L4
  77              	.LBE2:
 152:.\Generated_Source\PSoC4/cyfitter_cfg.c **** 	{
  78              		.loc 1 152 0 discriminator 2
  79 002a 0137     		add	r7, r7, #1
  80              	.LVL9:
  81              	.L2:
 152:.\Generated_Source\PSoC4/cyfitter_cfg.c **** 	{
  82              		.loc 1 152 0 is_stmt 0 discriminator 1
  83 002c 072F     		cmp	r7, #7
  84 002e EBD9     		bls	.L5
 162:.\Generated_Source\PSoC4/cyfitter_cfg.c **** 		}
 163:.\Generated_Source\PSoC4/cyfitter_cfg.c **** 	}
 164:.\Generated_Source\PSoC4/cyfitter_cfg.c **** }
  85              		.loc 1 164 0 is_stmt 1
  86              		@ sp needed
  87              	.LVL10:
  88              	.LVL11:
  89 0030 F0BD     		pop	{r4, r5, r6, r7, pc}
  90              		.cfi_endproc
  91              	.LFE3:
  92              		.size	cfg_write_bytes32, .-cfg_write_bytes32
  93 0032 C046     		.section	.text.CYMEMZERO,"ax",%progbits
  94              		.align	2
  95              		.code	16
  96              		.thumb_func
  97              		.type	CYMEMZERO, %function
  98              	CYMEMZERO:
  99              	.LFB0:
  60:.\Generated_Source\PSoC4/cyfitter_cfg.c **** 	(void)memset(s, 0, n);
 100              		.loc 1 60 0
 101              		.cfi_startproc
 102              	.LVL12:
 103 0000 08B5     		push	{r3, lr}
 104              		.cfi_def_cfa_offset 8
 105              		.cfi_offset 3, -8
 106              		.cfi_offset 14, -4
 107 0002 0A1C     		mov	r2, r1
  61:.\Generated_Source\PSoC4/cyfitter_cfg.c **** }
 108              		.loc 1 61 0
 109 0004 0021     		mov	r1, #0
 110              	.LVL13:
 111 0006 FFF7FEFF 		bl	memset
 112              	.LVL14:
  62:.\Generated_Source\PSoC4/cyfitter_cfg.c **** CY_CFG_UNUSED
 113              		.loc 1 62 0
 114              		@ sp needed
 115 000a 08BD     		pop	{r3, pc}
ARM GAS  C:\Users\LAIMON~1\AppData\Local\Temp\cclE2jtb.s 			page 6


 116              		.cfi_endproc
 117              	.LFE0:
 118              		.size	CYMEMZERO, .-CYMEMZERO
 119              		.section	.text.CYCONFIGCPYCODE,"ax",%progbits
 120              		.align	2
 121              		.code	16
 122              		.thumb_func
 123              		.type	CYCONFIGCPYCODE, %function
 124              	CYCONFIGCPYCODE:
 125              	.LFB2:
  74:.\Generated_Source\PSoC4/cyfitter_cfg.c **** 	(void)memcpy(dest, src, n);
 126              		.loc 1 74 0
 127              		.cfi_startproc
 128              	.LVL15:
 129 0000 08B5     		push	{r3, lr}
 130              		.cfi_def_cfa_offset 8
 131              		.cfi_offset 3, -8
 132              		.cfi_offset 14, -4
  75:.\Generated_Source\PSoC4/cyfitter_cfg.c **** }
 133              		.loc 1 75 0
 134 0002 FFF7FEFF 		bl	memcpy
 135              	.LVL16:
  76:.\Generated_Source\PSoC4/cyfitter_cfg.c **** 
 136              		.loc 1 76 0
 137              		@ sp needed
 138 0006 08BD     		pop	{r3, pc}
 139              		.cfi_endproc
 140              	.LFE2:
 141              		.size	CYCONFIGCPYCODE, .-CYCONFIGCPYCODE
 142              		.section	.psocinit,"ax",%progbits
 143              		.align	2
 144              		.code	16
 145              		.thumb_func
 146              		.type	ClockSetup, %function
 147              	ClockSetup:
 148              	.LFB4:
 165:.\Generated_Source\PSoC4/cyfitter_cfg.c **** 
 166:.\Generated_Source\PSoC4/cyfitter_cfg.c **** 
 167:.\Generated_Source\PSoC4/cyfitter_cfg.c **** /*******************************************************************************
 168:.\Generated_Source\PSoC4/cyfitter_cfg.c **** * Function Name: ClockSetup
 169:.\Generated_Source\PSoC4/cyfitter_cfg.c **** ********************************************************************************
 170:.\Generated_Source\PSoC4/cyfitter_cfg.c **** *
 171:.\Generated_Source\PSoC4/cyfitter_cfg.c **** * Summary:
 172:.\Generated_Source\PSoC4/cyfitter_cfg.c **** *   Performs the initialization of all of the clocks in the device based on the
 173:.\Generated_Source\PSoC4/cyfitter_cfg.c **** *   settings in the Clock tab of the DWR.  This includes enabling the requested
 174:.\Generated_Source\PSoC4/cyfitter_cfg.c **** *   clocks and setting the necessary dividers to produce the desired frequency. 
 175:.\Generated_Source\PSoC4/cyfitter_cfg.c **** *
 176:.\Generated_Source\PSoC4/cyfitter_cfg.c **** * Parameters:
 177:.\Generated_Source\PSoC4/cyfitter_cfg.c **** *   void
 178:.\Generated_Source\PSoC4/cyfitter_cfg.c **** *
 179:.\Generated_Source\PSoC4/cyfitter_cfg.c **** * Return:
 180:.\Generated_Source\PSoC4/cyfitter_cfg.c **** *   void
 181:.\Generated_Source\PSoC4/cyfitter_cfg.c **** *
 182:.\Generated_Source\PSoC4/cyfitter_cfg.c **** *******************************************************************************/
 183:.\Generated_Source\PSoC4/cyfitter_cfg.c **** static void ClockSetup(void);
 184:.\Generated_Source\PSoC4/cyfitter_cfg.c **** CY_CFG_SECTION
 185:.\Generated_Source\PSoC4/cyfitter_cfg.c **** static void ClockSetup(void)
ARM GAS  C:\Users\LAIMON~1\AppData\Local\Temp\cclE2jtb.s 			page 7


 186:.\Generated_Source\PSoC4/cyfitter_cfg.c **** {
 149              		.loc 1 186 0
 150              		.cfi_startproc
 151 0000 38B5     		push	{r3, r4, r5, lr}
 152              		.cfi_def_cfa_offset 16
 153              		.cfi_offset 3, -16
 154              		.cfi_offset 4, -12
 155              		.cfi_offset 5, -8
 156              		.cfi_offset 14, -4
 187:.\Generated_Source\PSoC4/cyfitter_cfg.c **** 	/* Enable HALF_EN before trimming for the flash accelerator. */
 188:.\Generated_Source\PSoC4/cyfitter_cfg.c **** 	CY_SET_REG32((void CYXDATA *)(CYREG_CLK_SELECT), (CY_GET_REG32((void *)CYREG_CLK_SELECT) | 0x00040
 157              		.loc 1 188 0
 158 0002 174C     		ldr	r4, .L9
 159 0004 2368     		ldr	r3, [r4]
 160 0006 8025     		mov	r5, #128
 161 0008 ED02     		lsl	r5, r5, #11
 162 000a 2B43     		orr	r3, r5
 163 000c 2360     		str	r3, [r4]
 189:.\Generated_Source\PSoC4/cyfitter_cfg.c **** 
 190:.\Generated_Source\PSoC4/cyfitter_cfg.c **** 	/* Setup and trim IMO based on desired frequency. */
 191:.\Generated_Source\PSoC4/cyfitter_cfg.c **** 	CySysClkWriteImoFreq(48u);
 164              		.loc 1 191 0
 165 000e 3020     		mov	r0, #48
 166 0010 FFF7FEFF 		bl	CySysClkWriteImoFreq
 167              	.LVL17:
 192:.\Generated_Source\PSoC4/cyfitter_cfg.c **** 	/* CYDEV_CLK_ILO_CONFIG Starting address: CYDEV_CLK_ILO_CONFIG */
 193:.\Generated_Source\PSoC4/cyfitter_cfg.c **** 	CY_SET_XTND_REG32((void CYFAR *)(CYREG_CLK_ILO_CONFIG), 0x80000006u);
 168              		.loc 1 193 0
 169 0014 134A     		ldr	r2, .L9+4
 170 0016 144B     		ldr	r3, .L9+8
 171 0018 1A60     		str	r2, [r3]
 194:.\Generated_Source\PSoC4/cyfitter_cfg.c **** 
 195:.\Generated_Source\PSoC4/cyfitter_cfg.c **** 
 196:.\Generated_Source\PSoC4/cyfitter_cfg.c **** 	/* CYDEV_CLK_SELECT00 Starting address: CYDEV_CLK_SELECT00 */
 197:.\Generated_Source\PSoC4/cyfitter_cfg.c **** 	CY_SET_XTND_REG32((void CYFAR *)(CYREG_CLK_SELECT07), 0x00000010u);
 172              		.loc 1 197 0
 173 001a 1022     		mov	r2, #16
 174 001c 134B     		ldr	r3, .L9+12
 175 001e 1A60     		str	r2, [r3]
 198:.\Generated_Source\PSoC4/cyfitter_cfg.c **** 	CY_SET_XTND_REG32((void CYFAR *)(CYREG_CLK_SELECT13), 0x00000020u);
 176              		.loc 1 198 0
 177 0020 1032     		add	r2, r2, #16
 178 0022 134B     		ldr	r3, .L9+16
 179 0024 1A60     		str	r2, [r3]
 199:.\Generated_Source\PSoC4/cyfitter_cfg.c **** 	CY_SET_XTND_REG32((void CYFAR *)(CYREG_CLK_SELECT15), 0x00000030u);
 180              		.loc 1 199 0
 181 0026 1032     		add	r2, r2, #16
 182 0028 124B     		ldr	r3, .L9+20
 183 002a 1A60     		str	r2, [r3]
 200:.\Generated_Source\PSoC4/cyfitter_cfg.c **** 
 201:.\Generated_Source\PSoC4/cyfitter_cfg.c **** 	/* CYDEV_CLK_IMO_CONFIG Starting address: CYDEV_CLK_IMO_CONFIG */
 202:.\Generated_Source\PSoC4/cyfitter_cfg.c **** 	CY_SET_XTND_REG32((void CYFAR *)(CYREG_CLK_IMO_CONFIG), 0x82000000u);
 184              		.loc 1 202 0
 185 002c 8222     		mov	r2, #130
 186 002e 1206     		lsl	r2, r2, #24
 187 0030 114B     		ldr	r3, .L9+24
 188 0032 1A60     		str	r2, [r3]
ARM GAS  C:\Users\LAIMON~1\AppData\Local\Temp\cclE2jtb.s 			page 8


 203:.\Generated_Source\PSoC4/cyfitter_cfg.c **** 
 204:.\Generated_Source\PSoC4/cyfitter_cfg.c **** 	/* CYDEV_CLK_SELECT Starting address: CYDEV_CLK_SELECT */
 205:.\Generated_Source\PSoC4/cyfitter_cfg.c **** 	CY_SET_XTND_REG32((void CYFAR *)(CYREG_CLK_SELECT), 0x00040000u);
 189              		.loc 1 205 0
 190 0034 2560     		str	r5, [r4]
 206:.\Generated_Source\PSoC4/cyfitter_cfg.c **** 
 207:.\Generated_Source\PSoC4/cyfitter_cfg.c **** 	/* CYDEV_CLK_DIVIDER_A00 Starting address: CYDEV_CLK_DIVIDER_A00 */
 208:.\Generated_Source\PSoC4/cyfitter_cfg.c **** 	CY_SET_XTND_REG32((void CYFAR *)(CYREG_CLK_DIVIDER_A00), 0x80000002u);
 191              		.loc 1 208 0
 192 0036 114A     		ldr	r2, .L9+28
 193 0038 114B     		ldr	r3, .L9+32
 194 003a 1A60     		str	r2, [r3]
 209:.\Generated_Source\PSoC4/cyfitter_cfg.c **** 
 210:.\Generated_Source\PSoC4/cyfitter_cfg.c **** 	/* CYDEV_CLK_DIVIDER_B00 Starting address: CYDEV_CLK_DIVIDER_B00 */
 211:.\Generated_Source\PSoC4/cyfitter_cfg.c **** 	CY_SET_XTND_REG32((void CYFAR *)(CYREG_CLK_DIVIDER_B00), 0x80000138u);
 195              		.loc 1 211 0
 196 003c 114A     		ldr	r2, .L9+36
 197 003e 124B     		ldr	r3, .L9+40
 198 0040 1A60     		str	r2, [r3]
 212:.\Generated_Source\PSoC4/cyfitter_cfg.c **** 
 213:.\Generated_Source\PSoC4/cyfitter_cfg.c **** 	/* CYDEV_CLK_DIVIDER_C00 Starting address: CYDEV_CLK_DIVIDER_C00 */
 214:.\Generated_Source\PSoC4/cyfitter_cfg.c **** 	CY_SET_XTND_REG32((void CYFAR *)(CYREG_CLK_DIVIDER_C00), 0x80002EDFu);
 199              		.loc 1 214 0
 200 0042 124A     		ldr	r2, .L9+44
 201 0044 124B     		ldr	r3, .L9+48
 202 0046 1A60     		str	r2, [r3]
 215:.\Generated_Source\PSoC4/cyfitter_cfg.c **** 
 216:.\Generated_Source\PSoC4/cyfitter_cfg.c **** 	(void)CyIntSetVector(9u, &CySysWdtIsr);
 203              		.loc 1 216 0
 204 0048 0920     		mov	r0, #9
 205 004a 1249     		ldr	r1, .L9+52
 206 004c FFF7FEFF 		bl	CyIntSetVector
 207              	.LVL18:
 217:.\Generated_Source\PSoC4/cyfitter_cfg.c **** 	CyIntEnable(9u);
 208              		.loc 1 217 0
 209 0050 0920     		mov	r0, #9
 210 0052 FFF7FEFF 		bl	CyIntEnable
 211              	.LVL19:
 218:.\Generated_Source\PSoC4/cyfitter_cfg.c **** 	CY_SET_XTND_REG32((void CYFAR *)(CYREG_WDT_CONFIG), 0x00000000u);
 212              		.loc 1 218 0
 213 0056 0022     		mov	r2, #0
 214 0058 0F4B     		ldr	r3, .L9+56
 215 005a 1A60     		str	r2, [r3]
 219:.\Generated_Source\PSoC4/cyfitter_cfg.c **** }
 216              		.loc 1 219 0
 217              		@ sp needed
 218 005c 38BD     		pop	{r3, r4, r5, pc}
 219              	.L10:
 220 005e C046     		.align	2
 221              	.L9:
 222 0060 00010B40 		.word	1074462976
 223 0064 06000080 		.word	-2147483642
 224 0068 04010B40 		.word	1074462980
 225 006c 1C020240 		.word	1073873436
 226 0070 34020240 		.word	1073873460
 227 0074 3C020240 		.word	1073873468
 228 0078 08010B40 		.word	1074462984
ARM GAS  C:\Users\LAIMON~1\AppData\Local\Temp\cclE2jtb.s 			page 9


 229 007c 02000080 		.word	-2147483646
 230 0080 00000240 		.word	1073872896
 231 0084 38010080 		.word	-2147483336
 232 0088 40000240 		.word	1073872960
 233 008c DF2E0080 		.word	-2147471649
 234 0090 80000240 		.word	1073873024
 235 0094 00000000 		.word	CySysWdtIsr
 236 0098 0C020B40 		.word	1074463244
 237              		.cfi_endproc
 238              	.LFE4:
 239              		.size	ClockSetup, .-ClockSetup
 240              		.section	.text.SetAnalogRoutingPumps,"ax",%progbits
 241              		.align	2
 242              		.global	SetAnalogRoutingPumps
 243              		.code	16
 244              		.thumb_func
 245              		.type	SetAnalogRoutingPumps, %function
 246              	SetAnalogRoutingPumps:
 247              	.LFB6:
 220:.\Generated_Source\PSoC4/cyfitter_cfg.c **** 
 221:.\Generated_Source\PSoC4/cyfitter_cfg.c **** 
 222:.\Generated_Source\PSoC4/cyfitter_cfg.c **** /* Analog API Functions */
 223:.\Generated_Source\PSoC4/cyfitter_cfg.c **** 
 224:.\Generated_Source\PSoC4/cyfitter_cfg.c **** 
 225:.\Generated_Source\PSoC4/cyfitter_cfg.c **** /*******************************************************************************
 226:.\Generated_Source\PSoC4/cyfitter_cfg.c **** * Function Name: AnalogSetDefault
 227:.\Generated_Source\PSoC4/cyfitter_cfg.c **** ********************************************************************************
 228:.\Generated_Source\PSoC4/cyfitter_cfg.c **** *
 229:.\Generated_Source\PSoC4/cyfitter_cfg.c **** * Summary:
 230:.\Generated_Source\PSoC4/cyfitter_cfg.c **** *  Sets up the analog portions of the chip to default values based on chip
 231:.\Generated_Source\PSoC4/cyfitter_cfg.c **** *  configuration options from the project.
 232:.\Generated_Source\PSoC4/cyfitter_cfg.c **** *
 233:.\Generated_Source\PSoC4/cyfitter_cfg.c **** * Parameters:
 234:.\Generated_Source\PSoC4/cyfitter_cfg.c **** *  void
 235:.\Generated_Source\PSoC4/cyfitter_cfg.c **** *
 236:.\Generated_Source\PSoC4/cyfitter_cfg.c **** * Return:
 237:.\Generated_Source\PSoC4/cyfitter_cfg.c **** *  void
 238:.\Generated_Source\PSoC4/cyfitter_cfg.c **** *
 239:.\Generated_Source\PSoC4/cyfitter_cfg.c **** *******************************************************************************/
 240:.\Generated_Source\PSoC4/cyfitter_cfg.c **** static void AnalogSetDefault(void);
 241:.\Generated_Source\PSoC4/cyfitter_cfg.c **** static void AnalogSetDefault(void)
 242:.\Generated_Source\PSoC4/cyfitter_cfg.c **** {
 243:.\Generated_Source\PSoC4/cyfitter_cfg.c **** 	CY_SET_XTND_REG32((void CYFAR *)CYREG_SAR_MUX_SWITCH0, 0x000020D9u);
 244:.\Generated_Source\PSoC4/cyfitter_cfg.c **** 	CY_SET_XTND_REG32((void CYFAR *)CYREG_SAR_MUX_SWITCH_HW_CTRL, 0x000000F9u);
 245:.\Generated_Source\PSoC4/cyfitter_cfg.c **** 	SetAnalogRoutingPumps(1);
 246:.\Generated_Source\PSoC4/cyfitter_cfg.c **** }
 247:.\Generated_Source\PSoC4/cyfitter_cfg.c **** 
 248:.\Generated_Source\PSoC4/cyfitter_cfg.c **** 
 249:.\Generated_Source\PSoC4/cyfitter_cfg.c **** /*******************************************************************************
 250:.\Generated_Source\PSoC4/cyfitter_cfg.c **** * Function Name: SetAnalogRoutingPumps
 251:.\Generated_Source\PSoC4/cyfitter_cfg.c **** ********************************************************************************
 252:.\Generated_Source\PSoC4/cyfitter_cfg.c **** *
 253:.\Generated_Source\PSoC4/cyfitter_cfg.c **** * Summary:
 254:.\Generated_Source\PSoC4/cyfitter_cfg.c **** * Enables or disables the analog pumps feeding analog routing switches.
 255:.\Generated_Source\PSoC4/cyfitter_cfg.c **** * Intended to be called at startup, based on the Vdda system configuration;
 256:.\Generated_Source\PSoC4/cyfitter_cfg.c **** * may be called during operation when the user informs us that the Vdda voltage crossed the pump th
 257:.\Generated_Source\PSoC4/cyfitter_cfg.c **** *
ARM GAS  C:\Users\LAIMON~1\AppData\Local\Temp\cclE2jtb.s 			page 10


 258:.\Generated_Source\PSoC4/cyfitter_cfg.c **** * Parameters:
 259:.\Generated_Source\PSoC4/cyfitter_cfg.c **** *  enabled - 1 to enable the pumps, 0 to disable the pumps
 260:.\Generated_Source\PSoC4/cyfitter_cfg.c **** *
 261:.\Generated_Source\PSoC4/cyfitter_cfg.c **** * Return:
 262:.\Generated_Source\PSoC4/cyfitter_cfg.c **** *  void
 263:.\Generated_Source\PSoC4/cyfitter_cfg.c **** *
 264:.\Generated_Source\PSoC4/cyfitter_cfg.c **** *******************************************************************************/
 265:.\Generated_Source\PSoC4/cyfitter_cfg.c **** void SetAnalogRoutingPumps(uint8 enabled)
 266:.\Generated_Source\PSoC4/cyfitter_cfg.c **** {
 248              		.loc 1 266 0
 249              		.cfi_startproc
 250              	.LVL20:
 267:.\Generated_Source\PSoC4/cyfitter_cfg.c **** 	uint32 regValue = CY_GET_XTND_REG32((void *)(CYREG_SAR_PUMP_CTRL));
 251              		.loc 1 267 0
 252 0000 064B     		ldr	r3, .L14
 253 0002 1B68     		ldr	r3, [r3]
 254              	.LVL21:
 268:.\Generated_Source\PSoC4/cyfitter_cfg.c **** 	if (enabled != 0u)
 255              		.loc 1 268 0
 256 0004 0028     		cmp	r0, #0
 257 0006 03D0     		beq	.L12
 269:.\Generated_Source\PSoC4/cyfitter_cfg.c **** 	{
 270:.\Generated_Source\PSoC4/cyfitter_cfg.c **** 		regValue |= 0x80000000u;
 258              		.loc 1 270 0
 259 0008 8022     		mov	r2, #128
 260 000a 1206     		lsl	r2, r2, #24
 261 000c 1343     		orr	r3, r2
 262              	.LVL22:
 263 000e 01E0     		b	.L13
 264              	.L12:
 271:.\Generated_Source\PSoC4/cyfitter_cfg.c **** 	}
 272:.\Generated_Source\PSoC4/cyfitter_cfg.c **** 	else
 273:.\Generated_Source\PSoC4/cyfitter_cfg.c **** 	{
 274:.\Generated_Source\PSoC4/cyfitter_cfg.c **** 		regValue &= ~0x80000000u;
 265              		.loc 1 274 0
 266 0010 5B00     		lsl	r3, r3, #1
 267              	.LVL23:
 268 0012 5B08     		lsr	r3, r3, #1
 269              	.LVL24:
 270              	.L13:
 275:.\Generated_Source\PSoC4/cyfitter_cfg.c **** 	}
 276:.\Generated_Source\PSoC4/cyfitter_cfg.c **** 	CY_SET_XTND_REG32((void *)(CYREG_SAR_PUMP_CTRL), regValue);
 271              		.loc 1 276 0
 272 0014 014A     		ldr	r2, .L14
 273 0016 1360     		str	r3, [r2]
 277:.\Generated_Source\PSoC4/cyfitter_cfg.c **** }
 274              		.loc 1 277 0
 275              		@ sp needed
 276 0018 7047     		bx	lr
 277              	.L15:
 278 001a C046     		.align	2
 279              	.L14:
 280 001c 80031A40 		.word	1075446656
 281              		.cfi_endproc
 282              	.LFE6:
 283              		.size	SetAnalogRoutingPumps, .-SetAnalogRoutingPumps
 284              		.section	.text.AnalogSetDefault,"ax",%progbits
ARM GAS  C:\Users\LAIMON~1\AppData\Local\Temp\cclE2jtb.s 			page 11


 285              		.align	2
 286              		.code	16
 287              		.thumb_func
 288              		.type	AnalogSetDefault, %function
 289              	AnalogSetDefault:
 290              	.LFB5:
 242:.\Generated_Source\PSoC4/cyfitter_cfg.c **** 	CY_SET_XTND_REG32((void CYFAR *)CYREG_SAR_MUX_SWITCH0, 0x000020D9u);
 291              		.loc 1 242 0
 292              		.cfi_startproc
 293 0000 08B5     		push	{r3, lr}
 294              		.cfi_def_cfa_offset 8
 295              		.cfi_offset 3, -8
 296              		.cfi_offset 14, -4
 243:.\Generated_Source\PSoC4/cyfitter_cfg.c **** 	CY_SET_XTND_REG32((void CYFAR *)CYREG_SAR_MUX_SWITCH_HW_CTRL, 0x000000F9u);
 297              		.loc 1 243 0
 298 0002 054A     		ldr	r2, .L17
 299 0004 054B     		ldr	r3, .L17+4
 300 0006 1A60     		str	r2, [r3]
 244:.\Generated_Source\PSoC4/cyfitter_cfg.c **** 	SetAnalogRoutingPumps(1);
 301              		.loc 1 244 0
 302 0008 F922     		mov	r2, #249
 303 000a 054B     		ldr	r3, .L17+8
 304 000c 1A60     		str	r2, [r3]
 245:.\Generated_Source\PSoC4/cyfitter_cfg.c **** }
 305              		.loc 1 245 0
 306 000e 0120     		mov	r0, #1
 307 0010 FFF7FEFF 		bl	SetAnalogRoutingPumps
 308              	.LVL25:
 246:.\Generated_Source\PSoC4/cyfitter_cfg.c **** 
 309              		.loc 1 246 0
 310              		@ sp needed
 311 0014 08BD     		pop	{r3, pc}
 312              	.L18:
 313 0016 C046     		.align	2
 314              	.L17:
 315 0018 D9200000 		.word	8409
 316 001c 00031A40 		.word	1075446528
 317 0020 40031A40 		.word	1075446592
 318              		.cfi_endproc
 319              	.LFE5:
 320              		.size	AnalogSetDefault, .-AnalogSetDefault
 321              		.section	.psocinit
 322              		.align	2
 323              		.global	cyfitter_cfg
 324              		.code	16
 325              		.thumb_func
 326              		.type	cyfitter_cfg, %function
 327              	cyfitter_cfg:
 328              	.LFB7:
 278:.\Generated_Source\PSoC4/cyfitter_cfg.c **** 
 279:.\Generated_Source\PSoC4/cyfitter_cfg.c **** #define CY_AMUX_UNUSED CYREG_CM0_ROM_DWT
 280:.\Generated_Source\PSoC4/cyfitter_cfg.c **** 
 281:.\Generated_Source\PSoC4/cyfitter_cfg.c **** 
 282:.\Generated_Source\PSoC4/cyfitter_cfg.c **** /*******************************************************************************
 283:.\Generated_Source\PSoC4/cyfitter_cfg.c **** * Function Name: cyfitter_cfg
 284:.\Generated_Source\PSoC4/cyfitter_cfg.c **** ********************************************************************************
 285:.\Generated_Source\PSoC4/cyfitter_cfg.c **** * Summary:
ARM GAS  C:\Users\LAIMON~1\AppData\Local\Temp\cclE2jtb.s 			page 12


 286:.\Generated_Source\PSoC4/cyfitter_cfg.c **** *  This function is called by the start-up code for the selected device. It
 287:.\Generated_Source\PSoC4/cyfitter_cfg.c **** *  performs all of the necessary device configuration based on the design
 288:.\Generated_Source\PSoC4/cyfitter_cfg.c **** *  settings.  This includes settings from the Design Wide Resources (DWR) such
 289:.\Generated_Source\PSoC4/cyfitter_cfg.c **** *  as Clocks and Pins as well as any component configuration that is necessary.
 290:.\Generated_Source\PSoC4/cyfitter_cfg.c **** *
 291:.\Generated_Source\PSoC4/cyfitter_cfg.c **** * Parameters:  
 292:.\Generated_Source\PSoC4/cyfitter_cfg.c **** *   void
 293:.\Generated_Source\PSoC4/cyfitter_cfg.c **** *
 294:.\Generated_Source\PSoC4/cyfitter_cfg.c **** * Return:
 295:.\Generated_Source\PSoC4/cyfitter_cfg.c **** *   void
 296:.\Generated_Source\PSoC4/cyfitter_cfg.c **** *
 297:.\Generated_Source\PSoC4/cyfitter_cfg.c **** *******************************************************************************/
 298:.\Generated_Source\PSoC4/cyfitter_cfg.c **** CY_CFG_SECTION
 299:.\Generated_Source\PSoC4/cyfitter_cfg.c **** void cyfitter_cfg(void)
 300:.\Generated_Source\PSoC4/cyfitter_cfg.c **** {
 329              		.loc 1 300 0
 330              		.cfi_startproc
 331 009c 38B5     		push	{r3, r4, r5, lr}
 332              		.cfi_def_cfa_offset 16
 333              		.cfi_offset 3, -16
 334              		.cfi_offset 4, -12
 335              		.cfi_offset 5, -8
 336              		.cfi_offset 14, -4
 301:.\Generated_Source\PSoC4/cyfitter_cfg.c **** 	/* Disable interrupts by default. Let user enable if/when they want. */
 302:.\Generated_Source\PSoC4/cyfitter_cfg.c **** 	CyGlobalIntDisable;
 337              		.loc 1 302 0
 338              	@ 302 ".\Generated_Source\PSoC4\cyfitter_cfg.c" 1
 339 009e 72B6     		CPSID   i
 340              	@ 0 "" 2
 303:.\Generated_Source\PSoC4/cyfitter_cfg.c **** 
 304:.\Generated_Source\PSoC4/cyfitter_cfg.c **** 	/* Enable the clock in the interrupt controller for the routed interrupts */
 305:.\Generated_Source\PSoC4/cyfitter_cfg.c **** 	CY_SET_REG8((void *)CYREG_UDB_UDBIF_INT_CLK_CTL, 0x01u);
 341              		.loc 1 305 0
 342              		.code	16
 343 00a0 0122     		mov	r2, #1
 344 00a2 404B     		ldr	r3, .L24
 345 00a4 1A70     		strb	r2, [r3]
 346              	.LVL26:
 347              	.LBB3:
 306:.\Generated_Source\PSoC4/cyfitter_cfg.c **** 	{
 307:.\Generated_Source\PSoC4/cyfitter_cfg.c **** 		static const uint32 CYCODE cy_cfg_addr_table[] = {
 308:.\Generated_Source\PSoC4/cyfitter_cfg.c **** 			0x400F0003u, /* Base address: 0x400F0000 Count: 3 */
 309:.\Generated_Source\PSoC4/cyfitter_cfg.c **** 			0x400F303Bu, /* Base address: 0x400F3000 Count: 59 */
 310:.\Generated_Source\PSoC4/cyfitter_cfg.c **** 			0x400F314Au, /* Base address: 0x400F3100 Count: 74 */
 311:.\Generated_Source\PSoC4/cyfitter_cfg.c **** 			0x400F3269u, /* Base address: 0x400F3200 Count: 105 */
 312:.\Generated_Source\PSoC4/cyfitter_cfg.c **** 			0x400F3350u, /* Base address: 0x400F3300 Count: 80 */
 313:.\Generated_Source\PSoC4/cyfitter_cfg.c **** 			0x400F400Bu, /* Base address: 0x400F4000 Count: 11 */
 314:.\Generated_Source\PSoC4/cyfitter_cfg.c **** 			0x400F4105u, /* Base address: 0x400F4100 Count: 5 */
 315:.\Generated_Source\PSoC4/cyfitter_cfg.c **** 			0x400F6002u, /* Base address: 0x400F6000 Count: 2 */
 316:.\Generated_Source\PSoC4/cyfitter_cfg.c **** 		};
 317:.\Generated_Source\PSoC4/cyfitter_cfg.c **** 
 318:.\Generated_Source\PSoC4/cyfitter_cfg.c **** 		static const cy_cfg_addrvalue_t CYCODE cy_cfg_data_table[] = {
 319:.\Generated_Source\PSoC4/cyfitter_cfg.c **** 			{0x80u, 0x38u},
 320:.\Generated_Source\PSoC4/cyfitter_cfg.c **** 			{0x81u, 0x0Fu},
 321:.\Generated_Source\PSoC4/cyfitter_cfg.c **** 			{0x83u, 0x76u},
 322:.\Generated_Source\PSoC4/cyfitter_cfg.c **** 			{0x81u, 0x10u},
 323:.\Generated_Source\PSoC4/cyfitter_cfg.c **** 			{0x84u, 0x92u},
ARM GAS  C:\Users\LAIMON~1\AppData\Local\Temp\cclE2jtb.s 			page 13


 324:.\Generated_Source\PSoC4/cyfitter_cfg.c **** 			{0x85u, 0x14u},
 325:.\Generated_Source\PSoC4/cyfitter_cfg.c **** 			{0x86u, 0x25u},
 326:.\Generated_Source\PSoC4/cyfitter_cfg.c **** 			{0x88u, 0x48u},
 327:.\Generated_Source\PSoC4/cyfitter_cfg.c **** 			{0x89u, 0x09u},
 328:.\Generated_Source\PSoC4/cyfitter_cfg.c **** 			{0x8Au, 0x25u},
 329:.\Generated_Source\PSoC4/cyfitter_cfg.c **** 			{0x8Bu, 0x10u},
 330:.\Generated_Source\PSoC4/cyfitter_cfg.c **** 			{0x91u, 0x1Cu},
 331:.\Generated_Source\PSoC4/cyfitter_cfg.c **** 			{0x93u, 0x02u},
 332:.\Generated_Source\PSoC4/cyfitter_cfg.c **** 			{0x94u, 0x03u},
 333:.\Generated_Source\PSoC4/cyfitter_cfg.c **** 			{0x95u, 0x40u},
 334:.\Generated_Source\PSoC4/cyfitter_cfg.c **** 			{0x96u, 0xFCu},
 335:.\Generated_Source\PSoC4/cyfitter_cfg.c **** 			{0x97u, 0x03u},
 336:.\Generated_Source\PSoC4/cyfitter_cfg.c **** 			{0x98u, 0xE3u},
 337:.\Generated_Source\PSoC4/cyfitter_cfg.c **** 			{0x99u, 0x0Cu},
 338:.\Generated_Source\PSoC4/cyfitter_cfg.c **** 			{0x9Au, 0x1Cu},
 339:.\Generated_Source\PSoC4/cyfitter_cfg.c **** 			{0x9Bu, 0x11u},
 340:.\Generated_Source\PSoC4/cyfitter_cfg.c **** 			{0x9Cu, 0x25u},
 341:.\Generated_Source\PSoC4/cyfitter_cfg.c **** 			{0x9Eu, 0xDAu},
 342:.\Generated_Source\PSoC4/cyfitter_cfg.c **** 			{0xA0u, 0x1Fu},
 343:.\Generated_Source\PSoC4/cyfitter_cfg.c **** 			{0xA2u, 0xE0u},
 344:.\Generated_Source\PSoC4/cyfitter_cfg.c **** 			{0xA4u, 0xE3u},
 345:.\Generated_Source\PSoC4/cyfitter_cfg.c **** 			{0xA5u, 0x20u},
 346:.\Generated_Source\PSoC4/cyfitter_cfg.c **** 			{0xA6u, 0x1Cu},
 347:.\Generated_Source\PSoC4/cyfitter_cfg.c **** 			{0xA9u, 0x10u},
 348:.\Generated_Source\PSoC4/cyfitter_cfg.c **** 			{0xABu, 0x0Cu},
 349:.\Generated_Source\PSoC4/cyfitter_cfg.c **** 			{0xACu, 0xE0u},
 350:.\Generated_Source\PSoC4/cyfitter_cfg.c **** 			{0xAEu, 0x1Cu},
 351:.\Generated_Source\PSoC4/cyfitter_cfg.c **** 			{0xB2u, 0xFFu},
 352:.\Generated_Source\PSoC4/cyfitter_cfg.c **** 			{0xB3u, 0x1Fu},
 353:.\Generated_Source\PSoC4/cyfitter_cfg.c **** 			{0xB5u, 0x20u},
 354:.\Generated_Source\PSoC4/cyfitter_cfg.c **** 			{0xB7u, 0x40u},
 355:.\Generated_Source\PSoC4/cyfitter_cfg.c **** 			{0xBEu, 0x04u},
 356:.\Generated_Source\PSoC4/cyfitter_cfg.c **** 			{0xBFu, 0x50u},
 357:.\Generated_Source\PSoC4/cyfitter_cfg.c **** 			{0xC0u, 0x63u},
 358:.\Generated_Source\PSoC4/cyfitter_cfg.c **** 			{0xC1u, 0x02u},
 359:.\Generated_Source\PSoC4/cyfitter_cfg.c **** 			{0xC5u, 0x0Bu},
 360:.\Generated_Source\PSoC4/cyfitter_cfg.c **** 			{0xC6u, 0xE0u},
 361:.\Generated_Source\PSoC4/cyfitter_cfg.c **** 			{0xC7u, 0xC0u},
 362:.\Generated_Source\PSoC4/cyfitter_cfg.c **** 			{0xC8u, 0x29u},
 363:.\Generated_Source\PSoC4/cyfitter_cfg.c **** 			{0xC9u, 0xFFu},
 364:.\Generated_Source\PSoC4/cyfitter_cfg.c **** 			{0xCAu, 0xFFu},
 365:.\Generated_Source\PSoC4/cyfitter_cfg.c **** 			{0xCBu, 0xFFu},
 366:.\Generated_Source\PSoC4/cyfitter_cfg.c **** 			{0xCEu, 0xF0u},
 367:.\Generated_Source\PSoC4/cyfitter_cfg.c **** 			{0xCFu, 0x44u},
 368:.\Generated_Source\PSoC4/cyfitter_cfg.c **** 			{0xD0u, 0x0Cu},
 369:.\Generated_Source\PSoC4/cyfitter_cfg.c **** 			{0xD4u, 0x01u},
 370:.\Generated_Source\PSoC4/cyfitter_cfg.c **** 			{0xD6u, 0x04u},
 371:.\Generated_Source\PSoC4/cyfitter_cfg.c **** 			{0xD8u, 0x04u},
 372:.\Generated_Source\PSoC4/cyfitter_cfg.c **** 			{0xD9u, 0x04u},
 373:.\Generated_Source\PSoC4/cyfitter_cfg.c **** 			{0xDAu, 0x04u},
 374:.\Generated_Source\PSoC4/cyfitter_cfg.c **** 			{0xDBu, 0x04u},
 375:.\Generated_Source\PSoC4/cyfitter_cfg.c **** 			{0xDCu, 0x10u},
 376:.\Generated_Source\PSoC4/cyfitter_cfg.c **** 			{0xDDu, 0x11u},
 377:.\Generated_Source\PSoC4/cyfitter_cfg.c **** 			{0xDFu, 0x01u},
 378:.\Generated_Source\PSoC4/cyfitter_cfg.c **** 			{0xE6u, 0xC0u},
 379:.\Generated_Source\PSoC4/cyfitter_cfg.c **** 			{0xEAu, 0x40u},
 380:.\Generated_Source\PSoC4/cyfitter_cfg.c **** 			{0xEBu, 0x02u},
ARM GAS  C:\Users\LAIMON~1\AppData\Local\Temp\cclE2jtb.s 			page 14


 381:.\Generated_Source\PSoC4/cyfitter_cfg.c **** 			{0x00u, 0x08u},
 382:.\Generated_Source\PSoC4/cyfitter_cfg.c **** 			{0x01u, 0x88u},
 383:.\Generated_Source\PSoC4/cyfitter_cfg.c **** 			{0x04u, 0x20u},
 384:.\Generated_Source\PSoC4/cyfitter_cfg.c **** 			{0x05u, 0x08u},
 385:.\Generated_Source\PSoC4/cyfitter_cfg.c **** 			{0x08u, 0x40u},
 386:.\Generated_Source\PSoC4/cyfitter_cfg.c **** 			{0x09u, 0x01u},
 387:.\Generated_Source\PSoC4/cyfitter_cfg.c **** 			{0x0Au, 0x18u},
 388:.\Generated_Source\PSoC4/cyfitter_cfg.c **** 			{0x0Bu, 0x0Au},
 389:.\Generated_Source\PSoC4/cyfitter_cfg.c **** 			{0x0Cu, 0x44u},
 390:.\Generated_Source\PSoC4/cyfitter_cfg.c **** 			{0x0Du, 0x08u},
 391:.\Generated_Source\PSoC4/cyfitter_cfg.c **** 			{0x0Eu, 0x04u},
 392:.\Generated_Source\PSoC4/cyfitter_cfg.c **** 			{0x0Fu, 0x04u},
 393:.\Generated_Source\PSoC4/cyfitter_cfg.c **** 			{0x11u, 0x28u},
 394:.\Generated_Source\PSoC4/cyfitter_cfg.c **** 			{0x12u, 0x02u},
 395:.\Generated_Source\PSoC4/cyfitter_cfg.c **** 			{0x14u, 0x80u},
 396:.\Generated_Source\PSoC4/cyfitter_cfg.c **** 			{0x15u, 0x81u},
 397:.\Generated_Source\PSoC4/cyfitter_cfg.c **** 			{0x17u, 0x04u},
 398:.\Generated_Source\PSoC4/cyfitter_cfg.c **** 			{0x18u, 0x01u},
 399:.\Generated_Source\PSoC4/cyfitter_cfg.c **** 			{0x1Au, 0x18u},
 400:.\Generated_Source\PSoC4/cyfitter_cfg.c **** 			{0x1Bu, 0x10u},
 401:.\Generated_Source\PSoC4/cyfitter_cfg.c **** 			{0x1Eu, 0x20u},
 402:.\Generated_Source\PSoC4/cyfitter_cfg.c **** 			{0x21u, 0xA1u},
 403:.\Generated_Source\PSoC4/cyfitter_cfg.c **** 			{0x22u, 0x08u},
 404:.\Generated_Source\PSoC4/cyfitter_cfg.c **** 			{0x25u, 0x40u},
 405:.\Generated_Source\PSoC4/cyfitter_cfg.c **** 			{0x26u, 0x04u},
 406:.\Generated_Source\PSoC4/cyfitter_cfg.c **** 			{0x27u, 0x08u},
 407:.\Generated_Source\PSoC4/cyfitter_cfg.c **** 			{0x28u, 0x84u},
 408:.\Generated_Source\PSoC4/cyfitter_cfg.c **** 			{0x29u, 0x04u},
 409:.\Generated_Source\PSoC4/cyfitter_cfg.c **** 			{0x2Cu, 0x20u},
 410:.\Generated_Source\PSoC4/cyfitter_cfg.c **** 			{0x2Eu, 0x08u},
 411:.\Generated_Source\PSoC4/cyfitter_cfg.c **** 			{0x2Fu, 0x04u},
 412:.\Generated_Source\PSoC4/cyfitter_cfg.c **** 			{0x31u, 0x40u},
 413:.\Generated_Source\PSoC4/cyfitter_cfg.c **** 			{0x32u, 0x20u},
 414:.\Generated_Source\PSoC4/cyfitter_cfg.c **** 			{0x33u, 0x84u},
 415:.\Generated_Source\PSoC4/cyfitter_cfg.c **** 			{0x36u, 0x06u},
 416:.\Generated_Source\PSoC4/cyfitter_cfg.c **** 			{0x37u, 0x21u},
 417:.\Generated_Source\PSoC4/cyfitter_cfg.c **** 			{0x38u, 0x20u},
 418:.\Generated_Source\PSoC4/cyfitter_cfg.c **** 			{0x39u, 0x80u},
 419:.\Generated_Source\PSoC4/cyfitter_cfg.c **** 			{0x3Bu, 0x05u},
 420:.\Generated_Source\PSoC4/cyfitter_cfg.c **** 			{0x3Eu, 0x10u},
 421:.\Generated_Source\PSoC4/cyfitter_cfg.c **** 			{0x3Fu, 0x0Au},
 422:.\Generated_Source\PSoC4/cyfitter_cfg.c **** 			{0x40u, 0x01u},
 423:.\Generated_Source\PSoC4/cyfitter_cfg.c **** 			{0x43u, 0x28u},
 424:.\Generated_Source\PSoC4/cyfitter_cfg.c **** 			{0x45u, 0x14u},
 425:.\Generated_Source\PSoC4/cyfitter_cfg.c **** 			{0x47u, 0x20u},
 426:.\Generated_Source\PSoC4/cyfitter_cfg.c **** 			{0x49u, 0x44u},
 427:.\Generated_Source\PSoC4/cyfitter_cfg.c **** 			{0x4Au, 0x08u},
 428:.\Generated_Source\PSoC4/cyfitter_cfg.c **** 			{0x4Fu, 0x28u},
 429:.\Generated_Source\PSoC4/cyfitter_cfg.c **** 			{0x52u, 0x20u},
 430:.\Generated_Source\PSoC4/cyfitter_cfg.c **** 			{0x54u, 0x20u},
 431:.\Generated_Source\PSoC4/cyfitter_cfg.c **** 			{0x55u, 0x01u},
 432:.\Generated_Source\PSoC4/cyfitter_cfg.c **** 			{0x57u, 0x02u},
 433:.\Generated_Source\PSoC4/cyfitter_cfg.c **** 			{0x59u, 0x01u},
 434:.\Generated_Source\PSoC4/cyfitter_cfg.c **** 			{0x5Cu, 0x40u},
 435:.\Generated_Source\PSoC4/cyfitter_cfg.c **** 			{0x5Du, 0x20u},
 436:.\Generated_Source\PSoC4/cyfitter_cfg.c **** 			{0x5Fu, 0x0Au},
 437:.\Generated_Source\PSoC4/cyfitter_cfg.c **** 			{0x60u, 0x02u},
ARM GAS  C:\Users\LAIMON~1\AppData\Local\Temp\cclE2jtb.s 			page 15


 438:.\Generated_Source\PSoC4/cyfitter_cfg.c **** 			{0x61u, 0x20u},
 439:.\Generated_Source\PSoC4/cyfitter_cfg.c **** 			{0x62u, 0x01u},
 440:.\Generated_Source\PSoC4/cyfitter_cfg.c **** 			{0x66u, 0x02u},
 441:.\Generated_Source\PSoC4/cyfitter_cfg.c **** 			{0x78u, 0x02u},
 442:.\Generated_Source\PSoC4/cyfitter_cfg.c **** 			{0x79u, 0x02u},
 443:.\Generated_Source\PSoC4/cyfitter_cfg.c **** 			{0x8Eu, 0x01u},
 444:.\Generated_Source\PSoC4/cyfitter_cfg.c **** 			{0xC0u, 0x65u},
 445:.\Generated_Source\PSoC4/cyfitter_cfg.c **** 			{0xC2u, 0xEFu},
 446:.\Generated_Source\PSoC4/cyfitter_cfg.c **** 			{0xC4u, 0xB7u},
 447:.\Generated_Source\PSoC4/cyfitter_cfg.c **** 			{0xCAu, 0x67u},
 448:.\Generated_Source\PSoC4/cyfitter_cfg.c **** 			{0xCCu, 0xEEu},
 449:.\Generated_Source\PSoC4/cyfitter_cfg.c **** 			{0xCEu, 0xEFu},
 450:.\Generated_Source\PSoC4/cyfitter_cfg.c **** 			{0xD0u, 0x6Eu},
 451:.\Generated_Source\PSoC4/cyfitter_cfg.c **** 			{0xD2u, 0x2Cu},
 452:.\Generated_Source\PSoC4/cyfitter_cfg.c **** 			{0xD6u, 0xF1u},
 453:.\Generated_Source\PSoC4/cyfitter_cfg.c **** 			{0xD8u, 0x8Du},
 454:.\Generated_Source\PSoC4/cyfitter_cfg.c **** 			{0xE6u, 0x40u},
 455:.\Generated_Source\PSoC4/cyfitter_cfg.c **** 			{0x00u, 0x3Du},
 456:.\Generated_Source\PSoC4/cyfitter_cfg.c **** 			{0x02u, 0xC0u},
 457:.\Generated_Source\PSoC4/cyfitter_cfg.c **** 			{0x03u, 0x08u},
 458:.\Generated_Source\PSoC4/cyfitter_cfg.c **** 			{0x04u, 0x0Du},
 459:.\Generated_Source\PSoC4/cyfitter_cfg.c **** 			{0x06u, 0xF0u},
 460:.\Generated_Source\PSoC4/cyfitter_cfg.c **** 			{0x07u, 0xA3u},
 461:.\Generated_Source\PSoC4/cyfitter_cfg.c **** 			{0x08u, 0xCDu},
 462:.\Generated_Source\PSoC4/cyfitter_cfg.c **** 			{0x09u, 0xE1u},
 463:.\Generated_Source\PSoC4/cyfitter_cfg.c **** 			{0x0Au, 0x30u},
 464:.\Generated_Source\PSoC4/cyfitter_cfg.c **** 			{0x0Bu, 0x16u},
 465:.\Generated_Source\PSoC4/cyfitter_cfg.c **** 			{0x0Cu, 0x55u},
 466:.\Generated_Source\PSoC4/cyfitter_cfg.c **** 			{0x0Eu, 0xA8u},
 467:.\Generated_Source\PSoC4/cyfitter_cfg.c **** 			{0x11u, 0x5Cu},
 468:.\Generated_Source\PSoC4/cyfitter_cfg.c **** 			{0x12u, 0x01u},
 469:.\Generated_Source\PSoC4/cyfitter_cfg.c **** 			{0x13u, 0x83u},
 470:.\Generated_Source\PSoC4/cyfitter_cfg.c **** 			{0x15u, 0xE1u},
 471:.\Generated_Source\PSoC4/cyfitter_cfg.c **** 			{0x16u, 0x02u},
 472:.\Generated_Source\PSoC4/cyfitter_cfg.c **** 			{0x17u, 0x0Eu},
 473:.\Generated_Source\PSoC4/cyfitter_cfg.c **** 			{0x18u, 0xA8u},
 474:.\Generated_Source\PSoC4/cyfitter_cfg.c **** 			{0x1Au, 0x54u},
 475:.\Generated_Source\PSoC4/cyfitter_cfg.c **** 			{0x1Cu, 0xC0u},
 476:.\Generated_Source\PSoC4/cyfitter_cfg.c **** 			{0x1Eu, 0x30u},
 477:.\Generated_Source\PSoC4/cyfitter_cfg.c **** 			{0x24u, 0xCDu},
 478:.\Generated_Source\PSoC4/cyfitter_cfg.c **** 			{0x26u, 0x30u},
 479:.\Generated_Source\PSoC4/cyfitter_cfg.c **** 			{0x2Bu, 0x1Cu},
 480:.\Generated_Source\PSoC4/cyfitter_cfg.c **** 			{0x2Fu, 0x80u},
 481:.\Generated_Source\PSoC4/cyfitter_cfg.c **** 			{0x30u, 0x03u},
 482:.\Generated_Source\PSoC4/cyfitter_cfg.c **** 			{0x31u, 0x80u},
 483:.\Generated_Source\PSoC4/cyfitter_cfg.c **** 			{0x33u, 0x60u},
 484:.\Generated_Source\PSoC4/cyfitter_cfg.c **** 			{0x34u, 0xFCu},
 485:.\Generated_Source\PSoC4/cyfitter_cfg.c **** 			{0x35u, 0x1Au},
 486:.\Generated_Source\PSoC4/cyfitter_cfg.c **** 			{0x37u, 0x0Fu},
 487:.\Generated_Source\PSoC4/cyfitter_cfg.c **** 			{0x39u, 0x08u},
 488:.\Generated_Source\PSoC4/cyfitter_cfg.c **** 			{0x3Au, 0x08u},
 489:.\Generated_Source\PSoC4/cyfitter_cfg.c **** 			{0x3Bu, 0xA0u},
 490:.\Generated_Source\PSoC4/cyfitter_cfg.c **** 			{0x3Fu, 0x05u},
 491:.\Generated_Source\PSoC4/cyfitter_cfg.c **** 			{0x40u, 0x02u},
 492:.\Generated_Source\PSoC4/cyfitter_cfg.c **** 			{0x45u, 0x40u},
 493:.\Generated_Source\PSoC4/cyfitter_cfg.c **** 			{0x49u, 0xFFu},
 494:.\Generated_Source\PSoC4/cyfitter_cfg.c **** 			{0x4Au, 0x0Fu},
ARM GAS  C:\Users\LAIMON~1\AppData\Local\Temp\cclE2jtb.s 			page 16


 495:.\Generated_Source\PSoC4/cyfitter_cfg.c **** 			{0x4Bu, 0xFFu},
 496:.\Generated_Source\PSoC4/cyfitter_cfg.c **** 			{0x4Cu, 0x40u},
 497:.\Generated_Source\PSoC4/cyfitter_cfg.c **** 			{0x4Du, 0x20u},
 498:.\Generated_Source\PSoC4/cyfitter_cfg.c **** 			{0x4Eu, 0xF0u},
 499:.\Generated_Source\PSoC4/cyfitter_cfg.c **** 			{0x4Fu, 0x05u},
 500:.\Generated_Source\PSoC4/cyfitter_cfg.c **** 			{0x50u, 0x08u},
 501:.\Generated_Source\PSoC4/cyfitter_cfg.c **** 			{0x58u, 0x04u},
 502:.\Generated_Source\PSoC4/cyfitter_cfg.c **** 			{0x59u, 0x04u},
 503:.\Generated_Source\PSoC4/cyfitter_cfg.c **** 			{0x5Au, 0x04u},
 504:.\Generated_Source\PSoC4/cyfitter_cfg.c **** 			{0x5Cu, 0x11u},
 505:.\Generated_Source\PSoC4/cyfitter_cfg.c **** 			{0x5Du, 0x01u},
 506:.\Generated_Source\PSoC4/cyfitter_cfg.c **** 			{0x5Fu, 0x01u},
 507:.\Generated_Source\PSoC4/cyfitter_cfg.c **** 			{0x60u, 0x40u},
 508:.\Generated_Source\PSoC4/cyfitter_cfg.c **** 			{0x61u, 0xA8u},
 509:.\Generated_Source\PSoC4/cyfitter_cfg.c **** 			{0x62u, 0x40u},
 510:.\Generated_Source\PSoC4/cyfitter_cfg.c **** 			{0x63u, 0x20u},
 511:.\Generated_Source\PSoC4/cyfitter_cfg.c **** 			{0x82u, 0xF3u},
 512:.\Generated_Source\PSoC4/cyfitter_cfg.c **** 			{0x84u, 0x1Cu},
 513:.\Generated_Source\PSoC4/cyfitter_cfg.c **** 			{0x85u, 0x10u},
 514:.\Generated_Source\PSoC4/cyfitter_cfg.c **** 			{0x86u, 0xE3u},
 515:.\Generated_Source\PSoC4/cyfitter_cfg.c **** 			{0x88u, 0x0Fu},
 516:.\Generated_Source\PSoC4/cyfitter_cfg.c **** 			{0x89u, 0x08u},
 517:.\Generated_Source\PSoC4/cyfitter_cfg.c **** 			{0x8Au, 0xF0u},
 518:.\Generated_Source\PSoC4/cyfitter_cfg.c **** 			{0x8Cu, 0x41u},
 519:.\Generated_Source\PSoC4/cyfitter_cfg.c **** 			{0x8Du, 0x40u},
 520:.\Generated_Source\PSoC4/cyfitter_cfg.c **** 			{0x90u, 0xC3u},
 521:.\Generated_Source\PSoC4/cyfitter_cfg.c **** 			{0x91u, 0x40u},
 522:.\Generated_Source\PSoC4/cyfitter_cfg.c **** 			{0x93u, 0x18u},
 523:.\Generated_Source\PSoC4/cyfitter_cfg.c **** 			{0x95u, 0xA7u},
 524:.\Generated_Source\PSoC4/cyfitter_cfg.c **** 			{0x96u, 0x0Cu},
 525:.\Generated_Source\PSoC4/cyfitter_cfg.c **** 			{0x97u, 0x18u},
 526:.\Generated_Source\PSoC4/cyfitter_cfg.c **** 			{0x98u, 0x82u},
 527:.\Generated_Source\PSoC4/cyfitter_cfg.c **** 			{0x99u, 0x3Cu},
 528:.\Generated_Source\PSoC4/cyfitter_cfg.c **** 			{0x9Bu, 0x82u},
 529:.\Generated_Source\PSoC4/cyfitter_cfg.c **** 			{0x9Fu, 0x04u},
 530:.\Generated_Source\PSoC4/cyfitter_cfg.c **** 			{0xA0u, 0xF3u},
 531:.\Generated_Source\PSoC4/cyfitter_cfg.c **** 			{0xA2u, 0x0Cu},
 532:.\Generated_Source\PSoC4/cyfitter_cfg.c **** 			{0xA3u, 0x03u},
 533:.\Generated_Source\PSoC4/cyfitter_cfg.c **** 			{0xA4u, 0x08u},
 534:.\Generated_Source\PSoC4/cyfitter_cfg.c **** 			{0xA5u, 0x3Cu},
 535:.\Generated_Source\PSoC4/cyfitter_cfg.c **** 			{0xA7u, 0x81u},
 536:.\Generated_Source\PSoC4/cyfitter_cfg.c **** 			{0xA8u, 0x04u},
 537:.\Generated_Source\PSoC4/cyfitter_cfg.c **** 			{0xA9u, 0xBFu},
 538:.\Generated_Source\PSoC4/cyfitter_cfg.c **** 			{0xACu, 0xFFu},
 539:.\Generated_Source\PSoC4/cyfitter_cfg.c **** 			{0xADu, 0x04u},
 540:.\Generated_Source\PSoC4/cyfitter_cfg.c **** 			{0xB0u, 0xC0u},
 541:.\Generated_Source\PSoC4/cyfitter_cfg.c **** 			{0xB1u, 0x20u},
 542:.\Generated_Source\PSoC4/cyfitter_cfg.c **** 			{0xB2u, 0x2Cu},
 543:.\Generated_Source\PSoC4/cyfitter_cfg.c **** 			{0xB3u, 0x60u},
 544:.\Generated_Source\PSoC4/cyfitter_cfg.c **** 			{0xB4u, 0x0Fu},
 545:.\Generated_Source\PSoC4/cyfitter_cfg.c **** 			{0xB5u, 0x1Fu},
 546:.\Generated_Source\PSoC4/cyfitter_cfg.c **** 			{0xB6u, 0x1Cu},
 547:.\Generated_Source\PSoC4/cyfitter_cfg.c **** 			{0xB7u, 0x80u},
 548:.\Generated_Source\PSoC4/cyfitter_cfg.c **** 			{0xB9u, 0x88u},
 549:.\Generated_Source\PSoC4/cyfitter_cfg.c **** 			{0xBAu, 0x28u},
 550:.\Generated_Source\PSoC4/cyfitter_cfg.c **** 			{0xBBu, 0x20u},
 551:.\Generated_Source\PSoC4/cyfitter_cfg.c **** 			{0xBFu, 0x01u},
ARM GAS  C:\Users\LAIMON~1\AppData\Local\Temp\cclE2jtb.s 			page 17


 552:.\Generated_Source\PSoC4/cyfitter_cfg.c **** 			{0xD6u, 0x02u},
 553:.\Generated_Source\PSoC4/cyfitter_cfg.c **** 			{0xD7u, 0x13u},
 554:.\Generated_Source\PSoC4/cyfitter_cfg.c **** 			{0xD8u, 0x04u},
 555:.\Generated_Source\PSoC4/cyfitter_cfg.c **** 			{0xD9u, 0x04u},
 556:.\Generated_Source\PSoC4/cyfitter_cfg.c **** 			{0xDBu, 0x04u},
 557:.\Generated_Source\PSoC4/cyfitter_cfg.c **** 			{0xDCu, 0x11u},
 558:.\Generated_Source\PSoC4/cyfitter_cfg.c **** 			{0xDDu, 0x10u},
 559:.\Generated_Source\PSoC4/cyfitter_cfg.c **** 			{0xDFu, 0x01u},
 560:.\Generated_Source\PSoC4/cyfitter_cfg.c **** 			{0x01u, 0x82u},
 561:.\Generated_Source\PSoC4/cyfitter_cfg.c **** 			{0x02u, 0x64u},
 562:.\Generated_Source\PSoC4/cyfitter_cfg.c **** 			{0x05u, 0x80u},
 563:.\Generated_Source\PSoC4/cyfitter_cfg.c **** 			{0x07u, 0x64u},
 564:.\Generated_Source\PSoC4/cyfitter_cfg.c **** 			{0x09u, 0x28u},
 565:.\Generated_Source\PSoC4/cyfitter_cfg.c **** 			{0x0Au, 0x40u},
 566:.\Generated_Source\PSoC4/cyfitter_cfg.c **** 			{0x0Du, 0x60u},
 567:.\Generated_Source\PSoC4/cyfitter_cfg.c **** 			{0x0Eu, 0x60u},
 568:.\Generated_Source\PSoC4/cyfitter_cfg.c **** 			{0x12u, 0x80u},
 569:.\Generated_Source\PSoC4/cyfitter_cfg.c **** 			{0x13u, 0x54u},
 570:.\Generated_Source\PSoC4/cyfitter_cfg.c **** 			{0x15u, 0x08u},
 571:.\Generated_Source\PSoC4/cyfitter_cfg.c **** 			{0x19u, 0x05u},
 572:.\Generated_Source\PSoC4/cyfitter_cfg.c **** 			{0x1Au, 0x08u},
 573:.\Generated_Source\PSoC4/cyfitter_cfg.c **** 			{0x1Bu, 0xA0u},
 574:.\Generated_Source\PSoC4/cyfitter_cfg.c **** 			{0x1Cu, 0x08u},
 575:.\Generated_Source\PSoC4/cyfitter_cfg.c **** 			{0x1Du, 0x20u},
 576:.\Generated_Source\PSoC4/cyfitter_cfg.c **** 			{0x1Eu, 0x40u},
 577:.\Generated_Source\PSoC4/cyfitter_cfg.c **** 			{0x1Fu, 0x09u},
 578:.\Generated_Source\PSoC4/cyfitter_cfg.c **** 			{0x21u, 0x08u},
 579:.\Generated_Source\PSoC4/cyfitter_cfg.c **** 			{0x22u, 0x31u},
 580:.\Generated_Source\PSoC4/cyfitter_cfg.c **** 			{0x23u, 0x21u},
 581:.\Generated_Source\PSoC4/cyfitter_cfg.c **** 			{0x24u, 0x40u},
 582:.\Generated_Source\PSoC4/cyfitter_cfg.c **** 			{0x25u, 0x10u},
 583:.\Generated_Source\PSoC4/cyfitter_cfg.c **** 			{0x27u, 0x19u},
 584:.\Generated_Source\PSoC4/cyfitter_cfg.c **** 			{0x29u, 0x86u},
 585:.\Generated_Source\PSoC4/cyfitter_cfg.c **** 			{0x2Au, 0x04u},
 586:.\Generated_Source\PSoC4/cyfitter_cfg.c **** 			{0x2Bu, 0x08u},
 587:.\Generated_Source\PSoC4/cyfitter_cfg.c **** 			{0x2Eu, 0x10u},
 588:.\Generated_Source\PSoC4/cyfitter_cfg.c **** 			{0x2Fu, 0x02u},
 589:.\Generated_Source\PSoC4/cyfitter_cfg.c **** 			{0x31u, 0x80u},
 590:.\Generated_Source\PSoC4/cyfitter_cfg.c **** 			{0x32u, 0x16u},
 591:.\Generated_Source\PSoC4/cyfitter_cfg.c **** 			{0x37u, 0x09u},
 592:.\Generated_Source\PSoC4/cyfitter_cfg.c **** 			{0x3Au, 0x80u},
 593:.\Generated_Source\PSoC4/cyfitter_cfg.c **** 			{0x3Bu, 0x14u},
 594:.\Generated_Source\PSoC4/cyfitter_cfg.c **** 			{0x3Fu, 0x2Au},
 595:.\Generated_Source\PSoC4/cyfitter_cfg.c **** 			{0x47u, 0x10u},
 596:.\Generated_Source\PSoC4/cyfitter_cfg.c **** 			{0x4Fu, 0x02u},
 597:.\Generated_Source\PSoC4/cyfitter_cfg.c **** 			{0x55u, 0x04u},
 598:.\Generated_Source\PSoC4/cyfitter_cfg.c **** 			{0x57u, 0x04u},
 599:.\Generated_Source\PSoC4/cyfitter_cfg.c **** 			{0x5Au, 0x02u},
 600:.\Generated_Source\PSoC4/cyfitter_cfg.c **** 			{0x69u, 0x89u},
 601:.\Generated_Source\PSoC4/cyfitter_cfg.c **** 			{0x6Au, 0x04u},
 602:.\Generated_Source\PSoC4/cyfitter_cfg.c **** 			{0x6Bu, 0x44u},
 603:.\Generated_Source\PSoC4/cyfitter_cfg.c **** 			{0x72u, 0x80u},
 604:.\Generated_Source\PSoC4/cyfitter_cfg.c **** 			{0x73u, 0x14u},
 605:.\Generated_Source\PSoC4/cyfitter_cfg.c **** 			{0x8Au, 0x80u},
 606:.\Generated_Source\PSoC4/cyfitter_cfg.c **** 			{0x8Bu, 0x68u},
 607:.\Generated_Source\PSoC4/cyfitter_cfg.c **** 			{0x8Du, 0x08u},
 608:.\Generated_Source\PSoC4/cyfitter_cfg.c **** 			{0x8Eu, 0x02u},
ARM GAS  C:\Users\LAIMON~1\AppData\Local\Temp\cclE2jtb.s 			page 18


 609:.\Generated_Source\PSoC4/cyfitter_cfg.c **** 			{0x92u, 0x10u},
 610:.\Generated_Source\PSoC4/cyfitter_cfg.c **** 			{0x94u, 0x40u},
 611:.\Generated_Source\PSoC4/cyfitter_cfg.c **** 			{0x95u, 0x81u},
 612:.\Generated_Source\PSoC4/cyfitter_cfg.c **** 			{0x96u, 0x04u},
 613:.\Generated_Source\PSoC4/cyfitter_cfg.c **** 			{0x97u, 0x03u},
 614:.\Generated_Source\PSoC4/cyfitter_cfg.c **** 			{0x99u, 0x80u},
 615:.\Generated_Source\PSoC4/cyfitter_cfg.c **** 			{0x9Au, 0x40u},
 616:.\Generated_Source\PSoC4/cyfitter_cfg.c **** 			{0x9Du, 0x01u},
 617:.\Generated_Source\PSoC4/cyfitter_cfg.c **** 			{0x9Fu, 0x05u},
 618:.\Generated_Source\PSoC4/cyfitter_cfg.c **** 			{0xA1u, 0x80u},
 619:.\Generated_Source\PSoC4/cyfitter_cfg.c **** 			{0xA2u, 0x10u},
 620:.\Generated_Source\PSoC4/cyfitter_cfg.c **** 			{0xA3u, 0x12u},
 621:.\Generated_Source\PSoC4/cyfitter_cfg.c **** 			{0xA4u, 0x04u},
 622:.\Generated_Source\PSoC4/cyfitter_cfg.c **** 			{0xA5u, 0x1Cu},
 623:.\Generated_Source\PSoC4/cyfitter_cfg.c **** 			{0xA7u, 0xA9u},
 624:.\Generated_Source\PSoC4/cyfitter_cfg.c **** 			{0xA8u, 0x10u},
 625:.\Generated_Source\PSoC4/cyfitter_cfg.c **** 			{0xA9u, 0xA1u},
 626:.\Generated_Source\PSoC4/cyfitter_cfg.c **** 			{0xAAu, 0x02u},
 627:.\Generated_Source\PSoC4/cyfitter_cfg.c **** 			{0xAEu, 0x08u},
 628:.\Generated_Source\PSoC4/cyfitter_cfg.c **** 			{0xAFu, 0x02u},
 629:.\Generated_Source\PSoC4/cyfitter_cfg.c **** 			{0xB1u, 0x40u},
 630:.\Generated_Source\PSoC4/cyfitter_cfg.c **** 			{0xB2u, 0x48u},
 631:.\Generated_Source\PSoC4/cyfitter_cfg.c **** 			{0xC0u, 0xFFu},
 632:.\Generated_Source\PSoC4/cyfitter_cfg.c **** 			{0xC2u, 0xFEu},
 633:.\Generated_Source\PSoC4/cyfitter_cfg.c **** 			{0xC4u, 0x2Fu},
 634:.\Generated_Source\PSoC4/cyfitter_cfg.c **** 			{0xCAu, 0x3Fu},
 635:.\Generated_Source\PSoC4/cyfitter_cfg.c **** 			{0xCCu, 0xCFu},
 636:.\Generated_Source\PSoC4/cyfitter_cfg.c **** 			{0xCEu, 0xEEu},
 637:.\Generated_Source\PSoC4/cyfitter_cfg.c **** 			{0xD0u, 0x20u},
 638:.\Generated_Source\PSoC4/cyfitter_cfg.c **** 			{0xD6u, 0x01u},
 639:.\Generated_Source\PSoC4/cyfitter_cfg.c **** 			{0xEEu, 0x20u},
 640:.\Generated_Source\PSoC4/cyfitter_cfg.c **** 			{0x0Au, 0x40u},
 641:.\Generated_Source\PSoC4/cyfitter_cfg.c **** 			{0x2Fu, 0x80u},
 642:.\Generated_Source\PSoC4/cyfitter_cfg.c **** 			{0x66u, 0x80u},
 643:.\Generated_Source\PSoC4/cyfitter_cfg.c **** 			{0x6Fu, 0x90u},
 644:.\Generated_Source\PSoC4/cyfitter_cfg.c **** 			{0x71u, 0x10u},
 645:.\Generated_Source\PSoC4/cyfitter_cfg.c **** 			{0x8Fu, 0x10u},
 646:.\Generated_Source\PSoC4/cyfitter_cfg.c **** 			{0xC2u, 0x10u},
 647:.\Generated_Source\PSoC4/cyfitter_cfg.c **** 			{0xCAu, 0x80u},
 648:.\Generated_Source\PSoC4/cyfitter_cfg.c **** 			{0xD6u, 0x80u},
 649:.\Generated_Source\PSoC4/cyfitter_cfg.c **** 			{0xDAu, 0x80u},
 650:.\Generated_Source\PSoC4/cyfitter_cfg.c **** 			{0xDCu, 0x60u},
 651:.\Generated_Source\PSoC4/cyfitter_cfg.c **** 			{0xA9u, 0x10u},
 652:.\Generated_Source\PSoC4/cyfitter_cfg.c **** 			{0xAAu, 0x40u},
 653:.\Generated_Source\PSoC4/cyfitter_cfg.c **** 			{0xB2u, 0x80u},
 654:.\Generated_Source\PSoC4/cyfitter_cfg.c **** 			{0xE8u, 0x20u},
 655:.\Generated_Source\PSoC4/cyfitter_cfg.c **** 			{0xEEu, 0x20u},
 656:.\Generated_Source\PSoC4/cyfitter_cfg.c **** 			{0x10u, 0x0Au},
 657:.\Generated_Source\PSoC4/cyfitter_cfg.c **** 			{0x11u, 0x01u},
 658:.\Generated_Source\PSoC4/cyfitter_cfg.c **** 		};
 659:.\Generated_Source\PSoC4/cyfitter_cfg.c **** 
 660:.\Generated_Source\PSoC4/cyfitter_cfg.c **** 
 661:.\Generated_Source\PSoC4/cyfitter_cfg.c **** 
 662:.\Generated_Source\PSoC4/cyfitter_cfg.c **** 		CYPACKED typedef struct {
 663:.\Generated_Source\PSoC4/cyfitter_cfg.c **** 			void CYFAR *address;
 664:.\Generated_Source\PSoC4/cyfitter_cfg.c **** 			uint16 size;
 665:.\Generated_Source\PSoC4/cyfitter_cfg.c **** 		} CYPACKED_ATTR cfg_memset_t;
ARM GAS  C:\Users\LAIMON~1\AppData\Local\Temp\cclE2jtb.s 			page 19


 666:.\Generated_Source\PSoC4/cyfitter_cfg.c **** 
 667:.\Generated_Source\PSoC4/cyfitter_cfg.c **** 
 668:.\Generated_Source\PSoC4/cyfitter_cfg.c **** 		CYPACKED typedef struct {
 669:.\Generated_Source\PSoC4/cyfitter_cfg.c **** 			void CYFAR *dest;
 670:.\Generated_Source\PSoC4/cyfitter_cfg.c **** 			const void CYCODE *src;
 671:.\Generated_Source\PSoC4/cyfitter_cfg.c **** 			uint16 size;
 672:.\Generated_Source\PSoC4/cyfitter_cfg.c **** 		} CYPACKED_ATTR cfg_memcpy_t;
 673:.\Generated_Source\PSoC4/cyfitter_cfg.c **** 
 674:.\Generated_Source\PSoC4/cyfitter_cfg.c **** 		static const cfg_memset_t CYCODE cfg_memset_list [] = {
 675:.\Generated_Source\PSoC4/cyfitter_cfg.c **** 			/* address, size */
 676:.\Generated_Source\PSoC4/cyfitter_cfg.c **** 			{(void CYFAR *)(CYDEV_UDB_P0_U1_BASE), 896u},
 677:.\Generated_Source\PSoC4/cyfitter_cfg.c **** 			{(void CYFAR *)(CYDEV_UDB_DSI0_BASE), 1024u},
 678:.\Generated_Source\PSoC4/cyfitter_cfg.c **** 		};
 679:.\Generated_Source\PSoC4/cyfitter_cfg.c **** 
 680:.\Generated_Source\PSoC4/cyfitter_cfg.c **** 		/* UDB_0_1_0_CONFIG Address: CYDEV_UDB_P0_U0_BASE Size (bytes): 128 */
 681:.\Generated_Source\PSoC4/cyfitter_cfg.c **** 		static const uint8 CYCODE BS_UDB_0_1_0_CONFIG_VAL[] = {
 682:.\Generated_Source\PSoC4/cyfitter_cfg.c **** 			0x00u, 0x00u, 0x00u, 0x02u, 0x00u, 0x04u, 0x80u, 0x08u, 0x00u, 0x00u, 0x00u, 0x10u, 0x00u, 0x04u
 683:.\Generated_Source\PSoC4/cyfitter_cfg.c **** 			0x03u, 0x00u, 0x04u, 0x00u, 0x00u, 0x04u, 0x08u, 0x08u, 0x13u, 0x00u, 0x0Cu, 0x02u, 0x00u, 0x00u
 684:.\Generated_Source\PSoC4/cyfitter_cfg.c **** 			0x00u, 0x0Cu, 0x00u, 0x00u, 0x20u, 0x00u, 0x05u, 0x01u, 0x13u, 0x04u, 0x04u, 0x08u, 0x0Au, 0x00u
 685:.\Generated_Source\PSoC4/cyfitter_cfg.c **** 			0x00u, 0x01u, 0x30u, 0x0Cu, 0x0Fu, 0x02u, 0xC0u, 0x10u, 0x08u, 0x00u, 0x20u, 0x00u, 0x00u, 0x00u
 686:.\Generated_Source\PSoC4/cyfitter_cfg.c **** 			0x26u, 0x03u, 0x05u, 0x00u, 0x01u, 0x0Cu, 0xE0u, 0x00u, 0x09u, 0xFFu, 0xFFu, 0xFFu, 0x62u, 0xA0u
 687:.\Generated_Source\PSoC4/cyfitter_cfg.c **** 			0x0Cu, 0x00u, 0x00u, 0x00u, 0x18u, 0x00u, 0x04u, 0x00u, 0x04u, 0x04u, 0x04u, 0x04u, 0x11u, 0x11u
 688:.\Generated_Source\PSoC4/cyfitter_cfg.c **** 			0x00u, 0x00u, 0x00u, 0x00u, 0x00u, 0x00u, 0x40u, 0x02u, 0x00u, 0x10u, 0x30u, 0x10u, 0x00u, 0x10u
 689:.\Generated_Source\PSoC4/cyfitter_cfg.c **** 			0x00u, 0x00u, 0x00u, 0x00u, 0x00u, 0x00u, 0x00u, 0x00u, 0x00u, 0x00u, 0x00u, 0x00u, 0x00u, 0x00u
 690:.\Generated_Source\PSoC4/cyfitter_cfg.c **** 
 691:.\Generated_Source\PSoC4/cyfitter_cfg.c **** 		static const cfg_memcpy_t CYCODE cfg_memcpy_list [] = {
 692:.\Generated_Source\PSoC4/cyfitter_cfg.c **** 			/* dest, src, size */
 693:.\Generated_Source\PSoC4/cyfitter_cfg.c **** 			{(void CYFAR *)(CYDEV_UDB_P0_U0_BASE), BS_UDB_0_1_0_CONFIG_VAL, 128u},
 694:.\Generated_Source\PSoC4/cyfitter_cfg.c **** 		};
 695:.\Generated_Source\PSoC4/cyfitter_cfg.c **** 
 696:.\Generated_Source\PSoC4/cyfitter_cfg.c **** 		uint8 CYDATA i;
 697:.\Generated_Source\PSoC4/cyfitter_cfg.c **** 
 698:.\Generated_Source\PSoC4/cyfitter_cfg.c **** 		/* Zero out critical memory blocks before beginning configuration */
 699:.\Generated_Source\PSoC4/cyfitter_cfg.c **** 		for (i = 0u; i < (sizeof(cfg_memset_list)/sizeof(cfg_memset_list[0])); i++)
 348              		.loc 1 699 0
 349 00a6 0024     		mov	r4, #0
 350 00a8 10E0     		b	.L20
 351              	.LVL27:
 352              	.L21:
 353              	.LBB4:
 700:.\Generated_Source\PSoC4/cyfitter_cfg.c **** 		{
 701:.\Generated_Source\PSoC4/cyfitter_cfg.c **** 			const cfg_memset_t CYCODE * CYDATA ms = &cfg_memset_list[i];
 702:.\Generated_Source\PSoC4/cyfitter_cfg.c **** 			CYMEMZERO(ms->address, (size_t)(uint32)(ms->size));
 354              		.loc 1 702 0 discriminator 3
 355 00aa 3F48     		ldr	r0, .L24+4
 356 00ac 6300     		lsl	r3, r4, #1
 357 00ae 1A19     		add	r2, r3, r4
 358 00b0 5200     		lsl	r2, r2, #1
 359 00b2 8218     		add	r2, r0, r2
 360 00b4 9188     		ldrh	r1, [r2, #4]
 361 00b6 1B19     		add	r3, r3, r4
 362 00b8 5B00     		lsl	r3, r3, #1
 363 00ba 1A5A     		ldrh	r2, [r3, r0]
 364 00bc C318     		add	r3, r0, r3
 365 00be 5888     		ldrh	r0, [r3, #2]
 366 00c0 0004     		lsl	r0, r0, #16
 367 00c2 1043     		orr	r0, r2
ARM GAS  C:\Users\LAIMON~1\AppData\Local\Temp\cclE2jtb.s 			page 20


 368 00c4 FFF7FEFF 		bl	CYMEMZERO
 369              	.LVL28:
 370              	.LBE4:
 699:.\Generated_Source\PSoC4/cyfitter_cfg.c **** 		{
 371              		.loc 1 699 0 discriminator 3
 372 00c8 0134     		add	r4, r4, #1
 373              	.LVL29:
 374 00ca E4B2     		uxtb	r4, r4
 375              	.LVL30:
 376              	.L20:
 699:.\Generated_Source\PSoC4/cyfitter_cfg.c **** 		{
 377              		.loc 1 699 0 is_stmt 0 discriminator 1
 378 00cc 012C     		cmp	r4, #1
 379 00ce ECD9     		bls	.L21
 380 00d0 0024     		mov	r4, #0
 381              	.LVL31:
 382 00d2 12E0     		b	.L22
 383              	.LVL32:
 384              	.L23:
 385              	.LBB5:
 703:.\Generated_Source\PSoC4/cyfitter_cfg.c **** 		}
 704:.\Generated_Source\PSoC4/cyfitter_cfg.c **** 
 705:.\Generated_Source\PSoC4/cyfitter_cfg.c **** 		/* Copy device configuration data into registers */
 706:.\Generated_Source\PSoC4/cyfitter_cfg.c **** 		for (i = 0u; i < (sizeof(cfg_memcpy_list)/sizeof(cfg_memcpy_list[0])); i++)
 707:.\Generated_Source\PSoC4/cyfitter_cfg.c **** 		{
 708:.\Generated_Source\PSoC4/cyfitter_cfg.c **** 			const cfg_memcpy_t CYCODE * CYDATA mc = &cfg_memcpy_list[i];
 709:.\Generated_Source\PSoC4/cyfitter_cfg.c **** 			void * CYDATA destPtr = mc->dest;
 386              		.loc 1 709 0 is_stmt 1 discriminator 3
 387 00d4 344D     		ldr	r5, .L24+4
 388 00d6 A300     		lsl	r3, r4, #2
 389 00d8 1A19     		add	r2, r3, r4
 390 00da 5200     		lsl	r2, r2, #1
 391 00dc AA18     		add	r2, r5, r2
 392 00de 9189     		ldrh	r1, [r2, #12]
 393 00e0 D089     		ldrh	r0, [r2, #14]
 394 00e2 0004     		lsl	r0, r0, #16
 395 00e4 0843     		orr	r0, r1
 396              	.LVL33:
 710:.\Generated_Source\PSoC4/cyfitter_cfg.c **** 			const void CYCODE * CYDATA srcPtr = mc->src;
 397              		.loc 1 710 0 discriminator 3
 398 00e6 131C     		mov	r3, r2
 399 00e8 128A     		ldrh	r2, [r2, #16]
 400 00ea 598A     		ldrh	r1, [r3, #18]
 401 00ec 0904     		lsl	r1, r1, #16
 402 00ee 1143     		orr	r1, r2
 403              	.LVL34:
 711:.\Generated_Source\PSoC4/cyfitter_cfg.c **** 			uint16 CYDATA numBytes = mc->size;
 712:.\Generated_Source\PSoC4/cyfitter_cfg.c **** 			CYCONFIGCPYCODE(destPtr, srcPtr, numBytes);
 404              		.loc 1 712 0 discriminator 3
 405 00f0 8022     		mov	r2, #128
 406 00f2 FFF7FEFF 		bl	CYCONFIGCPYCODE
 407              	.LVL35:
 408              	.LBE5:
 706:.\Generated_Source\PSoC4/cyfitter_cfg.c **** 		{
 409              		.loc 1 706 0 discriminator 3
 410 00f6 0134     		add	r4, r4, #1
 411              	.LVL36:
ARM GAS  C:\Users\LAIMON~1\AppData\Local\Temp\cclE2jtb.s 			page 21


 412 00f8 E4B2     		uxtb	r4, r4
 413              	.LVL37:
 414              	.L22:
 706:.\Generated_Source\PSoC4/cyfitter_cfg.c **** 		{
 415              		.loc 1 706 0 is_stmt 0 discriminator 1
 416 00fa 002C     		cmp	r4, #0
 417 00fc EAD0     		beq	.L23
 713:.\Generated_Source\PSoC4/cyfitter_cfg.c **** 		}
 714:.\Generated_Source\PSoC4/cyfitter_cfg.c **** 
 715:.\Generated_Source\PSoC4/cyfitter_cfg.c **** 		cfg_write_bytes32(cy_cfg_addr_table, cy_cfg_data_table);
 418              		.loc 1 715 0 is_stmt 1
 419 00fe 2A49     		ldr	r1, .L24+4
 420 0100 081C     		mov	r0, r1
 421 0102 1830     		add	r0, r0, #24
 422 0104 3831     		add	r1, r1, #56
 423 0106 FFF7FEFF 		bl	cfg_write_bytes32
 424              	.LVL38:
 716:.\Generated_Source\PSoC4/cyfitter_cfg.c **** 
 717:.\Generated_Source\PSoC4/cyfitter_cfg.c **** 		/* Perform normal device configuration. Order is not critical for these items. */
 718:.\Generated_Source\PSoC4/cyfitter_cfg.c **** 		CY_SET_XTND_REG16((void CYFAR *)(CYREG_UDB_BCTL0_DRV), 0x0A00u);
 425              		.loc 1 718 0
 426 010a A022     		mov	r2, #160
 427 010c 1201     		lsl	r2, r2, #4
 428 010e 274B     		ldr	r3, .L24+8
 429 0110 1A80     		strh	r2, [r3]
 719:.\Generated_Source\PSoC4/cyfitter_cfg.c **** 		CY_SET_XTND_REG8((void CYFAR *)(CYREG_UDB_BCTL0_DRV + 0x2u), 0x01u);
 430              		.loc 1 719 0
 431 0112 0122     		mov	r2, #1
 432 0114 264B     		ldr	r3, .L24+12
 433 0116 1A70     		strb	r2, [r3]
 720:.\Generated_Source\PSoC4/cyfitter_cfg.c **** 
 721:.\Generated_Source\PSoC4/cyfitter_cfg.c **** 		/* HSIOM Starting address: CYDEV_HSIOM_BASE */
 722:.\Generated_Source\PSoC4/cyfitter_cfg.c **** 		CY_SET_XTND_REG32((void CYFAR *)(CYDEV_HSIOM_BASE), 0x00300003u);
 434              		.loc 1 722 0
 435 0118 264A     		ldr	r2, .L24+16
 436 011a 274B     		ldr	r3, .L24+20
 437 011c 1A60     		str	r2, [r3]
 723:.\Generated_Source\PSoC4/cyfitter_cfg.c **** 		CY_SET_XTND_REG32((void CYFAR *)(CYREG_HSIOM_PORT_SEL3), 0x0000EE00u);
 438              		.loc 1 723 0
 439 011e EE22     		mov	r2, #238
 440 0120 1202     		lsl	r2, r2, #8
 441 0122 264B     		ldr	r3, .L24+24
 442 0124 1A60     		str	r2, [r3]
 724:.\Generated_Source\PSoC4/cyfitter_cfg.c **** 
 725:.\Generated_Source\PSoC4/cyfitter_cfg.c **** 		/* UDB_PA_0 Starting address: CYDEV_UDB_PA0_BASE */
 726:.\Generated_Source\PSoC4/cyfitter_cfg.c **** 		CY_SET_XTND_REG32((void CYFAR *)(CYDEV_UDB_PA0_BASE), 0x00390404u);
 443              		.loc 1 726 0
 444 0126 264A     		ldr	r2, .L24+28
 445 0128 264B     		ldr	r3, .L24+32
 446 012a 1A60     		str	r2, [r3]
 727:.\Generated_Source\PSoC4/cyfitter_cfg.c **** 		CY_SET_XTND_REG32((void CYFAR *)(CYREG_UDB_PA0_CFG4), 0x02000000u);
 447              		.loc 1 727 0
 448 012c 8022     		mov	r2, #128
 449 012e 9204     		lsl	r2, r2, #18
 450 0130 254B     		ldr	r3, .L24+36
 451 0132 1A60     		str	r2, [r3]
 728:.\Generated_Source\PSoC4/cyfitter_cfg.c **** 		CY_SET_XTND_REG32((void CYFAR *)(CYREG_UDB_PA0_CFG8), 0x04000002u);
ARM GAS  C:\Users\LAIMON~1\AppData\Local\Temp\cclE2jtb.s 			page 22


 452              		.loc 1 728 0
 453 0134 254A     		ldr	r2, .L24+40
 454 0136 264B     		ldr	r3, .L24+44
 455 0138 1A60     		str	r2, [r3]
 729:.\Generated_Source\PSoC4/cyfitter_cfg.c **** 
 730:.\Generated_Source\PSoC4/cyfitter_cfg.c **** 		/* UDB_PA_1 Starting address: CYDEV_UDB_PA1_BASE */
 731:.\Generated_Source\PSoC4/cyfitter_cfg.c **** 		CY_SET_XTND_REG32((void CYFAR *)(CYDEV_UDB_PA1_BASE), 0x00990000u);
 456              		.loc 1 731 0
 457 013a 9923     		mov	r3, #153
 458 013c 1B04     		lsl	r3, r3, #16
 459 013e 254A     		ldr	r2, .L24+48
 460 0140 1360     		str	r3, [r2]
 732:.\Generated_Source\PSoC4/cyfitter_cfg.c **** 
 733:.\Generated_Source\PSoC4/cyfitter_cfg.c **** 		/* UDB_PA_2 Starting address: CYDEV_UDB_PA2_BASE */
 734:.\Generated_Source\PSoC4/cyfitter_cfg.c **** 		CY_SET_XTND_REG32((void CYFAR *)(CYDEV_UDB_PA2_BASE), 0x00990000u);
 461              		.loc 1 734 0
 462 0142 254A     		ldr	r2, .L24+52
 463 0144 1360     		str	r3, [r2]
 735:.\Generated_Source\PSoC4/cyfitter_cfg.c **** 
 736:.\Generated_Source\PSoC4/cyfitter_cfg.c **** 		/* UDB_PA_3 Starting address: CYDEV_UDB_PA3_BASE */
 737:.\Generated_Source\PSoC4/cyfitter_cfg.c **** 		CY_SET_XTND_REG32((void CYFAR *)(CYDEV_UDB_PA3_BASE), 0x00990000u);
 464              		.loc 1 737 0
 465 0146 254A     		ldr	r2, .L24+56
 466 0148 1360     		str	r3, [r2]
 738:.\Generated_Source\PSoC4/cyfitter_cfg.c **** 
 739:.\Generated_Source\PSoC4/cyfitter_cfg.c **** 		/* INT_SELECT Starting address: CYDEV_CPUSS_INTR_SELECT */
 740:.\Generated_Source\PSoC4/cyfitter_cfg.c **** 		CY_SET_XTND_REG32((void CYFAR *)(CYREG_CPUSS_INTR_SELECT), 0x0000000Fu);
 467              		.loc 1 740 0
 468 014a 0F22     		mov	r2, #15
 469 014c 244B     		ldr	r3, .L24+60
 470 014e 1A60     		str	r2, [r3]
 741:.\Generated_Source\PSoC4/cyfitter_cfg.c **** 
 742:.\Generated_Source\PSoC4/cyfitter_cfg.c **** 		/* INT_CONFIG Starting address: CYDEV_UDB_INT_CFG */
 743:.\Generated_Source\PSoC4/cyfitter_cfg.c **** 		CY_SET_XTND_REG32((void CYFAR *)(CYREG_UDB_INT_CFG), 0x00000006u);
 471              		.loc 1 743 0
 472 0150 093A     		sub	r2, r2, #9
 473 0152 244B     		ldr	r3, .L24+64
 474 0154 1A60     		str	r2, [r3]
 744:.\Generated_Source\PSoC4/cyfitter_cfg.c **** 
 745:.\Generated_Source\PSoC4/cyfitter_cfg.c **** 		/* Enable digital routing */
 746:.\Generated_Source\PSoC4/cyfitter_cfg.c **** 		CY_SET_XTND_REG8((void *)CYREG_UDB_UDBIF_BANK_CTL, CY_GET_XTND_REG8((void *)CYREG_UDB_UDBIF_BANK_
 475              		.loc 1 746 0
 476 0156 244B     		ldr	r3, .L24+68
 477 0158 1978     		ldrb	r1, [r3]
 478 015a 043A     		sub	r2, r2, #4
 479 015c 0A43     		orr	r2, r1
 480 015e 1A70     		strb	r2, [r3]
 747:.\Generated_Source\PSoC4/cyfitter_cfg.c **** 
 748:.\Generated_Source\PSoC4/cyfitter_cfg.c **** 		/* Enable UDB array */
 749:.\Generated_Source\PSoC4/cyfitter_cfg.c **** 		CY_SET_XTND_REG8((void *)CYREG_UDB_UDBIF_WAIT_CFG, (uint8)((CY_GET_XTND_REG8((void *)CYREG_UDB_UD
 481              		.loc 1 749 0
 482 0160 2248     		ldr	r0, .L24+72
 483 0162 0278     		ldrb	r2, [r0]
 484 0164 3C21     		mov	r1, #60
 485 0166 8A43     		bic	r2, r1
 486 0168 2839     		sub	r1, r1, #40
 487 016a 0A43     		orr	r2, r1
ARM GAS  C:\Users\LAIMON~1\AppData\Local\Temp\cclE2jtb.s 			page 23


 488 016c 0270     		strb	r2, [r0]
 750:.\Generated_Source\PSoC4/cyfitter_cfg.c **** 		CY_SET_XTND_REG8((void *)CYREG_UDB_UDBIF_BANK_CTL, (uint8)(CY_GET_XTND_REG8((void *)CYREG_UDB_UDB
 489              		.loc 1 750 0
 490 016e 1978     		ldrb	r1, [r3]
 491 0170 1622     		mov	r2, #22
 492 0172 0A43     		orr	r2, r1
 493 0174 1A70     		strb	r2, [r3]
 494              	.LBE3:
 751:.\Generated_Source\PSoC4/cyfitter_cfg.c **** 	}
 752:.\Generated_Source\PSoC4/cyfitter_cfg.c **** 
 753:.\Generated_Source\PSoC4/cyfitter_cfg.c **** 	/* Perform second pass device configuration. These items must be configured in specific order afte
 754:.\Generated_Source\PSoC4/cyfitter_cfg.c **** 	/* IOPINS0_0 Starting address: CYDEV_PRT0_BASE */
 755:.\Generated_Source\PSoC4/cyfitter_cfg.c **** 	CY_SET_XTND_REG32((void CYFAR *)(CYDEV_PRT0_BASE), 0x00000021u);
 495              		.loc 1 755 0
 496 0176 2122     		mov	r2, #33
 497 0178 1D4B     		ldr	r3, .L24+76
 498 017a 1A60     		str	r2, [r3]
 756:.\Generated_Source\PSoC4/cyfitter_cfg.c **** 	CY_SET_XTND_REG32((void CYFAR *)(CYREG_PRT0_PC), 0x00031036u);
 499              		.loc 1 756 0
 500 017c 1D4A     		ldr	r2, .L24+80
 501 017e 1E4B     		ldr	r3, .L24+84
 502 0180 1A60     		str	r2, [r3]
 757:.\Generated_Source\PSoC4/cyfitter_cfg.c **** 
 758:.\Generated_Source\PSoC4/cyfitter_cfg.c **** 	/* IOPINS0_1 Starting address: CYDEV_PRT1_BASE */
 759:.\Generated_Source\PSoC4/cyfitter_cfg.c **** 	CY_SET_XTND_REG32((void CYFAR *)(CYREG_PRT1_PC2), 0x00000080u);
 503              		.loc 1 759 0
 504 0182 8022     		mov	r2, #128
 505 0184 1D4B     		ldr	r3, .L24+88
 506 0186 1A60     		str	r2, [r3]
 760:.\Generated_Source\PSoC4/cyfitter_cfg.c **** 
 761:.\Generated_Source\PSoC4/cyfitter_cfg.c **** 	/* IOPINS0_2 Starting address: CYDEV_PRT2_BASE */
 762:.\Generated_Source\PSoC4/cyfitter_cfg.c **** 	CY_SET_XTND_REG32((void CYFAR *)(CYDEV_PRT2_BASE), 0x000000F9u);
 507              		.loc 1 762 0
 508 0188 F923     		mov	r3, #249
 509 018a 1D4A     		ldr	r2, .L24+92
 510 018c 1360     		str	r3, [r2]
 763:.\Generated_Source\PSoC4/cyfitter_cfg.c **** 	CY_SET_XTND_REG32((void CYFAR *)(CYREG_PRT2_PC2), 0x000000F9u);
 511              		.loc 1 763 0
 512 018e 1D4A     		ldr	r2, .L24+96
 513 0190 1360     		str	r3, [r2]
 764:.\Generated_Source\PSoC4/cyfitter_cfg.c **** 
 765:.\Generated_Source\PSoC4/cyfitter_cfg.c **** 	/* IOPINS0_3 Starting address: CYDEV_PRT3_BASE */
 766:.\Generated_Source\PSoC4/cyfitter_cfg.c **** 	CY_SET_XTND_REG32((void CYFAR *)(CYREG_PRT3_PC), 0x00000D80u);
 514              		.loc 1 766 0
 515 0192 D822     		mov	r2, #216
 516 0194 1201     		lsl	r2, r2, #4
 517 0196 1C4B     		ldr	r3, .L24+100
 518 0198 1A60     		str	r2, [r3]
 767:.\Generated_Source\PSoC4/cyfitter_cfg.c **** 
 768:.\Generated_Source\PSoC4/cyfitter_cfg.c **** 	/* Setup clocks based on selections from Clock DWR */
 769:.\Generated_Source\PSoC4/cyfitter_cfg.c **** 	ClockSetup();
 519              		.loc 1 769 0
 520 019a FFF731FF 		bl	ClockSetup
 521              	.LVL39:
 770:.\Generated_Source\PSoC4/cyfitter_cfg.c **** 
 771:.\Generated_Source\PSoC4/cyfitter_cfg.c **** 	/* Perform basic analog initialization to defaults */
 772:.\Generated_Source\PSoC4/cyfitter_cfg.c **** 	AnalogSetDefault();
ARM GAS  C:\Users\LAIMON~1\AppData\Local\Temp\cclE2jtb.s 			page 24


 522              		.loc 1 772 0
 523 019e FFF7FEFF 		bl	AnalogSetDefault
 524              	.LVL40:
 773:.\Generated_Source\PSoC4/cyfitter_cfg.c **** 
 774:.\Generated_Source\PSoC4/cyfitter_cfg.c **** }
 525              		.loc 1 774 0
 526              		@ sp needed
 527              	.LVL41:
 528 01a2 38BD     		pop	{r3, r4, r5, pc}
 529              	.L25:
 530              		.align	2
 531              	.L24:
 532 01a4 1C700F40 		.word	1074753564
 533 01a8 00000000 		.word	.LANCHOR0
 534 01ac 00600F40 		.word	1074749440
 535 01b0 02600F40 		.word	1074749442
 536 01b4 03003000 		.word	3145731
 537 01b8 00000140 		.word	1073807360
 538 01bc 0C000140 		.word	1073807372
 539 01c0 04043900 		.word	3736580
 540 01c4 00500F40 		.word	1074745344
 541 01c8 04500F40 		.word	1074745348
 542 01cc 02000004 		.word	67108866
 543 01d0 08500F40 		.word	1074745352
 544 01d4 10500F40 		.word	1074745360
 545 01d8 20500F40 		.word	1074745376
 546 01dc 30500F40 		.word	1074745392
 547 01e0 20000040 		.word	1073741856
 548 01e4 00800F40 		.word	1074757632
 549 01e8 00700F40 		.word	1074753536
 550 01ec 01700F40 		.word	1074753537
 551 01f0 00000440 		.word	1074003968
 552 01f4 36100300 		.word	200758
 553 01f8 08000440 		.word	1074003976
 554 01fc 18010440 		.word	1074004248
 555 0200 00020440 		.word	1074004480
 556 0204 18020440 		.word	1074004504
 557 0208 08030440 		.word	1074004744
 558              		.cfi_endproc
 559              	.LFE7:
 560              		.size	cyfitter_cfg, .-cyfitter_cfg
 561              		.section	.rodata
 562              		.align	2
 563              		.set	.LANCHOR0,. + 0
 564              		.type	cfg_memset_list.4748, %object
 565              		.size	cfg_memset_list.4748, 12
 566              	cfg_memset_list.4748:
 567 0000 80300F40 		.word	1074737280
 568 0004 8003     		.short	896
 569 0006 00400F40 		.4byte	1074741248
 570 000a 0004     		.short	1024
 571              		.type	cfg_memcpy_list.4750, %object
 572              		.size	cfg_memcpy_list.4750, 10
 573              	cfg_memcpy_list.4750:
 574 000c 00300F40 		.word	1074737152
 575 0010 E0020000 		.word	BS_UDB_0_1_0_CONFIG_VAL.4749
 576 0014 8000     		.short	128
ARM GAS  C:\Users\LAIMON~1\AppData\Local\Temp\cclE2jtb.s 			page 25


 577 0016 0000     		.space	2
 578              		.type	cy_cfg_addr_table.4737, %object
 579              		.size	cy_cfg_addr_table.4737, 32
 580              	cy_cfg_addr_table.4737:
 581 0018 03000F40 		.word	1074724867
 582 001c 3B300F40 		.word	1074737211
 583 0020 4A310F40 		.word	1074737482
 584 0024 69320F40 		.word	1074737769
 585 0028 50330F40 		.word	1074738000
 586 002c 0B400F40 		.word	1074741259
 587 0030 05410F40 		.word	1074741509
 588 0034 02600F40 		.word	1074749442
 589              		.type	cy_cfg_data_table.4738, %object
 590              		.size	cy_cfg_data_table.4738, 678
 591              	cy_cfg_data_table.4738:
 592 0038 80       		.byte	-128
 593 0039 38       		.byte	56
 594 003a 81       		.byte	-127
 595 003b 0F       		.byte	15
 596 003c 83       		.byte	-125
 597 003d 76       		.byte	118
 598 003e 81       		.byte	-127
 599 003f 10       		.byte	16
 600 0040 84       		.byte	-124
 601 0041 92       		.byte	-110
 602 0042 85       		.byte	-123
 603 0043 14       		.byte	20
 604 0044 86       		.byte	-122
 605 0045 25       		.byte	37
 606 0046 88       		.byte	-120
 607 0047 48       		.byte	72
 608 0048 89       		.byte	-119
 609 0049 09       		.byte	9
 610 004a 8A       		.byte	-118
 611 004b 25       		.byte	37
 612 004c 8B       		.byte	-117
 613 004d 10       		.byte	16
 614 004e 91       		.byte	-111
 615 004f 1C       		.byte	28
 616 0050 93       		.byte	-109
 617 0051 02       		.byte	2
 618 0052 94       		.byte	-108
 619 0053 03       		.byte	3
 620 0054 95       		.byte	-107
 621 0055 40       		.byte	64
 622 0056 96       		.byte	-106
 623 0057 FC       		.byte	-4
 624 0058 97       		.byte	-105
 625 0059 03       		.byte	3
 626 005a 98       		.byte	-104
 627 005b E3       		.byte	-29
 628 005c 99       		.byte	-103
 629 005d 0C       		.byte	12
 630 005e 9A       		.byte	-102
 631 005f 1C       		.byte	28
 632 0060 9B       		.byte	-101
 633 0061 11       		.byte	17
ARM GAS  C:\Users\LAIMON~1\AppData\Local\Temp\cclE2jtb.s 			page 26


 634 0062 9C       		.byte	-100
 635 0063 25       		.byte	37
 636 0064 9E       		.byte	-98
 637 0065 DA       		.byte	-38
 638 0066 A0       		.byte	-96
 639 0067 1F       		.byte	31
 640 0068 A2       		.byte	-94
 641 0069 E0       		.byte	-32
 642 006a A4       		.byte	-92
 643 006b E3       		.byte	-29
 644 006c A5       		.byte	-91
 645 006d 20       		.byte	32
 646 006e A6       		.byte	-90
 647 006f 1C       		.byte	28
 648 0070 A9       		.byte	-87
 649 0071 10       		.byte	16
 650 0072 AB       		.byte	-85
 651 0073 0C       		.byte	12
 652 0074 AC       		.byte	-84
 653 0075 E0       		.byte	-32
 654 0076 AE       		.byte	-82
 655 0077 1C       		.byte	28
 656 0078 B2       		.byte	-78
 657 0079 FF       		.byte	-1
 658 007a B3       		.byte	-77
 659 007b 1F       		.byte	31
 660 007c B5       		.byte	-75
 661 007d 20       		.byte	32
 662 007e B7       		.byte	-73
 663 007f 40       		.byte	64
 664 0080 BE       		.byte	-66
 665 0081 04       		.byte	4
 666 0082 BF       		.byte	-65
 667 0083 50       		.byte	80
 668 0084 C0       		.byte	-64
 669 0085 63       		.byte	99
 670 0086 C1       		.byte	-63
 671 0087 02       		.byte	2
 672 0088 C5       		.byte	-59
 673 0089 0B       		.byte	11
 674 008a C6       		.byte	-58
 675 008b E0       		.byte	-32
 676 008c C7       		.byte	-57
 677 008d C0       		.byte	-64
 678 008e C8       		.byte	-56
 679 008f 29       		.byte	41
 680 0090 C9       		.byte	-55
 681 0091 FF       		.byte	-1
 682 0092 CA       		.byte	-54
 683 0093 FF       		.byte	-1
 684 0094 CB       		.byte	-53
 685 0095 FF       		.byte	-1
 686 0096 CE       		.byte	-50
 687 0097 F0       		.byte	-16
 688 0098 CF       		.byte	-49
 689 0099 44       		.byte	68
 690 009a D0       		.byte	-48
ARM GAS  C:\Users\LAIMON~1\AppData\Local\Temp\cclE2jtb.s 			page 27


 691 009b 0C       		.byte	12
 692 009c D4       		.byte	-44
 693 009d 01       		.byte	1
 694 009e D6       		.byte	-42
 695 009f 04       		.byte	4
 696 00a0 D8       		.byte	-40
 697 00a1 04       		.byte	4
 698 00a2 D9       		.byte	-39
 699 00a3 04       		.byte	4
 700 00a4 DA       		.byte	-38
 701 00a5 04       		.byte	4
 702 00a6 DB       		.byte	-37
 703 00a7 04       		.byte	4
 704 00a8 DC       		.byte	-36
 705 00a9 10       		.byte	16
 706 00aa DD       		.byte	-35
 707 00ab 11       		.byte	17
 708 00ac DF       		.byte	-33
 709 00ad 01       		.byte	1
 710 00ae E6       		.byte	-26
 711 00af C0       		.byte	-64
 712 00b0 EA       		.byte	-22
 713 00b1 40       		.byte	64
 714 00b2 EB       		.byte	-21
 715 00b3 02       		.byte	2
 716 00b4 00       		.byte	0
 717 00b5 08       		.byte	8
 718 00b6 01       		.byte	1
 719 00b7 88       		.byte	-120
 720 00b8 04       		.byte	4
 721 00b9 20       		.byte	32
 722 00ba 05       		.byte	5
 723 00bb 08       		.byte	8
 724 00bc 08       		.byte	8
 725 00bd 40       		.byte	64
 726 00be 09       		.byte	9
 727 00bf 01       		.byte	1
 728 00c0 0A       		.byte	10
 729 00c1 18       		.byte	24
 730 00c2 0B       		.byte	11
 731 00c3 0A       		.byte	10
 732 00c4 0C       		.byte	12
 733 00c5 44       		.byte	68
 734 00c6 0D       		.byte	13
 735 00c7 08       		.byte	8
 736 00c8 0E       		.byte	14
 737 00c9 04       		.byte	4
 738 00ca 0F       		.byte	15
 739 00cb 04       		.byte	4
 740 00cc 11       		.byte	17
 741 00cd 28       		.byte	40
 742 00ce 12       		.byte	18
 743 00cf 02       		.byte	2
 744 00d0 14       		.byte	20
 745 00d1 80       		.byte	-128
 746 00d2 15       		.byte	21
 747 00d3 81       		.byte	-127
ARM GAS  C:\Users\LAIMON~1\AppData\Local\Temp\cclE2jtb.s 			page 28


 748 00d4 17       		.byte	23
 749 00d5 04       		.byte	4
 750 00d6 18       		.byte	24
 751 00d7 01       		.byte	1
 752 00d8 1A       		.byte	26
 753 00d9 18       		.byte	24
 754 00da 1B       		.byte	27
 755 00db 10       		.byte	16
 756 00dc 1E       		.byte	30
 757 00dd 20       		.byte	32
 758 00de 21       		.byte	33
 759 00df A1       		.byte	-95
 760 00e0 22       		.byte	34
 761 00e1 08       		.byte	8
 762 00e2 25       		.byte	37
 763 00e3 40       		.byte	64
 764 00e4 26       		.byte	38
 765 00e5 04       		.byte	4
 766 00e6 27       		.byte	39
 767 00e7 08       		.byte	8
 768 00e8 28       		.byte	40
 769 00e9 84       		.byte	-124
 770 00ea 29       		.byte	41
 771 00eb 04       		.byte	4
 772 00ec 2C       		.byte	44
 773 00ed 20       		.byte	32
 774 00ee 2E       		.byte	46
 775 00ef 08       		.byte	8
 776 00f0 2F       		.byte	47
 777 00f1 04       		.byte	4
 778 00f2 31       		.byte	49
 779 00f3 40       		.byte	64
 780 00f4 32       		.byte	50
 781 00f5 20       		.byte	32
 782 00f6 33       		.byte	51
 783 00f7 84       		.byte	-124
 784 00f8 36       		.byte	54
 785 00f9 06       		.byte	6
 786 00fa 37       		.byte	55
 787 00fb 21       		.byte	33
 788 00fc 38       		.byte	56
 789 00fd 20       		.byte	32
 790 00fe 39       		.byte	57
 791 00ff 80       		.byte	-128
 792 0100 3B       		.byte	59
 793 0101 05       		.byte	5
 794 0102 3E       		.byte	62
 795 0103 10       		.byte	16
 796 0104 3F       		.byte	63
 797 0105 0A       		.byte	10
 798 0106 40       		.byte	64
 799 0107 01       		.byte	1
 800 0108 43       		.byte	67
 801 0109 28       		.byte	40
 802 010a 45       		.byte	69
 803 010b 14       		.byte	20
 804 010c 47       		.byte	71
ARM GAS  C:\Users\LAIMON~1\AppData\Local\Temp\cclE2jtb.s 			page 29


 805 010d 20       		.byte	32
 806 010e 49       		.byte	73
 807 010f 44       		.byte	68
 808 0110 4A       		.byte	74
 809 0111 08       		.byte	8
 810 0112 4F       		.byte	79
 811 0113 28       		.byte	40
 812 0114 52       		.byte	82
 813 0115 20       		.byte	32
 814 0116 54       		.byte	84
 815 0117 20       		.byte	32
 816 0118 55       		.byte	85
 817 0119 01       		.byte	1
 818 011a 57       		.byte	87
 819 011b 02       		.byte	2
 820 011c 59       		.byte	89
 821 011d 01       		.byte	1
 822 011e 5C       		.byte	92
 823 011f 40       		.byte	64
 824 0120 5D       		.byte	93
 825 0121 20       		.byte	32
 826 0122 5F       		.byte	95
 827 0123 0A       		.byte	10
 828 0124 60       		.byte	96
 829 0125 02       		.byte	2
 830 0126 61       		.byte	97
 831 0127 20       		.byte	32
 832 0128 62       		.byte	98
 833 0129 01       		.byte	1
 834 012a 66       		.byte	102
 835 012b 02       		.byte	2
 836 012c 78       		.byte	120
 837 012d 02       		.byte	2
 838 012e 79       		.byte	121
 839 012f 02       		.byte	2
 840 0130 8E       		.byte	-114
 841 0131 01       		.byte	1
 842 0132 C0       		.byte	-64
 843 0133 65       		.byte	101
 844 0134 C2       		.byte	-62
 845 0135 EF       		.byte	-17
 846 0136 C4       		.byte	-60
 847 0137 B7       		.byte	-73
 848 0138 CA       		.byte	-54
 849 0139 67       		.byte	103
 850 013a CC       		.byte	-52
 851 013b EE       		.byte	-18
 852 013c CE       		.byte	-50
 853 013d EF       		.byte	-17
 854 013e D0       		.byte	-48
 855 013f 6E       		.byte	110
 856 0140 D2       		.byte	-46
 857 0141 2C       		.byte	44
 858 0142 D6       		.byte	-42
 859 0143 F1       		.byte	-15
 860 0144 D8       		.byte	-40
 861 0145 8D       		.byte	-115
ARM GAS  C:\Users\LAIMON~1\AppData\Local\Temp\cclE2jtb.s 			page 30


 862 0146 E6       		.byte	-26
 863 0147 40       		.byte	64
 864 0148 00       		.byte	0
 865 0149 3D       		.byte	61
 866 014a 02       		.byte	2
 867 014b C0       		.byte	-64
 868 014c 03       		.byte	3
 869 014d 08       		.byte	8
 870 014e 04       		.byte	4
 871 014f 0D       		.byte	13
 872 0150 06       		.byte	6
 873 0151 F0       		.byte	-16
 874 0152 07       		.byte	7
 875 0153 A3       		.byte	-93
 876 0154 08       		.byte	8
 877 0155 CD       		.byte	-51
 878 0156 09       		.byte	9
 879 0157 E1       		.byte	-31
 880 0158 0A       		.byte	10
 881 0159 30       		.byte	48
 882 015a 0B       		.byte	11
 883 015b 16       		.byte	22
 884 015c 0C       		.byte	12
 885 015d 55       		.byte	85
 886 015e 0E       		.byte	14
 887 015f A8       		.byte	-88
 888 0160 11       		.byte	17
 889 0161 5C       		.byte	92
 890 0162 12       		.byte	18
 891 0163 01       		.byte	1
 892 0164 13       		.byte	19
 893 0165 83       		.byte	-125
 894 0166 15       		.byte	21
 895 0167 E1       		.byte	-31
 896 0168 16       		.byte	22
 897 0169 02       		.byte	2
 898 016a 17       		.byte	23
 899 016b 0E       		.byte	14
 900 016c 18       		.byte	24
 901 016d A8       		.byte	-88
 902 016e 1A       		.byte	26
 903 016f 54       		.byte	84
 904 0170 1C       		.byte	28
 905 0171 C0       		.byte	-64
 906 0172 1E       		.byte	30
 907 0173 30       		.byte	48
 908 0174 24       		.byte	36
 909 0175 CD       		.byte	-51
 910 0176 26       		.byte	38
 911 0177 30       		.byte	48
 912 0178 2B       		.byte	43
 913 0179 1C       		.byte	28
 914 017a 2F       		.byte	47
 915 017b 80       		.byte	-128
 916 017c 30       		.byte	48
 917 017d 03       		.byte	3
 918 017e 31       		.byte	49
ARM GAS  C:\Users\LAIMON~1\AppData\Local\Temp\cclE2jtb.s 			page 31


 919 017f 80       		.byte	-128
 920 0180 33       		.byte	51
 921 0181 60       		.byte	96
 922 0182 34       		.byte	52
 923 0183 FC       		.byte	-4
 924 0184 35       		.byte	53
 925 0185 1A       		.byte	26
 926 0186 37       		.byte	55
 927 0187 0F       		.byte	15
 928 0188 39       		.byte	57
 929 0189 08       		.byte	8
 930 018a 3A       		.byte	58
 931 018b 08       		.byte	8
 932 018c 3B       		.byte	59
 933 018d A0       		.byte	-96
 934 018e 3F       		.byte	63
 935 018f 05       		.byte	5
 936 0190 40       		.byte	64
 937 0191 02       		.byte	2
 938 0192 45       		.byte	69
 939 0193 40       		.byte	64
 940 0194 49       		.byte	73
 941 0195 FF       		.byte	-1
 942 0196 4A       		.byte	74
 943 0197 0F       		.byte	15
 944 0198 4B       		.byte	75
 945 0199 FF       		.byte	-1
 946 019a 4C       		.byte	76
 947 019b 40       		.byte	64
 948 019c 4D       		.byte	77
 949 019d 20       		.byte	32
 950 019e 4E       		.byte	78
 951 019f F0       		.byte	-16
 952 01a0 4F       		.byte	79
 953 01a1 05       		.byte	5
 954 01a2 50       		.byte	80
 955 01a3 08       		.byte	8
 956 01a4 58       		.byte	88
 957 01a5 04       		.byte	4
 958 01a6 59       		.byte	89
 959 01a7 04       		.byte	4
 960 01a8 5A       		.byte	90
 961 01a9 04       		.byte	4
 962 01aa 5C       		.byte	92
 963 01ab 11       		.byte	17
 964 01ac 5D       		.byte	93
 965 01ad 01       		.byte	1
 966 01ae 5F       		.byte	95
 967 01af 01       		.byte	1
 968 01b0 60       		.byte	96
 969 01b1 40       		.byte	64
 970 01b2 61       		.byte	97
 971 01b3 A8       		.byte	-88
 972 01b4 62       		.byte	98
 973 01b5 40       		.byte	64
 974 01b6 63       		.byte	99
 975 01b7 20       		.byte	32
ARM GAS  C:\Users\LAIMON~1\AppData\Local\Temp\cclE2jtb.s 			page 32


 976 01b8 82       		.byte	-126
 977 01b9 F3       		.byte	-13
 978 01ba 84       		.byte	-124
 979 01bb 1C       		.byte	28
 980 01bc 85       		.byte	-123
 981 01bd 10       		.byte	16
 982 01be 86       		.byte	-122
 983 01bf E3       		.byte	-29
 984 01c0 88       		.byte	-120
 985 01c1 0F       		.byte	15
 986 01c2 89       		.byte	-119
 987 01c3 08       		.byte	8
 988 01c4 8A       		.byte	-118
 989 01c5 F0       		.byte	-16
 990 01c6 8C       		.byte	-116
 991 01c7 41       		.byte	65
 992 01c8 8D       		.byte	-115
 993 01c9 40       		.byte	64
 994 01ca 90       		.byte	-112
 995 01cb C3       		.byte	-61
 996 01cc 91       		.byte	-111
 997 01cd 40       		.byte	64
 998 01ce 93       		.byte	-109
 999 01cf 18       		.byte	24
 1000 01d0 95       		.byte	-107
 1001 01d1 A7       		.byte	-89
 1002 01d2 96       		.byte	-106
 1003 01d3 0C       		.byte	12
 1004 01d4 97       		.byte	-105
 1005 01d5 18       		.byte	24
 1006 01d6 98       		.byte	-104
 1007 01d7 82       		.byte	-126
 1008 01d8 99       		.byte	-103
 1009 01d9 3C       		.byte	60
 1010 01da 9B       		.byte	-101
 1011 01db 82       		.byte	-126
 1012 01dc 9F       		.byte	-97
 1013 01dd 04       		.byte	4
 1014 01de A0       		.byte	-96
 1015 01df F3       		.byte	-13
 1016 01e0 A2       		.byte	-94
 1017 01e1 0C       		.byte	12
 1018 01e2 A3       		.byte	-93
 1019 01e3 03       		.byte	3
 1020 01e4 A4       		.byte	-92
 1021 01e5 08       		.byte	8
 1022 01e6 A5       		.byte	-91
 1023 01e7 3C       		.byte	60
 1024 01e8 A7       		.byte	-89
 1025 01e9 81       		.byte	-127
 1026 01ea A8       		.byte	-88
 1027 01eb 04       		.byte	4
 1028 01ec A9       		.byte	-87
 1029 01ed BF       		.byte	-65
 1030 01ee AC       		.byte	-84
 1031 01ef FF       		.byte	-1
 1032 01f0 AD       		.byte	-83
ARM GAS  C:\Users\LAIMON~1\AppData\Local\Temp\cclE2jtb.s 			page 33


 1033 01f1 04       		.byte	4
 1034 01f2 B0       		.byte	-80
 1035 01f3 C0       		.byte	-64
 1036 01f4 B1       		.byte	-79
 1037 01f5 20       		.byte	32
 1038 01f6 B2       		.byte	-78
 1039 01f7 2C       		.byte	44
 1040 01f8 B3       		.byte	-77
 1041 01f9 60       		.byte	96
 1042 01fa B4       		.byte	-76
 1043 01fb 0F       		.byte	15
 1044 01fc B5       		.byte	-75
 1045 01fd 1F       		.byte	31
 1046 01fe B6       		.byte	-74
 1047 01ff 1C       		.byte	28
 1048 0200 B7       		.byte	-73
 1049 0201 80       		.byte	-128
 1050 0202 B9       		.byte	-71
 1051 0203 88       		.byte	-120
 1052 0204 BA       		.byte	-70
 1053 0205 28       		.byte	40
 1054 0206 BB       		.byte	-69
 1055 0207 20       		.byte	32
 1056 0208 BF       		.byte	-65
 1057 0209 01       		.byte	1
 1058 020a D6       		.byte	-42
 1059 020b 02       		.byte	2
 1060 020c D7       		.byte	-41
 1061 020d 13       		.byte	19
 1062 020e D8       		.byte	-40
 1063 020f 04       		.byte	4
 1064 0210 D9       		.byte	-39
 1065 0211 04       		.byte	4
 1066 0212 DB       		.byte	-37
 1067 0213 04       		.byte	4
 1068 0214 DC       		.byte	-36
 1069 0215 11       		.byte	17
 1070 0216 DD       		.byte	-35
 1071 0217 10       		.byte	16
 1072 0218 DF       		.byte	-33
 1073 0219 01       		.byte	1
 1074 021a 01       		.byte	1
 1075 021b 82       		.byte	-126
 1076 021c 02       		.byte	2
 1077 021d 64       		.byte	100
 1078 021e 05       		.byte	5
 1079 021f 80       		.byte	-128
 1080 0220 07       		.byte	7
 1081 0221 64       		.byte	100
 1082 0222 09       		.byte	9
 1083 0223 28       		.byte	40
 1084 0224 0A       		.byte	10
 1085 0225 40       		.byte	64
 1086 0226 0D       		.byte	13
 1087 0227 60       		.byte	96
 1088 0228 0E       		.byte	14
 1089 0229 60       		.byte	96
ARM GAS  C:\Users\LAIMON~1\AppData\Local\Temp\cclE2jtb.s 			page 34


 1090 022a 12       		.byte	18
 1091 022b 80       		.byte	-128
 1092 022c 13       		.byte	19
 1093 022d 54       		.byte	84
 1094 022e 15       		.byte	21
 1095 022f 08       		.byte	8
 1096 0230 19       		.byte	25
 1097 0231 05       		.byte	5
 1098 0232 1A       		.byte	26
 1099 0233 08       		.byte	8
 1100 0234 1B       		.byte	27
 1101 0235 A0       		.byte	-96
 1102 0236 1C       		.byte	28
 1103 0237 08       		.byte	8
 1104 0238 1D       		.byte	29
 1105 0239 20       		.byte	32
 1106 023a 1E       		.byte	30
 1107 023b 40       		.byte	64
 1108 023c 1F       		.byte	31
 1109 023d 09       		.byte	9
 1110 023e 21       		.byte	33
 1111 023f 08       		.byte	8
 1112 0240 22       		.byte	34
 1113 0241 31       		.byte	49
 1114 0242 23       		.byte	35
 1115 0243 21       		.byte	33
 1116 0244 24       		.byte	36
 1117 0245 40       		.byte	64
 1118 0246 25       		.byte	37
 1119 0247 10       		.byte	16
 1120 0248 27       		.byte	39
 1121 0249 19       		.byte	25
 1122 024a 29       		.byte	41
 1123 024b 86       		.byte	-122
 1124 024c 2A       		.byte	42
 1125 024d 04       		.byte	4
 1126 024e 2B       		.byte	43
 1127 024f 08       		.byte	8
 1128 0250 2E       		.byte	46
 1129 0251 10       		.byte	16
 1130 0252 2F       		.byte	47
 1131 0253 02       		.byte	2
 1132 0254 31       		.byte	49
 1133 0255 80       		.byte	-128
 1134 0256 32       		.byte	50
 1135 0257 16       		.byte	22
 1136 0258 37       		.byte	55
 1137 0259 09       		.byte	9
 1138 025a 3A       		.byte	58
 1139 025b 80       		.byte	-128
 1140 025c 3B       		.byte	59
 1141 025d 14       		.byte	20
 1142 025e 3F       		.byte	63
 1143 025f 2A       		.byte	42
 1144 0260 47       		.byte	71
 1145 0261 10       		.byte	16
 1146 0262 4F       		.byte	79
ARM GAS  C:\Users\LAIMON~1\AppData\Local\Temp\cclE2jtb.s 			page 35


 1147 0263 02       		.byte	2
 1148 0264 55       		.byte	85
 1149 0265 04       		.byte	4
 1150 0266 57       		.byte	87
 1151 0267 04       		.byte	4
 1152 0268 5A       		.byte	90
 1153 0269 02       		.byte	2
 1154 026a 69       		.byte	105
 1155 026b 89       		.byte	-119
 1156 026c 6A       		.byte	106
 1157 026d 04       		.byte	4
 1158 026e 6B       		.byte	107
 1159 026f 44       		.byte	68
 1160 0270 72       		.byte	114
 1161 0271 80       		.byte	-128
 1162 0272 73       		.byte	115
 1163 0273 14       		.byte	20
 1164 0274 8A       		.byte	-118
 1165 0275 80       		.byte	-128
 1166 0276 8B       		.byte	-117
 1167 0277 68       		.byte	104
 1168 0278 8D       		.byte	-115
 1169 0279 08       		.byte	8
 1170 027a 8E       		.byte	-114
 1171 027b 02       		.byte	2
 1172 027c 92       		.byte	-110
 1173 027d 10       		.byte	16
 1174 027e 94       		.byte	-108
 1175 027f 40       		.byte	64
 1176 0280 95       		.byte	-107
 1177 0281 81       		.byte	-127
 1178 0282 96       		.byte	-106
 1179 0283 04       		.byte	4
 1180 0284 97       		.byte	-105
 1181 0285 03       		.byte	3
 1182 0286 99       		.byte	-103
 1183 0287 80       		.byte	-128
 1184 0288 9A       		.byte	-102
 1185 0289 40       		.byte	64
 1186 028a 9D       		.byte	-99
 1187 028b 01       		.byte	1
 1188 028c 9F       		.byte	-97
 1189 028d 05       		.byte	5
 1190 028e A1       		.byte	-95
 1191 028f 80       		.byte	-128
 1192 0290 A2       		.byte	-94
 1193 0291 10       		.byte	16
 1194 0292 A3       		.byte	-93
 1195 0293 12       		.byte	18
 1196 0294 A4       		.byte	-92
 1197 0295 04       		.byte	4
 1198 0296 A5       		.byte	-91
 1199 0297 1C       		.byte	28
 1200 0298 A7       		.byte	-89
 1201 0299 A9       		.byte	-87
 1202 029a A8       		.byte	-88
 1203 029b 10       		.byte	16
ARM GAS  C:\Users\LAIMON~1\AppData\Local\Temp\cclE2jtb.s 			page 36


 1204 029c A9       		.byte	-87
 1205 029d A1       		.byte	-95
 1206 029e AA       		.byte	-86
 1207 029f 02       		.byte	2
 1208 02a0 AE       		.byte	-82
 1209 02a1 08       		.byte	8
 1210 02a2 AF       		.byte	-81
 1211 02a3 02       		.byte	2
 1212 02a4 B1       		.byte	-79
 1213 02a5 40       		.byte	64
 1214 02a6 B2       		.byte	-78
 1215 02a7 48       		.byte	72
 1216 02a8 C0       		.byte	-64
 1217 02a9 FF       		.byte	-1
 1218 02aa C2       		.byte	-62
 1219 02ab FE       		.byte	-2
 1220 02ac C4       		.byte	-60
 1221 02ad 2F       		.byte	47
 1222 02ae CA       		.byte	-54
 1223 02af 3F       		.byte	63
 1224 02b0 CC       		.byte	-52
 1225 02b1 CF       		.byte	-49
 1226 02b2 CE       		.byte	-50
 1227 02b3 EE       		.byte	-18
 1228 02b4 D0       		.byte	-48
 1229 02b5 20       		.byte	32
 1230 02b6 D6       		.byte	-42
 1231 02b7 01       		.byte	1
 1232 02b8 EE       		.byte	-18
 1233 02b9 20       		.byte	32
 1234 02ba 0A       		.byte	10
 1235 02bb 40       		.byte	64
 1236 02bc 2F       		.byte	47
 1237 02bd 80       		.byte	-128
 1238 02be 66       		.byte	102
 1239 02bf 80       		.byte	-128
 1240 02c0 6F       		.byte	111
 1241 02c1 90       		.byte	-112
 1242 02c2 71       		.byte	113
 1243 02c3 10       		.byte	16
 1244 02c4 8F       		.byte	-113
 1245 02c5 10       		.byte	16
 1246 02c6 C2       		.byte	-62
 1247 02c7 10       		.byte	16
 1248 02c8 CA       		.byte	-54
 1249 02c9 80       		.byte	-128
 1250 02ca D6       		.byte	-42
 1251 02cb 80       		.byte	-128
 1252 02cc DA       		.byte	-38
 1253 02cd 80       		.byte	-128
 1254 02ce DC       		.byte	-36
 1255 02cf 60       		.byte	96
 1256 02d0 A9       		.byte	-87
 1257 02d1 10       		.byte	16
 1258 02d2 AA       		.byte	-86
 1259 02d3 40       		.byte	64
 1260 02d4 B2       		.byte	-78
ARM GAS  C:\Users\LAIMON~1\AppData\Local\Temp\cclE2jtb.s 			page 37


 1261 02d5 80       		.byte	-128
 1262 02d6 E8       		.byte	-24
 1263 02d7 20       		.byte	32
 1264 02d8 EE       		.byte	-18
 1265 02d9 20       		.byte	32
 1266 02da 10       		.byte	16
 1267 02db 0A       		.byte	10
 1268 02dc 11       		.byte	17
 1269 02dd 01       		.byte	1
 1270 02de 0000     		.space	2
 1271              		.type	BS_UDB_0_1_0_CONFIG_VAL.4749, %object
 1272              		.size	BS_UDB_0_1_0_CONFIG_VAL.4749, 128
 1273              	BS_UDB_0_1_0_CONFIG_VAL.4749:
 1274 02e0 00       		.byte	0
 1275 02e1 00       		.byte	0
 1276 02e2 00       		.byte	0
 1277 02e3 02       		.byte	2
 1278 02e4 00       		.byte	0
 1279 02e5 04       		.byte	4
 1280 02e6 80       		.byte	-128
 1281 02e7 08       		.byte	8
 1282 02e8 00       		.byte	0
 1283 02e9 00       		.byte	0
 1284 02ea 00       		.byte	0
 1285 02eb 10       		.byte	16
 1286 02ec 00       		.byte	0
 1287 02ed 04       		.byte	4
 1288 02ee 80       		.byte	-128
 1289 02ef 08       		.byte	8
 1290 02f0 03       		.byte	3
 1291 02f1 00       		.byte	0
 1292 02f2 04       		.byte	4
 1293 02f3 00       		.byte	0
 1294 02f4 00       		.byte	0
 1295 02f5 04       		.byte	4
 1296 02f6 08       		.byte	8
 1297 02f7 08       		.byte	8
 1298 02f8 13       		.byte	19
 1299 02f9 00       		.byte	0
 1300 02fa 0C       		.byte	12
 1301 02fb 02       		.byte	2
 1302 02fc 00       		.byte	0
 1303 02fd 00       		.byte	0
 1304 02fe 40       		.byte	64
 1305 02ff 01       		.byte	1
 1306 0300 00       		.byte	0
 1307 0301 0C       		.byte	12
 1308 0302 00       		.byte	0
 1309 0303 00       		.byte	0
 1310 0304 20       		.byte	32
 1311 0305 00       		.byte	0
 1312 0306 05       		.byte	5
 1313 0307 01       		.byte	1
 1314 0308 13       		.byte	19
 1315 0309 04       		.byte	4
 1316 030a 04       		.byte	4
 1317 030b 08       		.byte	8
ARM GAS  C:\Users\LAIMON~1\AppData\Local\Temp\cclE2jtb.s 			page 38


 1318 030c 0A       		.byte	10
 1319 030d 00       		.byte	0
 1320 030e 14       		.byte	20
 1321 030f 00       		.byte	0
 1322 0310 00       		.byte	0
 1323 0311 01       		.byte	1
 1324 0312 30       		.byte	48
 1325 0313 0C       		.byte	12
 1326 0314 0F       		.byte	15
 1327 0315 02       		.byte	2
 1328 0316 C0       		.byte	-64
 1329 0317 10       		.byte	16
 1330 0318 08       		.byte	8
 1331 0319 00       		.byte	0
 1332 031a 20       		.byte	32
 1333 031b 00       		.byte	0
 1334 031c 00       		.byte	0
 1335 031d 00       		.byte	0
 1336 031e 40       		.byte	64
 1337 031f 11       		.byte	17
 1338 0320 26       		.byte	38
 1339 0321 03       		.byte	3
 1340 0322 05       		.byte	5
 1341 0323 00       		.byte	0
 1342 0324 01       		.byte	1
 1343 0325 0C       		.byte	12
 1344 0326 E0       		.byte	-32
 1345 0327 00       		.byte	0
 1346 0328 09       		.byte	9
 1347 0329 FF       		.byte	-1
 1348 032a FF       		.byte	-1
 1349 032b FF       		.byte	-1
 1350 032c 62       		.byte	98
 1351 032d A0       		.byte	-96
 1352 032e F0       		.byte	-16
 1353 032f 41       		.byte	65
 1354 0330 0C       		.byte	12
 1355 0331 00       		.byte	0
 1356 0332 00       		.byte	0
 1357 0333 00       		.byte	0
 1358 0334 18       		.byte	24
 1359 0335 00       		.byte	0
 1360 0336 04       		.byte	4
 1361 0337 00       		.byte	0
 1362 0338 04       		.byte	4
 1363 0339 04       		.byte	4
 1364 033a 04       		.byte	4
 1365 033b 04       		.byte	4
 1366 033c 11       		.byte	17
 1367 033d 11       		.byte	17
 1368 033e 00       		.byte	0
 1369 033f 01       		.byte	1
 1370 0340 00       		.byte	0
 1371 0341 00       		.byte	0
 1372 0342 00       		.byte	0
 1373 0343 00       		.byte	0
 1374 0344 00       		.byte	0
ARM GAS  C:\Users\LAIMON~1\AppData\Local\Temp\cclE2jtb.s 			page 39


 1375 0345 00       		.byte	0
 1376 0346 40       		.byte	64
 1377 0347 02       		.byte	2
 1378 0348 00       		.byte	0
 1379 0349 10       		.byte	16
 1380 034a 30       		.byte	48
 1381 034b 10       		.byte	16
 1382 034c 00       		.byte	0
 1383 034d 10       		.byte	16
 1384 034e 10       		.byte	16
 1385 034f 12       		.byte	18
 1386 0350 00       		.byte	0
 1387 0351 00       		.byte	0
 1388 0352 00       		.byte	0
 1389 0353 00       		.byte	0
 1390 0354 00       		.byte	0
 1391 0355 00       		.byte	0
 1392 0356 00       		.byte	0
 1393 0357 00       		.byte	0
 1394 0358 00       		.byte	0
 1395 0359 00       		.byte	0
 1396 035a 00       		.byte	0
 1397 035b 00       		.byte	0
 1398 035c 00       		.byte	0
 1399 035d 00       		.byte	0
 1400 035e 00       		.byte	0
 1401 035f 00       		.byte	0
 1402              		.text
 1403              	.Letext0:
 1404              		.file 2 "c:\\program files (x86)\\cypress\\psoc creator\\3.3\\psoc creator\\import\\gnu\\arm\\4.9.
 1405              		.file 3 ".\\Generated_Source\\PSoC4\\cytypes.h"
 1406              		.file 4 ".\\Generated_Source\\PSoC4\\CyLib.h"