ARM GAS  C:\temp\ccY39PSX.s 			page 1


   1              		.cpu cortex-m0
   2              		.fpu softvfp
   3              		.eabi_attribute 20, 1
   4              		.eabi_attribute 21, 1
   5              		.eabi_attribute 23, 3
   6              		.eabi_attribute 24, 1
   7              		.eabi_attribute 25, 1
   8              		.eabi_attribute 26, 1
   9              		.eabi_attribute 30, 1
  10              		.eabi_attribute 34, 0
  11              		.eabi_attribute 18, 4
  12              		.code	16
  13              		.file	"sensors.c"
  14              		.text
  15              	.Ltext0:
  16              		.cfi_sections	.debug_frame
  17              		.section	.text.isr_EOC_vec,"ax",%progbits
  18              		.align	2
  19              		.global	isr_EOC_vec
  20              		.code	16
  21              		.thumb_func
  22              		.type	isr_EOC_vec, %function
  23              	isr_EOC_vec:
  24              	.LFB33:
  25              		.file 1 ".\\sensors.c"
   1:.\sensors.c   **** /* ========================================
   2:.\sensors.c   ****  *
   3:.\sensors.c   ****  * Copyright YOUR COMPANY, THE YEAR
   4:.\sensors.c   ****  * All Rights Reserved
   5:.\sensors.c   ****  * UNPUBLISHED, LICENSED SOFTWARE.
   6:.\sensors.c   ****  *
   7:.\sensors.c   ****  * CONFIDENTIAL AND PROPRIETARY INFORMATION
   8:.\sensors.c   ****  * WHICH IS THE PROPERTY OF your company.
   9:.\sensors.c   ****  *
  10:.\sensors.c   ****  * ========================================
  11:.\sensors.c   **** */
  12:.\sensors.c   **** #include <sensors.h>
  13:.\sensors.c   **** 
  14:.\sensors.c   **** uint8 moisture_ptr = 0;
  15:.\sensors.c   **** uint8 waterlevel_ptr=0;
  16:.\sensors.c   **** uint8 temperature_ptr=0;
  17:.\sensors.c   **** uint8 batterylevel_ptr=0;
  18:.\sensors.c   **** uint8 lightlevel_ptr=0;
  19:.\sensors.c   **** 
  20:.\sensors.c   **** CY_ISR(isr_EOC_vec)
  21:.\sensors.c   **** {
  26              		.loc 1 21 0
  27              		.cfi_startproc
  28 0000 10B5     		push	{r4, lr}
  29              		.cfi_def_cfa_offset 8
  30              		.cfi_offset 4, -8
  31              		.cfi_offset 14, -4
  22:.\sensors.c   ****     if(moisture_ptr < 50u)
  32              		.loc 1 22 0
  33 0002 294B     		ldr	r3, .L7
  34 0004 1C78     		ldrb	r4, [r3]
  35 0006 312C     		cmp	r4, #49
ARM GAS  C:\temp\ccY39PSX.s 			page 2


  36 0008 09D8     		bhi	.L2
  23:.\sensors.c   ****     {
  24:.\sensors.c   ****         moisture[moisture_ptr]=ADC_SAR_Seq_1_GetResult16(0);
  37              		.loc 1 24 0
  38 000a 0020     		mov	r0, #0
  39 000c FFF7FEFF 		bl	ADC_SAR_Seq_1_GetResult16
  40              	.LVL0:
  41 0010 6400     		lsl	r4, r4, #1
  42 0012 264B     		ldr	r3, .L7+4
  43 0014 E052     		strh	r0, [r4, r3]
  25:.\sensors.c   ****         moisture_ptr++; 
  44              		.loc 1 25 0
  45 0016 244A     		ldr	r2, .L7
  46 0018 1378     		ldrb	r3, [r2]
  47 001a 0133     		add	r3, r3, #1
  48 001c 1370     		strb	r3, [r2]
  49              	.L2:
  26:.\sensors.c   ****     }
  27:.\sensors.c   ****     if(waterlevel_ptr<50u)
  50              		.loc 1 27 0
  51 001e 224B     		ldr	r3, .L7
  52 0020 5C78     		ldrb	r4, [r3, #1]
  53 0022 312C     		cmp	r4, #49
  54 0024 09D8     		bhi	.L3
  28:.\sensors.c   ****     {
  29:.\sensors.c   ****         waterlevel[waterlevel_ptr]=ADC_SAR_Seq_1_GetResult16(3);
  55              		.loc 1 29 0
  56 0026 0320     		mov	r0, #3
  57 0028 FFF7FEFF 		bl	ADC_SAR_Seq_1_GetResult16
  58              	.LVL1:
  59 002c 6400     		lsl	r4, r4, #1
  60 002e 204B     		ldr	r3, .L7+8
  61 0030 E052     		strh	r0, [r4, r3]
  30:.\sensors.c   ****         waterlevel_ptr++;
  62              		.loc 1 30 0
  63 0032 1D4A     		ldr	r2, .L7
  64 0034 5378     		ldrb	r3, [r2, #1]
  65 0036 0133     		add	r3, r3, #1
  66 0038 5370     		strb	r3, [r2, #1]
  67              	.L3:
  31:.\sensors.c   ****     }
  32:.\sensors.c   ****    if(temperature_ptr < 8u )
  68              		.loc 1 32 0
  69 003a 1B4B     		ldr	r3, .L7
  70 003c 9C78     		ldrb	r4, [r3, #2]
  71 003e 072C     		cmp	r4, #7
  72 0040 0DD8     		bhi	.L4
  33:.\sensors.c   ****     {
  34:.\sensors.c   ****         temperature[temperature_ptr]=ADC_SAR_Seq_1_CountsTo_mVolts(2u,ADC_SAR_Seq_1_GetResult16(2))
  73              		.loc 1 34 0
  74 0042 0220     		mov	r0, #2
  75 0044 FFF7FEFF 		bl	ADC_SAR_Seq_1_GetResult16
  76              	.LVL2:
  77 0048 011C     		mov	r1, r0
  78 004a 0220     		mov	r0, #2
  79 004c FFF7FEFF 		bl	ADC_SAR_Seq_1_CountsTo_mVolts
  80              	.LVL3:
ARM GAS  C:\temp\ccY39PSX.s 			page 3


  81 0050 6400     		lsl	r4, r4, #1
  82 0052 184B     		ldr	r3, .L7+12
  83 0054 E052     		strh	r0, [r4, r3]
  35:.\sensors.c   ****         temperature_ptr++;  
  84              		.loc 1 35 0
  85 0056 144A     		ldr	r2, .L7
  86 0058 9378     		ldrb	r3, [r2, #2]
  87 005a 0133     		add	r3, r3, #1
  88 005c 9370     		strb	r3, [r2, #2]
  89              	.L4:
  36:.\sensors.c   ****     }
  37:.\sensors.c   ****     if(batterylevel_ptr< 8u)
  90              		.loc 1 37 0
  91 005e 124B     		ldr	r3, .L7
  92 0060 DC78     		ldrb	r4, [r3, #3]
  93 0062 072C     		cmp	r4, #7
  94 0064 0DD8     		bhi	.L5
  38:.\sensors.c   ****     {
  39:.\sensors.c   ****         batterylevel[batterylevel_ptr]=ADC_SAR_Seq_1_CountsTo_mVolts(2u,ADC_SAR_Seq_1_GetResult16(1
  95              		.loc 1 39 0
  96 0066 0120     		mov	r0, #1
  97 0068 FFF7FEFF 		bl	ADC_SAR_Seq_1_GetResult16
  98              	.LVL4:
  99 006c 011C     		mov	r1, r0
 100 006e 0220     		mov	r0, #2
 101 0070 FFF7FEFF 		bl	ADC_SAR_Seq_1_CountsTo_mVolts
 102              	.LVL5:
 103 0074 6400     		lsl	r4, r4, #1
 104 0076 104B     		ldr	r3, .L7+16
 105 0078 E052     		strh	r0, [r4, r3]
  40:.\sensors.c   ****         batterylevel_ptr++;
 106              		.loc 1 40 0
 107 007a 0B4A     		ldr	r2, .L7
 108 007c D378     		ldrb	r3, [r2, #3]
 109 007e 0133     		add	r3, r3, #1
 110 0080 D370     		strb	r3, [r2, #3]
 111              	.L5:
  41:.\sensors.c   ****     }
  42:.\sensors.c   ****     if(lightlevel_ptr< 8u)
 112              		.loc 1 42 0
 113 0082 094B     		ldr	r3, .L7
 114 0084 1C79     		ldrb	r4, [r3, #4]
 115 0086 072C     		cmp	r4, #7
 116 0088 0DD8     		bhi	.L1
  43:.\sensors.c   ****     {
  44:.\sensors.c   ****         lightlevel[lightlevel_ptr]=ADC_SAR_Seq_1_CountsTo_mVolts(2u,ADC_SAR_Seq_1_GetResult16(4));
 117              		.loc 1 44 0
 118 008a 0420     		mov	r0, #4
 119 008c FFF7FEFF 		bl	ADC_SAR_Seq_1_GetResult16
 120              	.LVL6:
 121 0090 011C     		mov	r1, r0
 122 0092 0220     		mov	r0, #2
 123 0094 FFF7FEFF 		bl	ADC_SAR_Seq_1_CountsTo_mVolts
 124              	.LVL7:
 125 0098 6400     		lsl	r4, r4, #1
 126 009a 084B     		ldr	r3, .L7+20
 127 009c E052     		strh	r0, [r4, r3]
ARM GAS  C:\temp\ccY39PSX.s 			page 4


  45:.\sensors.c   ****         lightlevel_ptr++;
 128              		.loc 1 45 0
 129 009e 024A     		ldr	r2, .L7
 130 00a0 1379     		ldrb	r3, [r2, #4]
 131 00a2 0133     		add	r3, r3, #1
 132 00a4 1371     		strb	r3, [r2, #4]
 133              	.L1:
  46:.\sensors.c   ****     }
  47:.\sensors.c   ****     
  48:.\sensors.c   **** }
 134              		.loc 1 48 0
 135              		@ sp needed
 136 00a6 10BD     		pop	{r4, pc}
 137              	.L8:
 138              		.align	2
 139              	.L7:
 140 00a8 00000000 		.word	.LANCHOR0
 141 00ac 00000000 		.word	moisture
 142 00b0 00000000 		.word	waterlevel
 143 00b4 00000000 		.word	temperature
 144 00b8 00000000 		.word	batterylevel
 145 00bc 00000000 		.word	lightlevel
 146              		.cfi_endproc
 147              	.LFE33:
 148              		.size	isr_EOC_vec, .-isr_EOC_vec
 149              		.global	__aeabi_idiv
 150              		.global	__aeabi_i2d
 151              		.global	__aeabi_ddiv
 152              		.global	__aeabi_dmul
 153              		.global	__aeabi_dadd
 154              		.global	__aeabi_dcmplt
 155              		.global	__aeabi_dcmpgt
 156              		.global	__aeabi_d2iz
 157              		.section	.text.get_moisture,"ax",%progbits
 158              		.align	2
 159              		.global	get_moisture
 160              		.code	16
 161              		.thumb_func
 162              		.type	get_moisture, %function
 163              	get_moisture:
 164              	.LFB34:
  49:.\sensors.c   **** 
  50:.\sensors.c   **** int16 procent_moisture = 0;
  51:.\sensors.c   **** int16 get_moisture(void)
  52:.\sensors.c   **** {
 165              		.loc 1 52 0
 166              		.cfi_startproc
 167 0000 38B5     		push	{r3, r4, r5, lr}
 168              		.cfi_def_cfa_offset 16
 169              		.cfi_offset 3, -16
 170              		.cfi_offset 4, -12
 171              		.cfi_offset 5, -8
 172              		.cfi_offset 14, -4
  53:.\sensors.c   ****      if(moisture_ptr == 50)
 173              		.loc 1 53 0
 174 0002 3A4B     		ldr	r3, .L21
 175 0004 1B78     		ldrb	r3, [r3]
ARM GAS  C:\temp\ccY39PSX.s 			page 5


 176 0006 322B     		cmp	r3, #50
 177 0008 6CD1     		bne	.L10
 178              	.LBB2:
  54:.\sensors.c   ****         {
  55:.\sensors.c   ****             int16 min=moisture[0];
 179              		.loc 1 55 0
 180 000a 394B     		ldr	r3, .L21+4
 181 000c 1888     		ldrh	r0, [r3]
 182              	.LVL8:
  56:.\sensors.c   ****             int16 max=moisture[0];
 183              		.loc 1 56 0
 184 000e 041C     		mov	r4, r0
  57:.\sensors.c   ****             
  58:.\sensors.c   ****             int i;
  59:.\sensors.c   ****             for(i = 1; i < 50; i++)
 185              		.loc 1 59 0
 186 0010 0123     		mov	r3, #1
 187 0012 0EE0     		b	.L11
 188              	.LVL9:
 189              	.L13:
  60:.\sensors.c   ****             {
  61:.\sensors.c   ****                 if(min > moisture[i])
 190              		.loc 1 61 0
 191 0014 5A00     		lsl	r2, r3, #1
 192 0016 3649     		ldr	r1, .L21+4
 193 0018 525A     		ldrh	r2, [r2, r1]
 194 001a 15B2     		sxth	r5, r2
 195 001c 01B2     		sxth	r1, r0
 196 001e 8D42     		cmp	r5, r1
 197 0020 03DB     		blt	.L17
  62:.\sensors.c   ****                 {
  63:.\sensors.c   ****                     min = moisture[i];   
  64:.\sensors.c   ****                 }
  65:.\sensors.c   ****                 else if(max < moisture[i])
 198              		.loc 1 65 0
 199 0022 21B2     		sxth	r1, r4
 200 0024 A942     		cmp	r1, r5
 201 0026 02DB     		blt	.L18
 202 0028 02E0     		b	.L12
 203              	.L17:
  63:.\sensors.c   ****                 }
 204              		.loc 1 63 0
 205 002a 101C     		mov	r0, r2
 206              	.LVL10:
 207 002c 00E0     		b	.L12
 208              	.LVL11:
 209              	.L18:
  66:.\sensors.c   ****                 {
  67:.\sensors.c   ****                     max = moisture[i];   
 210              		.loc 1 67 0
 211 002e 141C     		mov	r4, r2
 212              	.LVL12:
 213              	.L12:
  59:.\sensors.c   ****             {
 214              		.loc 1 59 0 discriminator 2
 215 0030 0133     		add	r3, r3, #1
 216              	.LVL13:
ARM GAS  C:\temp\ccY39PSX.s 			page 6


 217              	.L11:
  59:.\sensors.c   ****             {
 218              		.loc 1 59 0 is_stmt 0 discriminator 1
 219 0032 312B     		cmp	r3, #49
 220 0034 EEDD     		ble	.L13
  68:.\sensors.c   ****                 }
  69:.\sensors.c   ****             }
  70:.\sensors.c   ****             
  71:.\sensors.c   ****             int16 pp = ((max - min)*806)/1000;
 221              		.loc 1 71 0 is_stmt 1
 222 0036 24B2     		sxth	r4, r4
 223 0038 00B2     		sxth	r0, r0
 224 003a 201A     		sub	r0, r4, r0
 225              	.LVL14:
 226 003c 2D4C     		ldr	r4, .L21+8
 227              	.LVL15:
 228 003e 6043     		mul	r0, r4
 229 0040 FA21     		mov	r1, #250
 230 0042 8900     		lsl	r1, r1, #2
 231 0044 FFF7FEFF 		bl	__aeabi_idiv
 232              	.LVL16:
 233 0048 80B2     		uxth	r0, r0
 234              	.LVL17:
  72:.\sensors.c   ****             
  73:.\sensors.c   ****             double procent_d;
  74:.\sensors.c   ****             
  75:.\sensors.c   ****             if(pp>= 1117)
 235              		.loc 1 75 0
 236 004a 02B2     		sxth	r2, r0
 237 004c 2A4B     		ldr	r3, .L21+12
 238 004e 9A42     		cmp	r2, r3
 239 0050 15DD     		ble	.L14
  76:.\sensors.c   ****             {
  77:.\sensors.c   ****                   procent_d = (-0.223834*((double)pp/1000)+0.583310)*100;
 240              		.loc 1 77 0
 241 0052 101C     		mov	r0, r2
 242 0054 FFF7FEFF 		bl	__aeabi_i2d
 243              	.LVL18:
 244 0058 0022     		mov	r2, #0
 245 005a 284B     		ldr	r3, .L21+16
 246 005c FFF7FEFF 		bl	__aeabi_ddiv
 247              	.LVL19:
 248 0060 274A     		ldr	r2, .L21+20
 249 0062 284B     		ldr	r3, .L21+24
 250 0064 FFF7FEFF 		bl	__aeabi_dmul
 251              	.LVL20:
 252 0068 274A     		ldr	r2, .L21+28
 253 006a 284B     		ldr	r3, .L21+32
 254 006c FFF7FEFF 		bl	__aeabi_dadd
 255              	.LVL21:
 256 0070 0022     		mov	r2, #0
 257 0072 274B     		ldr	r3, .L21+36
 258 0074 FFF7FEFF 		bl	__aeabi_dmul
 259              	.LVL22:
 260 0078 041C     		mov	r4, r0
 261 007a 0D1C     		mov	r5, r1
 262              	.LVL23:
ARM GAS  C:\temp\ccY39PSX.s 			page 7


 263 007c 14E0     		b	.L15
 264              	.LVL24:
 265              	.L14:
  78:.\sensors.c   ****             }else
  79:.\sensors.c   ****             {
  80:.\sensors.c   ****                   procent_d = (-1.08366*((double)pp/1000)+1.54356)*100; 
 266              		.loc 1 80 0
 267 007e 00B2     		sxth	r0, r0
 268 0080 FFF7FEFF 		bl	__aeabi_i2d
 269              	.LVL25:
 270 0084 0022     		mov	r2, #0
 271 0086 1D4B     		ldr	r3, .L21+16
 272 0088 FFF7FEFF 		bl	__aeabi_ddiv
 273              	.LVL26:
 274 008c 214A     		ldr	r2, .L21+40
 275 008e 224B     		ldr	r3, .L21+44
 276 0090 FFF7FEFF 		bl	__aeabi_dmul
 277              	.LVL27:
 278 0094 214A     		ldr	r2, .L21+48
 279 0096 224B     		ldr	r3, .L21+52
 280 0098 FFF7FEFF 		bl	__aeabi_dadd
 281              	.LVL28:
 282 009c 0022     		mov	r2, #0
 283 009e 1C4B     		ldr	r3, .L21+36
 284 00a0 FFF7FEFF 		bl	__aeabi_dmul
 285              	.LVL29:
 286 00a4 041C     		mov	r4, r0
 287 00a6 0D1C     		mov	r5, r1
 288              	.LVL30:
 289              	.L15:
  81:.\sensors.c   ****             }
  82:.\sensors.c   ****             if(procent_d < 0)
 290              		.loc 1 82 0
 291 00a8 201C     		mov	r0, r4
 292 00aa 291C     		mov	r1, r5
 293 00ac 0022     		mov	r2, #0
 294 00ae 0023     		mov	r3, #0
 295 00b0 FFF7FEFF 		bl	__aeabi_dcmplt
 296              	.LVL31:
 297 00b4 0028     		cmp	r0, #0
 298 00b6 08D1     		bne	.L19
  83:.\sensors.c   ****             {
  84:.\sensors.c   ****                 procent_d = 0;   
  85:.\sensors.c   ****             }
  86:.\sensors.c   ****             else if(procent_d > 100)
 299              		.loc 1 86 0
 300 00b8 201C     		mov	r0, r4
 301 00ba 291C     		mov	r1, r5
 302 00bc 0022     		mov	r2, #0
 303 00be 144B     		ldr	r3, .L21+36
 304 00c0 FFF7FEFF 		bl	__aeabi_dcmpgt
 305              	.LVL32:
 306 00c4 0028     		cmp	r0, #0
 307 00c6 03D1     		bne	.L20
 308 00c8 04E0     		b	.L16
 309              	.L19:
  84:.\sensors.c   ****             }
ARM GAS  C:\temp\ccY39PSX.s 			page 8


 310              		.loc 1 84 0
 311 00ca 0024     		mov	r4, #0
 312              	.LVL33:
 313 00cc 0025     		mov	r5, #0
 314 00ce 01E0     		b	.L16
 315              	.LVL34:
 316              	.L20:
  87:.\sensors.c   ****             {
  88:.\sensors.c   ****                 procent_d = 100;   
 317              		.loc 1 88 0
 318 00d0 0024     		mov	r4, #0
 319              	.LVL35:
 320 00d2 0F4D     		ldr	r5, .L21+36
 321              	.L16:
 322              	.LVL36:
  89:.\sensors.c   ****             }
  90:.\sensors.c   ****             
  91:.\sensors.c   ****             int16 procent = (int16)procent_d;
 323              		.loc 1 91 0
 324 00d4 201C     		mov	r0, r4
 325 00d6 291C     		mov	r1, r5
 326 00d8 FFF7FEFF 		bl	__aeabi_d2iz
 327              	.LVL37:
  92:.\sensors.c   ****             //char bufchar[50];
  93:.\sensors.c   ****             
  94:.\sensors.c   ****             /*sprintf(bufchar, "max = %d\n\rmin = %d\n\rpp = %d mV\n\rprocent = %d %%\n\n\r", max, 
  95:.\sensors.c   ****             
  96:.\sensors.c   ****             UART_1_UartPutString(bufchar);
  97:.\sensors.c   ****             CyDelay(1000);*/
  98:.\sensors.c   ****             moisture_ptr=0;
 328              		.loc 1 98 0
 329 00dc 034B     		ldr	r3, .L21
 330 00de 0022     		mov	r2, #0
 331 00e0 1A70     		strb	r2, [r3]
  99:.\sensors.c   ****             
 100:.\sensors.c   ****             procent_moisture = procent;
 332              		.loc 1 100 0
 333 00e2 D880     		strh	r0, [r3, #6]
 334              	.LVL38:
 335              	.L10:
 336              	.LBE2:
 101:.\sensors.c   ****                         
 102:.\sensors.c   ****         }
 103:.\sensors.c   ****         
 104:.\sensors.c   ****     return procent_moisture;
 337              		.loc 1 104 0
 338 00e4 014B     		ldr	r3, .L21
 339 00e6 0620     		mov	r0, #6
 340 00e8 185E     		ldrsh	r0, [r3, r0]
 105:.\sensors.c   **** }
 341              		.loc 1 105 0
 342              		@ sp needed
 343 00ea 38BD     		pop	{r3, r4, r5, pc}
 344              	.L22:
 345              		.align	2
 346              	.L21:
 347 00ec 00000000 		.word	.LANCHOR0
ARM GAS  C:\temp\ccY39PSX.s 			page 9


 348 00f0 00000000 		.word	moisture
 349 00f4 26030000 		.word	806
 350 00f8 5C040000 		.word	1116
 351 00fc 00408F40 		.word	1083129856
 352 0100 7DCEDDAE 		.word	-1361195395
 353 0104 97A6CCBF 		.word	-1077107049
 354 0108 98C0ADBB 		.word	-1146240872
 355 010c 79AAE23F 		.word	1071819385
 356 0110 00005940 		.word	1079574528
 357 0114 D8BB3FDE 		.word	-566248488
 358 0118 AB56F1BF 		.word	-1074702677
 359 011c C39E76F8 		.word	-126443837
 360 0120 6BB2F83F 		.word	1073263211
 361              		.cfi_endproc
 362              	.LFE34:
 363              		.size	get_moisture, .-get_moisture
 364              		.section	.text.get_waterlevel,"ax",%progbits
 365              		.align	2
 366              		.global	get_waterlevel
 367              		.code	16
 368              		.thumb_func
 369              		.type	get_waterlevel, %function
 370              	get_waterlevel:
 371              	.LFB35:
 106:.\sensors.c   **** 
 107:.\sensors.c   **** int16 procent_waterlevel = 0;
 108:.\sensors.c   **** 
 109:.\sensors.c   **** int16 get_waterlevel(void)
 110:.\sensors.c   **** {
 372              		.loc 1 110 0
 373              		.cfi_startproc
 374 0000 38B5     		push	{r3, r4, r5, lr}
 375              		.cfi_def_cfa_offset 16
 376              		.cfi_offset 3, -16
 377              		.cfi_offset 4, -12
 378              		.cfi_offset 5, -8
 379              		.cfi_offset 14, -4
 111:.\sensors.c   ****     if(waterlevel_ptr == 50)
 380              		.loc 1 111 0
 381 0002 3A4B     		ldr	r3, .L35
 382 0004 5B78     		ldrb	r3, [r3, #1]
 383 0006 322B     		cmp	r3, #50
 384 0008 6CD1     		bne	.L24
 385              	.LBB3:
 112:.\sensors.c   ****         {
 113:.\sensors.c   ****             int16 min=waterlevel[0];
 386              		.loc 1 113 0
 387 000a 394B     		ldr	r3, .L35+4
 388 000c 1888     		ldrh	r0, [r3]
 389              	.LVL39:
 114:.\sensors.c   ****             int16 max=waterlevel[0];
 390              		.loc 1 114 0
 391 000e 041C     		mov	r4, r0
 115:.\sensors.c   ****             
 116:.\sensors.c   ****             int i;
 117:.\sensors.c   ****             for(i = 1; i < 50; i++)
 392              		.loc 1 117 0
ARM GAS  C:\temp\ccY39PSX.s 			page 10


 393 0010 0123     		mov	r3, #1
 394 0012 0EE0     		b	.L25
 395              	.LVL40:
 396              	.L27:
 118:.\sensors.c   ****             {
 119:.\sensors.c   ****                 if(min > waterlevel[i])
 397              		.loc 1 119 0
 398 0014 5A00     		lsl	r2, r3, #1
 399 0016 3649     		ldr	r1, .L35+4
 400 0018 525A     		ldrh	r2, [r2, r1]
 401 001a 15B2     		sxth	r5, r2
 402 001c 01B2     		sxth	r1, r0
 403 001e 8D42     		cmp	r5, r1
 404 0020 03DB     		blt	.L31
 120:.\sensors.c   ****                 {
 121:.\sensors.c   ****                     min = waterlevel[i];   
 122:.\sensors.c   ****                 }
 123:.\sensors.c   ****                 else if(max < waterlevel[i])
 405              		.loc 1 123 0
 406 0022 21B2     		sxth	r1, r4
 407 0024 A942     		cmp	r1, r5
 408 0026 02DB     		blt	.L32
 409 0028 02E0     		b	.L26
 410              	.L31:
 121:.\sensors.c   ****                 }
 411              		.loc 1 121 0
 412 002a 101C     		mov	r0, r2
 413              	.LVL41:
 414 002c 00E0     		b	.L26
 415              	.LVL42:
 416              	.L32:
 124:.\sensors.c   ****                 {
 125:.\sensors.c   ****                     max = waterlevel[i];   
 417              		.loc 1 125 0
 418 002e 141C     		mov	r4, r2
 419              	.LVL43:
 420              	.L26:
 117:.\sensors.c   ****             {
 421              		.loc 1 117 0 discriminator 2
 422 0030 0133     		add	r3, r3, #1
 423              	.LVL44:
 424              	.L25:
 117:.\sensors.c   ****             {
 425              		.loc 1 117 0 is_stmt 0 discriminator 1
 426 0032 312B     		cmp	r3, #49
 427 0034 EEDD     		ble	.L27
 126:.\sensors.c   ****                 }
 127:.\sensors.c   ****             }
 128:.\sensors.c   ****             char bufchar[50];
 129:.\sensors.c   ****             
 130:.\sensors.c   ****             int16 pp = ((max - min)*806)/1000;
 428              		.loc 1 130 0 is_stmt 1
 429 0036 24B2     		sxth	r4, r4
 430 0038 00B2     		sxth	r0, r0
 431 003a 201A     		sub	r0, r4, r0
 432              	.LVL45:
 433 003c 2D4C     		ldr	r4, .L35+8
ARM GAS  C:\temp\ccY39PSX.s 			page 11


 434              	.LVL46:
 435 003e 6043     		mul	r0, r4
 436 0040 FA21     		mov	r1, #250
 437 0042 8900     		lsl	r1, r1, #2
 438 0044 FFF7FEFF 		bl	__aeabi_idiv
 439              	.LVL47:
 440 0048 80B2     		uxth	r0, r0
 441              	.LVL48:
 131:.\sensors.c   ****             
 132:.\sensors.c   ****             double procent_d;
 133:.\sensors.c   ****             
 134:.\sensors.c   ****             if(pp>= 1117)
 442              		.loc 1 134 0
 443 004a 02B2     		sxth	r2, r0
 444 004c 2A4B     		ldr	r3, .L35+12
 445 004e 9A42     		cmp	r2, r3
 446 0050 15DD     		ble	.L28
 135:.\sensors.c   ****             {
 136:.\sensors.c   ****                   procent_d = (-0.223834*((double)pp/1000)+0.583310)*100;
 447              		.loc 1 136 0
 448 0052 101C     		mov	r0, r2
 449 0054 FFF7FEFF 		bl	__aeabi_i2d
 450              	.LVL49:
 451 0058 0022     		mov	r2, #0
 452 005a 284B     		ldr	r3, .L35+16
 453 005c FFF7FEFF 		bl	__aeabi_ddiv
 454              	.LVL50:
 455 0060 274A     		ldr	r2, .L35+20
 456 0062 284B     		ldr	r3, .L35+24
 457 0064 FFF7FEFF 		bl	__aeabi_dmul
 458              	.LVL51:
 459 0068 274A     		ldr	r2, .L35+28
 460 006a 284B     		ldr	r3, .L35+32
 461 006c FFF7FEFF 		bl	__aeabi_dadd
 462              	.LVL52:
 463 0070 0022     		mov	r2, #0
 464 0072 274B     		ldr	r3, .L35+36
 465 0074 FFF7FEFF 		bl	__aeabi_dmul
 466              	.LVL53:
 467 0078 041C     		mov	r4, r0
 468 007a 0D1C     		mov	r5, r1
 469              	.LVL54:
 470 007c 14E0     		b	.L29
 471              	.LVL55:
 472              	.L28:
 137:.\sensors.c   ****             }else
 138:.\sensors.c   ****             {
 139:.\sensors.c   ****                   procent_d = (-1.08366*((double)pp/1000)+1.54356)*100; 
 473              		.loc 1 139 0
 474 007e 00B2     		sxth	r0, r0
 475 0080 FFF7FEFF 		bl	__aeabi_i2d
 476              	.LVL56:
 477 0084 0022     		mov	r2, #0
 478 0086 1D4B     		ldr	r3, .L35+16
 479 0088 FFF7FEFF 		bl	__aeabi_ddiv
 480              	.LVL57:
 481 008c 214A     		ldr	r2, .L35+40
ARM GAS  C:\temp\ccY39PSX.s 			page 12


 482 008e 224B     		ldr	r3, .L35+44
 483 0090 FFF7FEFF 		bl	__aeabi_dmul
 484              	.LVL58:
 485 0094 214A     		ldr	r2, .L35+48
 486 0096 224B     		ldr	r3, .L35+52
 487 0098 FFF7FEFF 		bl	__aeabi_dadd
 488              	.LVL59:
 489 009c 0022     		mov	r2, #0
 490 009e 1C4B     		ldr	r3, .L35+36
 491 00a0 FFF7FEFF 		bl	__aeabi_dmul
 492              	.LVL60:
 493 00a4 041C     		mov	r4, r0
 494 00a6 0D1C     		mov	r5, r1
 495              	.LVL61:
 496              	.L29:
 140:.\sensors.c   ****             }
 141:.\sensors.c   ****             if(procent_d < 0)
 497              		.loc 1 141 0
 498 00a8 201C     		mov	r0, r4
 499 00aa 291C     		mov	r1, r5
 500 00ac 0022     		mov	r2, #0
 501 00ae 0023     		mov	r3, #0
 502 00b0 FFF7FEFF 		bl	__aeabi_dcmplt
 503              	.LVL62:
 504 00b4 0028     		cmp	r0, #0
 505 00b6 08D1     		bne	.L33
 142:.\sensors.c   ****             {
 143:.\sensors.c   ****                 procent_d = 0;   
 144:.\sensors.c   ****             }
 145:.\sensors.c   ****             else if(procent_d > 100)
 506              		.loc 1 145 0
 507 00b8 201C     		mov	r0, r4
 508 00ba 291C     		mov	r1, r5
 509 00bc 0022     		mov	r2, #0
 510 00be 144B     		ldr	r3, .L35+36
 511 00c0 FFF7FEFF 		bl	__aeabi_dcmpgt
 512              	.LVL63:
 513 00c4 0028     		cmp	r0, #0
 514 00c6 03D1     		bne	.L34
 515 00c8 04E0     		b	.L30
 516              	.L33:
 143:.\sensors.c   ****             }
 517              		.loc 1 143 0
 518 00ca 0024     		mov	r4, #0
 519              	.LVL64:
 520 00cc 0025     		mov	r5, #0
 521 00ce 01E0     		b	.L30
 522              	.LVL65:
 523              	.L34:
 146:.\sensors.c   ****             {
 147:.\sensors.c   ****                 procent_d = 100;   
 524              		.loc 1 147 0
 525 00d0 0024     		mov	r4, #0
 526              	.LVL66:
 527 00d2 0F4D     		ldr	r5, .L35+36
 528              	.L30:
 529              	.LVL67:
ARM GAS  C:\temp\ccY39PSX.s 			page 13


 148:.\sensors.c   ****             }
 149:.\sensors.c   ****             
 150:.\sensors.c   ****             int16 procent = (int16)procent_d;
 530              		.loc 1 150 0
 531 00d4 201C     		mov	r0, r4
 532 00d6 291C     		mov	r1, r5
 533 00d8 FFF7FEFF 		bl	__aeabi_d2iz
 534              	.LVL68:
 151:.\sensors.c   ****             
 152:.\sensors.c   ****             /*sprintf(bufchar, "max = %d\n\rmin = %d\n\rpp = %d mV\n\rprocent = %d %%\n\n\r", max, 
 153:.\sensors.c   ****             
 154:.\sensors.c   ****             UART_1_UartPutString(bufchar);
 155:.\sensors.c   ****             CyDelay(1000);*/
 156:.\sensors.c   ****             waterlevel_ptr=0;
 535              		.loc 1 156 0
 536 00dc 034B     		ldr	r3, .L35
 537 00de 0022     		mov	r2, #0
 538 00e0 5A70     		strb	r2, [r3, #1]
 157:.\sensors.c   ****             
 158:.\sensors.c   ****             procent_waterlevel = procent;
 539              		.loc 1 158 0
 540 00e2 1881     		strh	r0, [r3, #8]
 541              	.LVL69:
 542              	.L24:
 543              	.LBE3:
 159:.\sensors.c   ****                         
 160:.\sensors.c   ****         }
 161:.\sensors.c   ****         
 162:.\sensors.c   ****     return procent_waterlevel;
 544              		.loc 1 162 0
 545 00e4 014B     		ldr	r3, .L35
 546 00e6 0820     		mov	r0, #8
 547 00e8 185E     		ldrsh	r0, [r3, r0]
 163:.\sensors.c   **** }
 548              		.loc 1 163 0
 549              		@ sp needed
 550 00ea 38BD     		pop	{r3, r4, r5, pc}
 551              	.L36:
 552              		.align	2
 553              	.L35:
 554 00ec 00000000 		.word	.LANCHOR0
 555 00f0 00000000 		.word	waterlevel
 556 00f4 26030000 		.word	806
 557 00f8 5C040000 		.word	1116
 558 00fc 00408F40 		.word	1083129856
 559 0100 7DCEDDAE 		.word	-1361195395
 560 0104 97A6CCBF 		.word	-1077107049
 561 0108 98C0ADBB 		.word	-1146240872
 562 010c 79AAE23F 		.word	1071819385
 563 0110 00005940 		.word	1079574528
 564 0114 D8BB3FDE 		.word	-566248488
 565 0118 AB56F1BF 		.word	-1074702677
 566 011c C39E76F8 		.word	-126443837
 567 0120 6BB2F83F 		.word	1073263211
 568              		.cfi_endproc
 569              	.LFE35:
 570              		.size	get_waterlevel, .-get_waterlevel
ARM GAS  C:\temp\ccY39PSX.s 			page 14


 571              		.section	.text.get_temp,"ax",%progbits
 572              		.align	2
 573              		.global	get_temp
 574              		.code	16
 575              		.thumb_func
 576              		.type	get_temp, %function
 577              	get_temp:
 578              	.LFB36:
 164:.\sensors.c   **** 
 165:.\sensors.c   **** int16 get_temp(void)
 166:.\sensors.c   **** {
 579              		.loc 1 166 0
 580              		.cfi_startproc
 581 0000 08B5     		push	{r3, lr}
 582              		.cfi_def_cfa_offset 8
 583              		.cfi_offset 3, -8
 584              		.cfi_offset 14, -4
 167:.\sensors.c   ****     if(temperature_ptr == 8u)
 585              		.loc 1 167 0
 586 0002 134B     		ldr	r3, .L44
 587 0004 9B78     		ldrb	r3, [r3, #2]
 588 0006 082B     		cmp	r3, #8
 589 0008 08D0     		beq	.L42
 168:.\sensors.c   ****         {
 169:.\sensors.c   ****             
 170:.\sensors.c   ****             int16 temp_avg=0;
 171:.\sensors.c   ****             int i;
 172:.\sensors.c   ****             for(i = 0; i < 8; i++)
 173:.\sensors.c   ****             {
 174:.\sensors.c   ****                  temp_avg=temp_avg+temperature[i];
 175:.\sensors.c   ****             }
 176:.\sensors.c   ****             
 177:.\sensors.c   ****             temp_avg=(temp_avg>>3u);
 178:.\sensors.c   ****             
 179:.\sensors.c   ****             char temp_data[50];
 180:.\sensors.c   ****             
 181:.\sensors.c   ****             // omregning af temperatur. 
 182:.\sensors.c   ****             temp_avg=(temp_avg-1650)*0.014;
 183:.\sensors.c   ****             // 1.65V som svare til 0 grader trækkes fra og forstærkning gange på for at få temp
 184:.\sensors.c   ****         
 185:.\sensors.c   ****             /* //til test af sensorer
 186:.\sensors.c   ****             sprintf(temp_data, "temperature = %d \n\r",temp_avg);
 187:.\sensors.c   ****             UART_1_UartPutString(temp_data);
 188:.\sensors.c   ****             CyDelay(1000);
 189:.\sensors.c   ****             */
 190:.\sensors.c   ****             
 191:.\sensors.c   ****             temperature_ptr=0u;
 192:.\sensors.c   ****             
 193:.\sensors.c   ****             if(temp_avg < 0)
 194:.\sensors.c   ****                 temp_avg = 0;
 195:.\sensors.c   ****             
 196:.\sensors.c   ****             return temp_avg;
 197:.\sensors.c   ****             
 198:.\sensors.c   ****         }
 199:.\sensors.c   ****         return 0; 
 590              		.loc 1 199 0
 591 000a 0020     		mov	r0, #0
ARM GAS  C:\temp\ccY39PSX.s 			page 15


 592 000c 1EE0     		b	.L39
 593              	.LVL70:
 594              	.L40:
 595              	.LBB4:
 174:.\sensors.c   ****             }
 596              		.loc 1 174 0 discriminator 3
 597 000e 5000     		lsl	r0, r2, #1
 598 0010 1049     		ldr	r1, .L44+4
 599 0012 415A     		ldrh	r1, [r0, r1]
 600 0014 CB18     		add	r3, r1, r3
 601              	.LVL71:
 602 0016 9BB2     		uxth	r3, r3
 603              	.LVL72:
 172:.\sensors.c   ****             {
 604              		.loc 1 172 0 discriminator 3
 605 0018 0132     		add	r2, r2, #1
 606              	.LVL73:
 607 001a 01E0     		b	.L38
 608              	.LVL74:
 609              	.L42:
 610              	.LBE4:
 611 001c 0022     		mov	r2, #0
 612 001e 0023     		mov	r3, #0
 613              	.L38:
 614              	.LVL75:
 615              	.LBB5:
 172:.\sensors.c   ****             {
 616              		.loc 1 172 0 is_stmt 0 discriminator 1
 617 0020 072A     		cmp	r2, #7
 618 0022 F4DD     		ble	.L40
 177:.\sensors.c   ****             
 619              		.loc 1 177 0 is_stmt 1
 620 0024 18B2     		sxth	r0, r3
 621              	.LVL76:
 182:.\sensors.c   ****             // 1.65V som svare til 0 grader trækkes fra og forstærkning gange på for at få temp
 622              		.loc 1 182 0
 623 0026 C310     		asr	r3, r0, #3
 624 0028 0B4A     		ldr	r2, .L44+8
 625              	.LVL77:
 626 002a 9818     		add	r0, r3, r2
 627              	.LVL78:
 628 002c FFF7FEFF 		bl	__aeabi_i2d
 629              	.LVL79:
 630 0030 0A4A     		ldr	r2, .L44+12
 631 0032 0B4B     		ldr	r3, .L44+16
 632 0034 FFF7FEFF 		bl	__aeabi_dmul
 633              	.LVL80:
 634 0038 FFF7FEFF 		bl	__aeabi_d2iz
 635              	.LVL81:
 636 003c 031C     		mov	r3, r0
 637              	.LVL82:
 191:.\sensors.c   ****             
 638              		.loc 1 191 0
 639 003e 0021     		mov	r1, #0
 640 0040 034A     		ldr	r2, .L44
 641 0042 9170     		strb	r1, [r2, #2]
 193:.\sensors.c   ****                 temp_avg = 0;
ARM GAS  C:\temp\ccY39PSX.s 			page 16


 642              		.loc 1 193 0
 643 0044 80B2     		uxth	r0, r0
 644 0046 1B04     		lsl	r3, r3, #16
 645 0048 00D5     		bpl	.L39
 194:.\sensors.c   ****             
 646              		.loc 1 194 0
 647 004a 0020     		mov	r0, #0
 648              	.LVL83:
 649              	.L39:
 650 004c 00B2     		sxth	r0, r0
 651              	.LBE5:
 200:.\sensors.c   **** }
 652              		.loc 1 200 0 discriminator 1
 653              		@ sp needed
 654 004e 08BD     		pop	{r3, pc}
 655              	.L45:
 656              		.align	2
 657              	.L44:
 658 0050 00000000 		.word	.LANCHOR0
 659 0054 00000000 		.word	temperature
 660 0058 8EF9FFFF 		.word	-1650
 661 005c 79E92631 		.word	824633721
 662 0060 08AC8C3F 		.word	1066183688
 663              		.cfi_endproc
 664              	.LFE36:
 665              		.size	get_temp, .-get_temp
 666              		.section	.text.get_batterylevel,"ax",%progbits
 667              		.align	2
 668              		.global	get_batterylevel
 669              		.code	16
 670              		.thumb_func
 671              		.type	get_batterylevel, %function
 672              	get_batterylevel:
 673              	.LFB37:
 201:.\sensors.c   **** 
 202:.\sensors.c   **** int16   get_batterylevel(void)
 203:.\sensors.c   **** {
 674              		.loc 1 203 0
 675              		.cfi_startproc
 204:.\sensors.c   ****      if(batterylevel_ptr == 8u)
 676              		.loc 1 204 0
 677 0000 284B     		ldr	r3, .L62
 678 0002 DB78     		ldrb	r3, [r3, #3]
 679 0004 082B     		cmp	r3, #8
 680 0006 08D0     		beq	.L51
 205:.\sensors.c   ****         {
 206:.\sensors.c   ****    
 207:.\sensors.c   ****             int16 battery_avg=0;
 208:.\sensors.c   ****             int i;
 209:.\sensors.c   ****             for(i = 1; i < 8; i++)
 210:.\sensors.c   ****             {
 211:.\sensors.c   ****                  battery_avg=battery_avg+batterylevel[i];
 212:.\sensors.c   ****             }
 213:.\sensors.c   ****             
 214:.\sensors.c   ****             battery_avg=(battery_avg>>3u);
 215:.\sensors.c   ****           
 216:.\sensors.c   ****         
ARM GAS  C:\temp\ccY39PSX.s 			page 17


 217:.\sensors.c   ****             char battery_data[50];
 218:.\sensors.c   ****             
 219:.\sensors.c   ****            
 220:.\sensors.c   ****             //batteri styringen går fra 3.3V ved fuld opladt batteri til 2.7 diff 600mV
 221:.\sensors.c   ****             int16 battery_pro=0;
 222:.\sensors.c   ****             battery_avg=battery_avg+1970;
 223:.\sensors.c   ****          
 224:.\sensors.c   ****             
 225:.\sensors.c   ****             if(battery_avg > 3300)
 226:.\sensors.c   ****             {
 227:.\sensors.c   ****                 battery_pro=100;
 228:.\sensors.c   ****             }
 229:.\sensors.c   ****             else if(battery_avg > 3240)
 230:.\sensors.c   ****             {
 231:.\sensors.c   ****                 battery_pro=90;
 232:.\sensors.c   ****             }
 233:.\sensors.c   ****             else if(battery_avg > 3180)
 234:.\sensors.c   ****             {
 235:.\sensors.c   ****                 battery_pro=80;
 236:.\sensors.c   ****             }
 237:.\sensors.c   ****             else if(battery_avg > 3120)
 238:.\sensors.c   ****             {
 239:.\sensors.c   ****                 battery_pro=70;
 240:.\sensors.c   ****             }
 241:.\sensors.c   ****             else if(battery_avg > 3060)
 242:.\sensors.c   ****             {
 243:.\sensors.c   ****                 battery_pro=60;
 244:.\sensors.c   ****             }
 245:.\sensors.c   ****             else if(battery_avg > 3000)
 246:.\sensors.c   ****             {
 247:.\sensors.c   ****                 battery_pro=50;
 248:.\sensors.c   ****             }
 249:.\sensors.c   ****             else if(battery_avg > 2940)
 250:.\sensors.c   ****             {
 251:.\sensors.c   ****                 battery_pro=40;
 252:.\sensors.c   ****             }
 253:.\sensors.c   ****             else if(battery_avg > 2880)
 254:.\sensors.c   ****             {
 255:.\sensors.c   ****                 battery_pro=30;
 256:.\sensors.c   ****             }
 257:.\sensors.c   ****             else if(battery_avg > 2820)
 258:.\sensors.c   ****             {
 259:.\sensors.c   ****                 battery_pro=20;
 260:.\sensors.c   ****             }
 261:.\sensors.c   ****             else if(battery_avg > 2760)
 262:.\sensors.c   ****             {
 263:.\sensors.c   ****                 battery_pro=10;
 264:.\sensors.c   ****             }
 265:.\sensors.c   ****             else
 266:.\sensors.c   ****             {
 267:.\sensors.c   ****                 battery_pro=5;
 268:.\sensors.c   ****             }
 269:.\sensors.c   ****            
 270:.\sensors.c   ****           
 271:.\sensors.c   ****             /* //til test af sensorer
 272:.\sensors.c   ****             sprintf(battery_data, "batteri niveau = %d\n\r", battery_pro);
 273:.\sensors.c   ****             UART_1_UartPutString(battery_data);
ARM GAS  C:\temp\ccY39PSX.s 			page 18


 274:.\sensors.c   ****             CyDelay(1000);
 275:.\sensors.c   ****             */
 276:.\sensors.c   ****             
 277:.\sensors.c   ****             batterylevel_ptr=0;
 278:.\sensors.c   ****             return battery_pro;
 279:.\sensors.c   ****             
 280:.\sensors.c   ****         }
 281:.\sensors.c   ****         return 0; 
 681              		.loc 1 281 0
 682 0008 0020     		mov	r0, #0
 683 000a 48E0     		b	.L48
 684              	.LVL84:
 685              	.L49:
 686              	.LBB6:
 211:.\sensors.c   ****             }
 687              		.loc 1 211 0 discriminator 3
 688 000c 5000     		lsl	r0, r2, #1
 689 000e 2649     		ldr	r1, .L62+4
 690 0010 415A     		ldrh	r1, [r0, r1]
 691 0012 CB18     		add	r3, r1, r3
 692              	.LVL85:
 693 0014 9BB2     		uxth	r3, r3
 694              	.LVL86:
 209:.\sensors.c   ****             {
 695              		.loc 1 209 0 discriminator 3
 696 0016 0132     		add	r2, r2, #1
 697              	.LVL87:
 698 0018 01E0     		b	.L47
 699              	.LVL88:
 700              	.L51:
 701              	.LBE6:
 702 001a 0122     		mov	r2, #1
 703 001c 0023     		mov	r3, #0
 704              	.L47:
 705              	.LVL89:
 706              	.LBB7:
 209:.\sensors.c   ****             {
 707              		.loc 1 209 0 is_stmt 0 discriminator 1
 708 001e 072A     		cmp	r2, #7
 709 0020 F4DD     		ble	.L49
 214:.\sensors.c   ****           
 710              		.loc 1 214 0 is_stmt 1
 711 0022 1BB2     		sxth	r3, r3
 712 0024 DB10     		asr	r3, r3, #3
 713              	.LVL90:
 222:.\sensors.c   ****          
 714              		.loc 1 222 0
 715 0026 214A     		ldr	r2, .L62+8
 716              	.LVL91:
 717 0028 9446     		mov	ip, r2
 718 002a 6344     		add	r3, r3, ip
 719              	.LVL92:
 225:.\sensors.c   ****             {
 720              		.loc 1 225 0
 721 002c 9AB2     		uxth	r2, r3
 722 002e 2049     		ldr	r1, .L62+12
 723 0030 8B42     		cmp	r3, r1
ARM GAS  C:\temp\ccY39PSX.s 			page 19


 724 0032 1EDC     		bgt	.L52
 229:.\sensors.c   ****             {
 725              		.loc 1 229 0
 726 0034 13B2     		sxth	r3, r2
 727              	.LVL93:
 728 0036 1F49     		ldr	r1, .L62+16
 729 0038 8B42     		cmp	r3, r1
 730 003a 1CDC     		bgt	.L53
 233:.\sensors.c   ****             {
 731              		.loc 1 233 0
 732 003c 1E49     		ldr	r1, .L62+20
 733 003e 8B42     		cmp	r3, r1
 734 0040 1BDC     		bgt	.L54
 237:.\sensors.c   ****             {
 735              		.loc 1 237 0
 736 0042 3C39     		sub	r1, r1, #60
 737 0044 8B42     		cmp	r3, r1
 738 0046 1ADC     		bgt	.L55
 241:.\sensors.c   ****             {
 739              		.loc 1 241 0
 740 0048 1C49     		ldr	r1, .L62+24
 741 004a 8B42     		cmp	r3, r1
 742 004c 19DC     		bgt	.L56
 245:.\sensors.c   ****             {
 743              		.loc 1 245 0
 744 004e 1C49     		ldr	r1, .L62+28
 745 0050 8B42     		cmp	r3, r1
 746 0052 18DC     		bgt	.L57
 249:.\sensors.c   ****             {
 747              		.loc 1 249 0
 748 0054 1B49     		ldr	r1, .L62+32
 749 0056 8B42     		cmp	r3, r1
 750 0058 17DC     		bgt	.L58
 253:.\sensors.c   ****             {
 751              		.loc 1 253 0
 752 005a 3C39     		sub	r1, r1, #60
 753 005c 8B42     		cmp	r3, r1
 754 005e 16DC     		bgt	.L59
 257:.\sensors.c   ****             {
 755              		.loc 1 257 0
 756 0060 1949     		ldr	r1, .L62+36
 757 0062 8B42     		cmp	r3, r1
 758 0064 15DC     		bgt	.L60
 261:.\sensors.c   ****             {
 759              		.loc 1 261 0
 760 0066 1A1E     		sub	r2, r3, #0
 761              	.LVL94:
 762 0068 184B     		ldr	r3, .L62+40
 763 006a 9A42     		cmp	r2, r3
 764 006c 13DD     		ble	.L61
 263:.\sensors.c   ****             }
 765              		.loc 1 263 0
 766 006e 0A20     		mov	r0, #10
 767 0070 12E0     		b	.L50
 768              	.LVL95:
 769              	.L52:
 227:.\sensors.c   ****             }
ARM GAS  C:\temp\ccY39PSX.s 			page 20


 770              		.loc 1 227 0
 771 0072 6420     		mov	r0, #100
 772 0074 10E0     		b	.L50
 773              	.LVL96:
 774              	.L53:
 231:.\sensors.c   ****             }
 775              		.loc 1 231 0
 776 0076 5A20     		mov	r0, #90
 777 0078 0EE0     		b	.L50
 778              	.L54:
 235:.\sensors.c   ****             }
 779              		.loc 1 235 0
 780 007a 5020     		mov	r0, #80
 781 007c 0CE0     		b	.L50
 782              	.L55:
 239:.\sensors.c   ****             }
 783              		.loc 1 239 0
 784 007e 4620     		mov	r0, #70
 785 0080 0AE0     		b	.L50
 786              	.L56:
 243:.\sensors.c   ****             }
 787              		.loc 1 243 0
 788 0082 3C20     		mov	r0, #60
 789 0084 08E0     		b	.L50
 790              	.L57:
 247:.\sensors.c   ****             }
 791              		.loc 1 247 0
 792 0086 3220     		mov	r0, #50
 793 0088 06E0     		b	.L50
 794              	.L58:
 251:.\sensors.c   ****             }
 795              		.loc 1 251 0
 796 008a 2820     		mov	r0, #40
 797 008c 04E0     		b	.L50
 798              	.L59:
 255:.\sensors.c   ****             }
 799              		.loc 1 255 0
 800 008e 1E20     		mov	r0, #30
 801 0090 02E0     		b	.L50
 802              	.L60:
 259:.\sensors.c   ****             }
 803              		.loc 1 259 0
 804 0092 1420     		mov	r0, #20
 805 0094 00E0     		b	.L50
 806              	.LVL97:
 807              	.L61:
 267:.\sensors.c   ****             }
 808              		.loc 1 267 0
 809 0096 0520     		mov	r0, #5
 810              	.L50:
 811              	.LVL98:
 277:.\sensors.c   ****             return battery_pro;
 812              		.loc 1 277 0
 813 0098 0022     		mov	r2, #0
 814 009a 024B     		ldr	r3, .L62
 815 009c DA70     		strb	r2, [r3, #3]
 816              	.LVL99:
ARM GAS  C:\temp\ccY39PSX.s 			page 21


 817              	.L48:
 818 009e 00B2     		sxth	r0, r0
 819              	.LBE7:
 282:.\sensors.c   **** 
 283:.\sensors.c   **** 
 284:.\sensors.c   **** }
 820              		.loc 1 284 0 discriminator 1
 821              		@ sp needed
 822 00a0 7047     		bx	lr
 823              	.L63:
 824 00a2 C046     		.align	2
 825              	.L62:
 826 00a4 00000000 		.word	.LANCHOR0
 827 00a8 00000000 		.word	batterylevel
 828 00ac B2070000 		.word	1970
 829 00b0 E40C0000 		.word	3300
 830 00b4 A80C0000 		.word	3240
 831 00b8 6C0C0000 		.word	3180
 832 00bc F40B0000 		.word	3060
 833 00c0 B80B0000 		.word	3000
 834 00c4 7C0B0000 		.word	2940
 835 00c8 040B0000 		.word	2820
 836 00cc C80A0000 		.word	2760
 837              		.cfi_endproc
 838              	.LFE37:
 839              		.size	get_batterylevel, .-get_batterylevel
 840              		.section	.text.get_lightlevel,"ax",%progbits
 841              		.align	2
 842              		.global	get_lightlevel
 843              		.code	16
 844              		.thumb_func
 845              		.type	get_lightlevel, %function
 846              	get_lightlevel:
 847              	.LFB38:
 285:.\sensors.c   **** 
 286:.\sensors.c   **** int16 get_lightlevel(void)
 287:.\sensors.c   **** {
 848              		.loc 1 287 0
 849              		.cfi_startproc
 288:.\sensors.c   ****     if(lightlevel_ptr == 8u)
 850              		.loc 1 288 0
 851 0000 344B     		ldr	r3, .L85
 852 0002 1B79     		ldrb	r3, [r3, #4]
 853 0004 082B     		cmp	r3, #8
 854 0006 08D0     		beq	.L69
 289:.\sensors.c   ****         {
 290:.\sensors.c   ****             int16 light_avg=0;
 291:.\sensors.c   ****             int i;
 292:.\sensors.c   ****             for(i = 0; i < 8; i++)
 293:.\sensors.c   ****             {
 294:.\sensors.c   ****                  light_avg=light_avg+lightlevel[i];
 295:.\sensors.c   ****             }
 296:.\sensors.c   ****             
 297:.\sensors.c   ****             light_avg=(light_avg>>3u);
 298:.\sensors.c   ****           
 299:.\sensors.c   ****             //Lys level går fra 3.3V ved 10000 Lux til 0 ved under 200mV. 
 300:.\sensors.c   ****             int16 lightLux = 0;
ARM GAS  C:\temp\ccY39PSX.s 			page 22


 301:.\sensors.c   ****             
 302:.\sensors.c   ****             //ref modstand 500Ohm.
 303:.\sensors.c   ****             if(light_avg <= 0)
 304:.\sensors.c   ****                 lightLux = 0;
 305:.\sensors.c   ****             else if(light_avg <= 228)
 306:.\sensors.c   ****                 lightLux = 1;
 307:.\sensors.c   ****             else if(light_avg <= 723)
 308:.\sensors.c   ****                 lightLux = 5;
 309:.\sensors.c   ****             else if(light_avg <= 1096)
 310:.\sensors.c   ****                 lightLux = 10;
 311:.\sensors.c   ****             else if(light_avg <= 2153)
 312:.\sensors.c   ****                 lightLux = 50;
 313:.\sensors.c   ****             else if(light_avg <= 2535)
 314:.\sensors.c   ****                 lightLux = 100;
 315:.\sensors.c   ****             else if(light_avg <= 2716)
 316:.\sensors.c   ****                 lightLux = 150;
 317:.\sensors.c   ****             else if(light_avg <= 2822)
 318:.\sensors.c   ****                 lightLux = 200;
 319:.\sensors.c   ****             else if(light_avg <= 2892)
 320:.\sensors.c   ****                 lightLux = 250;
 321:.\sensors.c   ****             else if(light_avg <= 2942)
 322:.\sensors.c   ****                 lightLux = 300;
 323:.\sensors.c   ****             else if(light_avg <= 3011)
 324:.\sensors.c   ****                 lightLux = 400;
 325:.\sensors.c   ****             else if(light_avg <= 3057)
 326:.\sensors.c   ****                 lightLux = 500;
 327:.\sensors.c   ****             else if(light_avg <= 3089)
 328:.\sensors.c   ****                 lightLux = 600;
 329:.\sensors.c   ****             else if(light_avg <= 3122)
 330:.\sensors.c   ****                 lightLux = 750;
 331:.\sensors.c   ****             else if(light_avg <= 3300)
 332:.\sensors.c   ****                 lightLux = 999;
 333:.\sensors.c   ****             
 334:.\sensors.c   ****             
 335:.\sensors.c   ****             // Behandling af målt avg til et lys niveau eller spænding
 336:.\sensors.c   **** 
 337:.\sensors.c   ****             /* //til test af sensorer
 338:.\sensors.c   ****             sprintf(light_data, "lys niveau i volt = %d\n\r", light_avg);
 339:.\sensors.c   ****             UART_1_UartPutString(light_data);
 340:.\sensors.c   ****             CyDelay(1000);
 341:.\sensors.c   ****             */
 342:.\sensors.c   ****             
 343:.\sensors.c   ****             lightlevel_ptr=0;
 344:.\sensors.c   ****             return lightLux;
 345:.\sensors.c   ****         }
 346:.\sensors.c   ****         return 0; 
 855              		.loc 1 346 0
 856 0008 0020     		mov	r0, #0
 857 000a 61E0     		b	.L66
 858              	.LVL100:
 859              	.L67:
 860              	.LBB8:
 294:.\sensors.c   ****             }
 861              		.loc 1 294 0 discriminator 3
 862 000c 5000     		lsl	r0, r2, #1
 863 000e 3249     		ldr	r1, .L85+4
 864 0010 415A     		ldrh	r1, [r0, r1]
ARM GAS  C:\temp\ccY39PSX.s 			page 23


 865 0012 CB18     		add	r3, r1, r3
 866              	.LVL101:
 867 0014 9BB2     		uxth	r3, r3
 868              	.LVL102:
 292:.\sensors.c   ****             {
 869              		.loc 1 292 0 discriminator 3
 870 0016 0132     		add	r2, r2, #1
 871              	.LVL103:
 872 0018 01E0     		b	.L65
 873              	.LVL104:
 874              	.L69:
 875              	.LBE8:
 876 001a 0022     		mov	r2, #0
 877 001c 0023     		mov	r3, #0
 878              	.L65:
 879              	.LVL105:
 880              	.LBB9:
 292:.\sensors.c   ****             {
 881              		.loc 1 292 0 is_stmt 0 discriminator 1
 882 001e 072A     		cmp	r2, #7
 883 0020 F4DD     		ble	.L67
 297:.\sensors.c   ****           
 884              		.loc 1 297 0 is_stmt 1
 885 0022 1BB2     		sxth	r3, r3
 886 0024 DB10     		asr	r3, r3, #3
 887              	.LVL106:
 303:.\sensors.c   ****                 lightLux = 0;
 888              		.loc 1 303 0
 889 0026 9AB2     		uxth	r2, r3
 890              	.LVL107:
 891 0028 002B     		cmp	r3, #0
 892 002a 2DDD     		ble	.L70
 305:.\sensors.c   ****                 lightLux = 1;
 893              		.loc 1 305 0
 894 002c 13B2     		sxth	r3, r2
 895              	.LVL108:
 896 002e E42B     		cmp	r3, #228
 897 0030 2CDD     		ble	.L71
 307:.\sensors.c   ****                 lightLux = 5;
 898              		.loc 1 307 0
 899 0032 2A49     		ldr	r1, .L85+8
 900 0034 8B42     		cmp	r3, r1
 901 0036 2BDD     		ble	.L72
 309:.\sensors.c   ****                 lightLux = 10;
 902              		.loc 1 309 0
 903 0038 7631     		add	r1, r1, #118
 904 003a FF31     		add	r1, r1, #255
 905 003c 8B42     		cmp	r3, r1
 906 003e 29DD     		ble	.L73
 311:.\sensors.c   ****                 lightLux = 50;
 907              		.loc 1 311 0
 908 0040 2749     		ldr	r1, .L85+12
 909 0042 8B42     		cmp	r3, r1
 910 0044 28DD     		ble	.L74
 313:.\sensors.c   ****                 lightLux = 100;
 911              		.loc 1 313 0
 912 0046 2749     		ldr	r1, .L85+16
ARM GAS  C:\temp\ccY39PSX.s 			page 24


 913 0048 8B42     		cmp	r3, r1
 914 004a 27DD     		ble	.L75
 315:.\sensors.c   ****                 lightLux = 150;
 915              		.loc 1 315 0
 916 004c 2649     		ldr	r1, .L85+20
 917 004e 8B42     		cmp	r3, r1
 918 0050 26DD     		ble	.L76
 317:.\sensors.c   ****                 lightLux = 200;
 919              		.loc 1 317 0
 920 0052 2649     		ldr	r1, .L85+24
 921 0054 8B42     		cmp	r3, r1
 922 0056 25DD     		ble	.L77
 319:.\sensors.c   ****                 lightLux = 250;
 923              		.loc 1 319 0
 924 0058 2549     		ldr	r1, .L85+28
 925 005a 8B42     		cmp	r3, r1
 926 005c 24DD     		ble	.L78
 321:.\sensors.c   ****                 lightLux = 300;
 927              		.loc 1 321 0
 928 005e 2549     		ldr	r1, .L85+32
 929 0060 8B42     		cmp	r3, r1
 930 0062 23DD     		ble	.L79
 323:.\sensors.c   ****                 lightLux = 400;
 931              		.loc 1 323 0
 932 0064 2449     		ldr	r1, .L85+36
 933 0066 8B42     		cmp	r3, r1
 934 0068 23DD     		ble	.L80
 325:.\sensors.c   ****                 lightLux = 500;
 935              		.loc 1 325 0
 936 006a 2449     		ldr	r1, .L85+40
 937 006c 8B42     		cmp	r3, r1
 938 006e 23DD     		ble	.L81
 327:.\sensors.c   ****                 lightLux = 600;
 939              		.loc 1 327 0
 940 0070 2349     		ldr	r1, .L85+44
 941 0072 8B42     		cmp	r3, r1
 942 0074 23DD     		ble	.L82
 329:.\sensors.c   ****                 lightLux = 750;
 943              		.loc 1 329 0
 944 0076 2349     		ldr	r1, .L85+48
 945 0078 8B42     		cmp	r3, r1
 946 007a 23DD     		ble	.L83
 331:.\sensors.c   ****                 lightLux = 999;
 947              		.loc 1 331 0
 948 007c 1A1E     		sub	r2, r3, #0
 949              	.LVL109:
 950 007e 224B     		ldr	r3, .L85+52
 951 0080 9A42     		cmp	r2, r3
 952 0082 21DD     		ble	.L84
 300:.\sensors.c   ****             
 953              		.loc 1 300 0
 954 0084 0020     		mov	r0, #0
 955 0086 20E0     		b	.L68
 956              	.LVL110:
 957              	.L70:
 304:.\sensors.c   ****             else if(light_avg <= 228)
 958              		.loc 1 304 0
ARM GAS  C:\temp\ccY39PSX.s 			page 25


 959 0088 0020     		mov	r0, #0
 960 008a 1EE0     		b	.L68
 961              	.LVL111:
 962              	.L71:
 306:.\sensors.c   ****             else if(light_avg <= 723)
 963              		.loc 1 306 0
 964 008c 0120     		mov	r0, #1
 965 008e 1CE0     		b	.L68
 966              	.L72:
 308:.\sensors.c   ****             else if(light_avg <= 1096)
 967              		.loc 1 308 0
 968 0090 0520     		mov	r0, #5
 969 0092 1AE0     		b	.L68
 970              	.L73:
 310:.\sensors.c   ****             else if(light_avg <= 2153)
 971              		.loc 1 310 0
 972 0094 0A20     		mov	r0, #10
 973 0096 18E0     		b	.L68
 974              	.L74:
 312:.\sensors.c   ****             else if(light_avg <= 2535)
 975              		.loc 1 312 0
 976 0098 3220     		mov	r0, #50
 977 009a 16E0     		b	.L68
 978              	.L75:
 314:.\sensors.c   ****             else if(light_avg <= 2716)
 979              		.loc 1 314 0
 980 009c 6420     		mov	r0, #100
 981 009e 14E0     		b	.L68
 982              	.L76:
 316:.\sensors.c   ****             else if(light_avg <= 2822)
 983              		.loc 1 316 0
 984 00a0 9620     		mov	r0, #150
 985 00a2 12E0     		b	.L68
 986              	.L77:
 318:.\sensors.c   ****             else if(light_avg <= 2892)
 987              		.loc 1 318 0
 988 00a4 C820     		mov	r0, #200
 989 00a6 10E0     		b	.L68
 990              	.L78:
 320:.\sensors.c   ****             else if(light_avg <= 2942)
 991              		.loc 1 320 0
 992 00a8 FA20     		mov	r0, #250
 993 00aa 0EE0     		b	.L68
 994              	.L79:
 322:.\sensors.c   ****             else if(light_avg <= 3011)
 995              		.loc 1 322 0
 996 00ac 9620     		mov	r0, #150
 997 00ae 4000     		lsl	r0, r0, #1
 998 00b0 0BE0     		b	.L68
 999              	.L80:
 324:.\sensors.c   ****             else if(light_avg <= 3057)
 1000              		.loc 1 324 0
 1001 00b2 C820     		mov	r0, #200
 1002 00b4 4000     		lsl	r0, r0, #1
 1003 00b6 08E0     		b	.L68
 1004              	.L81:
 326:.\sensors.c   ****             else if(light_avg <= 3089)
ARM GAS  C:\temp\ccY39PSX.s 			page 26


 1005              		.loc 1 326 0
 1006 00b8 FA20     		mov	r0, #250
 1007 00ba 4000     		lsl	r0, r0, #1
 1008 00bc 05E0     		b	.L68
 1009              	.L82:
 328:.\sensors.c   ****             else if(light_avg <= 3122)
 1010              		.loc 1 328 0
 1011 00be 9620     		mov	r0, #150
 1012 00c0 8000     		lsl	r0, r0, #2
 1013 00c2 02E0     		b	.L68
 1014              	.L83:
 330:.\sensors.c   ****             else if(light_avg <= 3300)
 1015              		.loc 1 330 0
 1016 00c4 1148     		ldr	r0, .L85+56
 1017 00c6 00E0     		b	.L68
 1018              	.LVL112:
 1019              	.L84:
 332:.\sensors.c   ****             
 1020              		.loc 1 332 0
 1021 00c8 1148     		ldr	r0, .L85+60
 1022              	.L68:
 1023              	.LVL113:
 343:.\sensors.c   ****             return lightLux;
 1024              		.loc 1 343 0
 1025 00ca 0022     		mov	r2, #0
 1026 00cc 014B     		ldr	r3, .L85
 1027 00ce 1A71     		strb	r2, [r3, #4]
 1028              	.LVL114:
 1029              	.L66:
 1030 00d0 00B2     		sxth	r0, r0
 1031              	.LBE9:
 347:.\sensors.c   **** 
 348:.\sensors.c   **** }
 1032              		.loc 1 348 0
 1033              		@ sp needed
 1034 00d2 7047     		bx	lr
 1035              	.L86:
 1036              		.align	2
 1037              	.L85:
 1038 00d4 00000000 		.word	.LANCHOR0
 1039 00d8 00000000 		.word	lightlevel
 1040 00dc D3020000 		.word	723
 1041 00e0 69080000 		.word	2153
 1042 00e4 E7090000 		.word	2535
 1043 00e8 9C0A0000 		.word	2716
 1044 00ec 060B0000 		.word	2822
 1045 00f0 4C0B0000 		.word	2892
 1046 00f4 7E0B0000 		.word	2942
 1047 00f8 C30B0000 		.word	3011
 1048 00fc F10B0000 		.word	3057
 1049 0100 110C0000 		.word	3089
 1050 0104 320C0000 		.word	3122
 1051 0108 E40C0000 		.word	3300
 1052 010c EE020000 		.word	750
 1053 0110 E7030000 		.word	999
 1054              		.cfi_endproc
 1055              	.LFE38:
ARM GAS  C:\temp\ccY39PSX.s 			page 27


 1056              		.size	get_lightlevel, .-get_lightlevel
 1057              		.global	procent_waterlevel
 1058              		.global	procent_moisture
 1059              		.global	lightlevel_ptr
 1060              		.global	batterylevel_ptr
 1061              		.global	temperature_ptr
 1062              		.global	waterlevel_ptr
 1063              		.global	moisture_ptr
 1064              		.comm	lightlevel,16,4
 1065              		.comm	batterylevel,16,4
 1066              		.comm	temperature,16,4
 1067              		.comm	waterlevel,100,4
 1068              		.comm	moisture,100,4
 1069              		.bss
 1070              		.align	1
 1071              		.set	.LANCHOR0,. + 0
 1072              		.type	moisture_ptr, %object
 1073              		.size	moisture_ptr, 1
 1074              	moisture_ptr:
 1075 0000 00       		.space	1
 1076              		.type	waterlevel_ptr, %object
 1077              		.size	waterlevel_ptr, 1
 1078              	waterlevel_ptr:
 1079 0001 00       		.space	1
 1080              		.type	temperature_ptr, %object
 1081              		.size	temperature_ptr, 1
 1082              	temperature_ptr:
 1083 0002 00       		.space	1
 1084              		.type	batterylevel_ptr, %object
 1085              		.size	batterylevel_ptr, 1
 1086              	batterylevel_ptr:
 1087 0003 00       		.space	1
 1088              		.type	lightlevel_ptr, %object
 1089              		.size	lightlevel_ptr, 1
 1090              	lightlevel_ptr:
 1091 0004 00       		.space	1
 1092 0005 00       		.space	1
 1093              		.type	procent_moisture, %object
 1094              		.size	procent_moisture, 2
 1095              	procent_moisture:
 1096 0006 0000     		.space	2
 1097              		.type	procent_waterlevel, %object
 1098              		.size	procent_waterlevel, 2
 1099              	procent_waterlevel:
 1100 0008 0000     		.space	2
 1101              		.text
 1102              	.Letext0:
 1103              		.file 2 "Generated_Source\\PSoC4/cytypes.h"
 1104              		.file 3 "./sensors.h"
 1105              		.file 4 "Generated_Source\\PSoC4/ADC_SAR_Seq_1.h"