ARM GAS  C:\temp\ccfmIfoz.s 			page 1


   1              		.cpu cortex-m0
   2              		.fpu softvfp
   3              		.eabi_attribute 20, 1
   4              		.eabi_attribute 21, 1
   5              		.eabi_attribute 23, 3
   6              		.eabi_attribute 24, 1
   7              		.eabi_attribute 25, 1
   8              		.eabi_attribute 26, 1
   9              		.eabi_attribute 30, 1
  10              		.eabi_attribute 34, 0
  11              		.eabi_attribute 18, 4
  12              		.code	16
  13              		.file	"wifi.c"
  14              		.text
  15              	.Ltext0:
  16              		.cfi_sections	.debug_frame
  17              		.section	.text.updateBuf,"ax",%progbits
  18              		.align	2
  19              		.global	updateBuf
  20              		.code	16
  21              		.thumb_func
  22              		.type	updateBuf, %function
  23              	updateBuf:
  24              	.LFB34:
  25              		.file 1 ".\\wifi.c"
   1:.\wifi.c      **** ///* ========================================
   2:.\wifi.c      **** // *
   3:.\wifi.c      **** // * Copyright YOUR COMPANY, THE YEAR
   4:.\wifi.c      **** // * All Rights Reserved
   5:.\wifi.c      **** // * UNPUBLISHED, LICENSED SOFTWARE.
   6:.\wifi.c      **** // *
   7:.\wifi.c      **** // * CONFIDENTIAL AND PROPRIETARY INFORMATION
   8:.\wifi.c      **** // * WHICH IS THE PROPERTY OF your company.
   9:.\wifi.c      **** // *
  10:.\wifi.c      **** // * ========================================
  11:.\wifi.c      **** //*/
  12:.\wifi.c      **** 
  13:.\wifi.c      **** #include <stdio.h>
  14:.\wifi.c      **** #include <stdlib.h>
  15:.\wifi.c      **** #include "wifi.h"
  16:.\wifi.c      **** 
  17:.\wifi.c      **** /***********************************DIVERSE GLOBALE VARIABLER********************************/
  18:.\wifi.c      **** uint8 RXnewData;                            //Benyttes til ISR - '1' hvis der er data i RX bufferen
  19:.\wifi.c      **** uint8 stringRX_len = 0;                     //Længde af RX buffer
  20:.\wifi.c      **** char stringRX[255] = {0};                   //RX buffer til interrupts
  21:.\wifi.c      **** char uartString[255] = {0};                 //string som UARTen benytter til at modtage / har modta
  22:.\wifi.c      **** uint8 plantID = '-';                        //Pottens ID / PSoC ID - Sættes til '-' for at teste o
  23:.\wifi.c      **** 
  24:.\wifi.c      **** CY_ISR(UART_ISR)
  25:.\wifi.c      **** {
  26:.\wifi.c      ****     updateBuf();
  27:.\wifi.c      **** }
  28:.\wifi.c      **** 
  29:.\wifi.c      **** void updateBuf()
  30:.\wifi.c      **** {
  26              		.loc 1 30 0
  27              		.cfi_startproc
ARM GAS  C:\temp\ccfmIfoz.s 			page 2


  28 0000 38B5     		push	{r3, r4, r5, lr}
  29              		.cfi_def_cfa_offset 16
  30              		.cfi_offset 3, -16
  31              		.cfi_offset 4, -12
  32              		.cfi_offset 5, -8
  33              		.cfi_offset 14, -4
  31:.\wifi.c      ****     if(RXnewData)
  34              		.loc 1 31 0
  35 0002 144B     		ldr	r3, .L7
  36 0004 1B78     		ldrb	r3, [r3]
  37 0006 002B     		cmp	r3, #0
  38 0008 22D1     		bne	.L1
  32:.\wifi.c      ****         return;
  33:.\wifi.c      ****     uint8 size = UART_GetRxBufferSize();
  39              		.loc 1 33 0
  40 000a FFF7FEFF 		bl	UART_GetRxBufferSize
  41              	.LVL0:
  42 000e 051C     		mov	r5, r0
  43              	.LVL1:
  34:.\wifi.c      ****     int i;
  35:.\wifi.c      ****     for(i = 0; i < size + 1; i++)
  44              		.loc 1 35 0
  45 0010 0024     		mov	r4, #0
  46 0012 1AE0     		b	.L3
  47              	.LVL2:
  48              	.L6:
  49              	.LBB2:
  36:.\wifi.c      ****     {
  37:.\wifi.c      ****         char rxdata = (char)UART_ReadRxData();      //læser data fra uarten
  50              		.loc 1 37 0
  51 0014 FFF7FEFF 		bl	UART_ReadRxData
  52              	.LVL3:
  38:.\wifi.c      **** 
  39:.\wifi.c      ****         if(rxdata == 0 || rxdata == '\n' || rxdata == '\r' || stringRX_len == 255)   //hvis der ikk
  53              		.loc 1 39 0
  54 0018 0028     		cmp	r0, #0
  55 001a 07D0     		beq	.L4
  56              		.loc 1 39 0 is_stmt 0 discriminator 1
  57 001c 0A28     		cmp	r0, #10
  58 001e 05D0     		beq	.L4
  59              		.loc 1 39 0 discriminator 2
  60 0020 0D28     		cmp	r0, #13
  61 0022 03D0     		beq	.L4
  62              		.loc 1 39 0 discriminator 3
  63 0024 0C4B     		ldr	r3, .L7+4
  64 0026 1B78     		ldrb	r3, [r3]
  65 0028 FF2B     		cmp	r3, #255
  66 002a 08D1     		bne	.L5
  67              	.L4:
  40:.\wifi.c      ****         {
  41:.\wifi.c      ****             stringRX[stringRX_len] = 0;     //buffer sættes til 0 på index stringRX_len
  68              		.loc 1 41 0 is_stmt 1
  69 002c 0A4A     		ldr	r2, .L7+4
  70 002e 1378     		ldrb	r3, [r2]
  71 0030 D318     		add	r3, r2, r3
  72 0032 0022     		mov	r2, #0
  73 0034 1A71     		strb	r2, [r3, #4]
ARM GAS  C:\temp\ccfmIfoz.s 			page 3


  42:.\wifi.c      ****             RXnewData = 1;                  //RXnewData sættes til 1 for at enable interrupt
  74              		.loc 1 42 0
  75 0036 0132     		add	r2, r2, #1
  76 0038 064B     		ldr	r3, .L7
  77 003a 1A70     		strb	r2, [r3]
  43:.\wifi.c      ****             return;
  78              		.loc 1 43 0
  79 003c 08E0     		b	.L1
  80              	.L5:
  44:.\wifi.c      ****         }
  45:.\wifi.c      ****         
  46:.\wifi.c      ****         stringRX[stringRX_len] = rxdata;    //data fra uarten skrives ind i stringRX med index stri
  81              		.loc 1 46 0 discriminator 2
  82 003e 064A     		ldr	r2, .L7+4
  83 0040 D118     		add	r1, r2, r3
  84 0042 0871     		strb	r0, [r1, #4]
  47:.\wifi.c      ****         stringRX_len++;  
  85              		.loc 1 47 0 discriminator 2
  86 0044 0133     		add	r3, r3, #1
  87 0046 1370     		strb	r3, [r2]
  88              	.LBE2:
  35:.\wifi.c      ****     {
  89              		.loc 1 35 0 discriminator 2
  90 0048 0134     		add	r4, r4, #1
  91              	.LVL4:
  92              	.L3:
  35:.\wifi.c      ****     {
  93              		.loc 1 35 0 is_stmt 0 discriminator 1
  94 004a 6B1C     		add	r3, r5, #1
  95 004c A342     		cmp	r3, r4
  96 004e E1DC     		bgt	.L6
  97              	.LVL5:
  98              	.L1:
  48:.\wifi.c      ****     }
  49:.\wifi.c      **** }
  99              		.loc 1 49 0 is_stmt 1
 100              		@ sp needed
 101 0050 38BD     		pop	{r3, r4, r5, pc}
 102              	.L8:
 103 0052 C046     		.align	2
 104              	.L7:
 105 0054 00000000 		.word	RXnewData
 106 0058 00000000 		.word	.LANCHOR0
 107              		.cfi_endproc
 108              	.LFE34:
 109              		.size	updateBuf, .-updateBuf
 110              		.section	.text.UART_ISR,"ax",%progbits
 111              		.align	2
 112              		.global	UART_ISR
 113              		.code	16
 114              		.thumb_func
 115              		.type	UART_ISR, %function
 116              	UART_ISR:
 117              	.LFB33:
  25:.\wifi.c      ****     updateBuf();
 118              		.loc 1 25 0
 119              		.cfi_startproc
ARM GAS  C:\temp\ccfmIfoz.s 			page 4


 120 0000 08B5     		push	{r3, lr}
 121              		.cfi_def_cfa_offset 8
 122              		.cfi_offset 3, -8
 123              		.cfi_offset 14, -4
  26:.\wifi.c      **** }
 124              		.loc 1 26 0
 125 0002 FFF7FEFF 		bl	updateBuf
 126              	.LVL6:
  27:.\wifi.c      **** 
 127              		.loc 1 27 0
 128              		@ sp needed
 129 0006 08BD     		pop	{r3, pc}
 130              		.cfi_endproc
 131              	.LFE33:
 132              		.size	UART_ISR, .-UART_ISR
 133              		.section	.text.getStringFromUart,"ax",%progbits
 134              		.align	2
 135              		.global	getStringFromUart
 136              		.code	16
 137              		.thumb_func
 138              		.type	getStringFromUart, %function
 139              	getStringFromUart:
 140              	.LFB35:
  50:.\wifi.c      **** 
  51:.\wifi.c      **** char getStringFromUart(char *data)
  52:.\wifi.c      **** {
 141              		.loc 1 52 0
 142              		.cfi_startproc
 143              	.LVL7:
 144 0000 10B5     		push	{r4, lr}
 145              		.cfi_def_cfa_offset 8
 146              		.cfi_offset 4, -8
 147              		.cfi_offset 14, -4
  53:.\wifi.c      ****     uint8 i;
  54:.\wifi.c      ****     
  55:.\wifi.c      ****     if(!RXnewData)
 148              		.loc 1 55 0
 149 0002 114B     		ldr	r3, .L15
 150 0004 1B78     		ldrb	r3, [r3]
 151 0006 002B     		cmp	r3, #0
 152 0008 1CD0     		beq	.L14
 153 000a 041C     		mov	r4, r0
  56:.\wifi.c      ****         return 0;
  57:.\wifi.c      ****     
  58:.\wifi.c      ****     updateBuf();
 154              		.loc 1 58 0
 155 000c FFF7FEFF 		bl	updateBuf
 156              	.LVL8:
  59:.\wifi.c      ****         
  60:.\wifi.c      ****     for(i = 0; i<stringRX_len; i++)     //string fra uarten skrives ind i data
 157              		.loc 1 60 0
 158 0010 0023     		mov	r3, #0
 159 0012 07E0     		b	.L12
 160              	.LVL9:
 161              	.L13:
  61:.\wifi.c      ****     {
  62:.\wifi.c      ****         data[i] = stringRX[i];  
ARM GAS  C:\temp\ccfmIfoz.s 			page 5


 162              		.loc 1 62 0 discriminator 3
 163 0014 0D4A     		ldr	r2, .L15+4
 164 0016 D218     		add	r2, r2, r3
 165 0018 1179     		ldrb	r1, [r2, #4]
 166 001a E154     		strb	r1, [r4, r3]
  63:.\wifi.c      ****         stringRX[i] = 0;
 167              		.loc 1 63 0 discriminator 3
 168 001c 0021     		mov	r1, #0
 169 001e 1171     		strb	r1, [r2, #4]
  60:.\wifi.c      ****     {
 170              		.loc 1 60 0 discriminator 3
 171 0020 0133     		add	r3, r3, #1
 172              	.LVL10:
 173 0022 DBB2     		uxtb	r3, r3
 174              	.LVL11:
 175              	.L12:
  60:.\wifi.c      ****     {
 176              		.loc 1 60 0 is_stmt 0 discriminator 1
 177 0024 094A     		ldr	r2, .L15+4
 178 0026 1278     		ldrb	r2, [r2]
 179 0028 9342     		cmp	r3, r2
 180 002a F3D3     		bcc	.L13
  64:.\wifi.c      ****     }
  65:.\wifi.c      ****     data[stringRX_len] = 0;
 181              		.loc 1 65 0 is_stmt 1
 182 002c A218     		add	r2, r4, r2
 183 002e 0023     		mov	r3, #0
 184              	.LVL12:
 185 0030 1370     		strb	r3, [r2]
  66:.\wifi.c      ****     stringRX_len = 0;
 186              		.loc 1 66 0
 187 0032 064A     		ldr	r2, .L15+4
 188 0034 1370     		strb	r3, [r2]
  67:.\wifi.c      ****     RXnewData = 0;                      //interrupt resettes
 189              		.loc 1 67 0
 190 0036 044A     		ldr	r2, .L15
 191 0038 1370     		strb	r3, [r2]
  68:.\wifi.c      ****     
  69:.\wifi.c      ****     return strlen(data);
 192              		.loc 1 69 0
 193 003a 201C     		mov	r0, r4
 194 003c FFF7FEFF 		bl	strlen
 195              	.LVL13:
 196 0040 C0B2     		uxtb	r0, r0
 197 0042 00E0     		b	.L11
 198              	.LVL14:
 199              	.L14:
  56:.\wifi.c      ****     
 200              		.loc 1 56 0
 201 0044 0020     		mov	r0, #0
 202              	.LVL15:
 203              	.L11:
  70:.\wifi.c      **** }
 204              		.loc 1 70 0
 205              		@ sp needed
 206 0046 10BD     		pop	{r4, pc}
 207              	.L16:
ARM GAS  C:\temp\ccfmIfoz.s 			page 6


 208              		.align	2
 209              	.L15:
 210 0048 00000000 		.word	RXnewData
 211 004c 00000000 		.word	.LANCHOR0
 212              		.cfi_endproc
 213              	.LFE35:
 214              		.size	getStringFromUart, .-getStringFromUart
 215              		.section	.text.findResponse,"ax",%progbits
 216              		.align	2
 217              		.global	findResponse
 218              		.code	16
 219              		.thumb_func
 220              		.type	findResponse, %function
 221              	findResponse:
 222              	.LFB36:
  71:.\wifi.c      **** 
  72:.\wifi.c      **** uint8 findResponse(char *textToFind)
  73:.\wifi.c      **** {
 223              		.loc 1 73 0
 224              		.cfi_startproc
 225              	.LVL16:
 226 0000 70B5     		push	{r4, r5, r6, lr}
 227              		.cfi_def_cfa_offset 16
 228              		.cfi_offset 4, -16
 229              		.cfi_offset 5, -12
 230              		.cfi_offset 6, -8
 231              		.cfi_offset 14, -4
 232 0002 051C     		mov	r5, r0
  74:.\wifi.c      ****     uint8 textToFindLength = strlen(textToFind);    //finder længden af den text man gerne vil fin
 233              		.loc 1 74 0
 234 0004 FFF7FEFF 		bl	strlen
 235              	.LVL17:
 236 0008 C6B2     		uxtb	r6, r0
 237              	.LVL18:
  75:.\wifi.c      ****     uint8 index = 0;
 238              		.loc 1 75 0
 239 000a 0024     		mov	r4, #0
  76:.\wifi.c      ****     char currentChar;
  77:.\wifi.c      ****     
  78:.\wifi.c      ****     while((currentChar = UART_GetChar()) != 0)      //læser data fra uarten
 240              		.loc 1 78 0
 241 000c 08E0     		b	.L18
 242              	.LVL19:
 243              	.L21:
  79:.\wifi.c      ****     {
  80:.\wifi.c      ****         if(currentChar == textToFind[index])        //Hvis den currentChar matcher én char fra uar
 244              		.loc 1 80 0
 245 000e 2B5D     		ldrb	r3, [r5, r4]
 246 0010 8342     		cmp	r3, r0
 247 0012 04D1     		bne	.L22
  81:.\wifi.c      ****         {
  82:.\wifi.c      ****             if(++index >= textToFindLength)         //så incrementeres index for at læse næste p
 248              		.loc 1 82 0
 249 0014 0134     		add	r4, r4, #1
 250              	.LVL20:
 251 0016 E4B2     		uxtb	r4, r4
 252              	.LVL21:
ARM GAS  C:\temp\ccfmIfoz.s 			page 7


 253 0018 B442     		cmp	r4, r6
 254 001a 01D3     		bcc	.L18
 255 001c 05E0     		b	.L23
 256              	.L22:
  83:.\wifi.c      ****                 return 1;                           //og der ses om index er større eller lig med 
  84:.\wifi.c      ****         }
  85:.\wifi.c      ****         else
  86:.\wifi.c      ****             index = 0;                              //hvis den char man ser på ikke er lig med den
 257              		.loc 1 86 0
 258 001e 0024     		mov	r4, #0
 259              	.LVL22:
 260              	.L18:
  78:.\wifi.c      ****     {
 261              		.loc 1 78 0
 262 0020 FFF7FEFF 		bl	UART_GetChar
 263              	.LVL23:
 264 0024 0028     		cmp	r0, #0
 265 0026 F2D1     		bne	.L21
 266 0028 00E0     		b	.L20
 267              	.L23:
  83:.\wifi.c      ****                 return 1;                           //og der ses om index er større eller lig med 
 268              		.loc 1 83 0
 269 002a 0120     		mov	r0, #1
 270              	.LVL24:
 271              	.L20:
  87:.\wifi.c      ****     }
  88:.\wifi.c      ****     return 0;                                       //hvis ingen text findes returneres false
  89:.\wifi.c      **** }
 272              		.loc 1 89 0
 273              		@ sp needed
 274              	.LVL25:
 275              	.LVL26:
 276              	.LVL27:
 277 002c 70BD     		pop	{r4, r5, r6, pc}
 278              		.cfi_endproc
 279              	.LFE36:
 280              		.size	findResponse, .-findResponse
 281 002e C046     		.section	.text.connectToWiFi,"ax",%progbits
 282              		.align	2
 283              		.global	connectToWiFi
 284              		.code	16
 285              		.thumb_func
 286              		.type	connectToWiFi, %function
 287              	connectToWiFi:
 288              	.LFB37:
  90:.\wifi.c      **** 
  91:.\wifi.c      **** int connectToWiFi(char *wifiSSID, char *wifiPASS)
  92:.\wifi.c      **** {
 289              		.loc 1 92 0
 290              		.cfi_startproc
 291              	.LVL28:
 292 0000 00B5     		push	{lr}
 293              		.cfi_def_cfa_offset 4
 294              		.cfi_offset 14, -4
 295 0002 C1B0     		sub	sp, sp, #260
 296              		.cfi_def_cfa_offset 264
 297 0004 021C     		mov	r2, r0
ARM GAS  C:\temp\ccfmIfoz.s 			page 8


 298 0006 0B1C     		mov	r3, r1
  93:.\wifi.c      ****     char sendString[255];                                            //char array på 64 pladser, s
  94:.\wifi.c      ****     sprintf(sendString,"AT+CWJAP=\"%s\",\"%s\"\r\n",wifiSSID, wifiPASS);    //tilslut net med SSID 
 299              		.loc 1 94 0
 300 0008 6846     		mov	r0, sp
 301              	.LVL29:
 302 000a 0B49     		ldr	r1, .L27
 303              	.LVL30:
 304 000c FFF7FEFF 		bl	sprintf
 305              	.LVL31:
  95:.\wifi.c      ****     UART_PutString(sendString);                                     //sendString printes på uarten
 306              		.loc 1 95 0
 307 0010 6846     		mov	r0, sp
 308 0012 FFF7FEFF 		bl	UART_PutString
 309              	.LVL32:
  96:.\wifi.c      ****     CyDelay(5000);
 310              		.loc 1 96 0
 311 0016 0948     		ldr	r0, .L27+4
 312 0018 FFF7FEFF 		bl	CyDelay
 313              	.LVL33:
  97:.\wifi.c      ****     if(findResponse("OK"))
 314              		.loc 1 97 0
 315 001c 0848     		ldr	r0, .L27+8
 316 001e FFF7FEFF 		bl	findResponse
 317              	.LVL34:
 318 0022 0028     		cmp	r0, #0
 319 0024 04D0     		beq	.L26
  98:.\wifi.c      ****     {
  99:.\wifi.c      ****         CyDelay(100);
 320              		.loc 1 99 0
 321 0026 6420     		mov	r0, #100
 322 0028 FFF7FEFF 		bl	CyDelay
 323              	.LVL35:
 100:.\wifi.c      ****         return 1;
 324              		.loc 1 100 0
 325 002c 0120     		mov	r0, #1
 326 002e 00E0     		b	.L25
 327              	.L26:
 101:.\wifi.c      ****     }
 102:.\wifi.c      ****     else
 103:.\wifi.c      ****         return 0;
 328              		.loc 1 103 0
 329 0030 0020     		mov	r0, #0
 330              	.L25:
 104:.\wifi.c      **** }
 331              		.loc 1 104 0
 332 0032 41B0     		add	sp, sp, #260
 333              		@ sp needed
 334 0034 00BD     		pop	{pc}
 335              	.L28:
 336 0036 C046     		.align	2
 337              	.L27:
 338 0038 00000000 		.word	.LC4
 339 003c 88130000 		.word	5000
 340 0040 18000000 		.word	.LC6
 341              		.cfi_endproc
 342              	.LFE37:
ARM GAS  C:\temp\ccfmIfoz.s 			page 9


 343              		.size	connectToWiFi, .-connectToWiFi
 344              		.section	.text.connectToDevKit,"ax",%progbits
 345              		.align	2
 346              		.global	connectToDevKit
 347              		.code	16
 348              		.thumb_func
 349              		.type	connectToDevKit, %function
 350              	connectToDevKit:
 351              	.LFB38:
 105:.\wifi.c      **** 
 106:.\wifi.c      **** int connectToDevKit(char *DevKitIPAdress)
 107:.\wifi.c      **** {
 352              		.loc 1 107 0
 353              		.cfi_startproc
 354              	.LVL36:
 355 0000 00B5     		push	{lr}
 356              		.cfi_def_cfa_offset 4
 357              		.cfi_offset 14, -4
 358 0002 C1B0     		sub	sp, sp, #260
 359              		.cfi_def_cfa_offset 264
 360 0004 021C     		mov	r2, r0
 108:.\wifi.c      ****     char sendString[255];
 109:.\wifi.c      ****     sprintf(sendString,"AT+CIPSTART=\"TCP\",\"%s\",%d\r\n",DevKitIPAdress, DevKitPortNr); //tilslut
 361              		.loc 1 109 0
 362 0006 6846     		mov	r0, sp
 363              	.LVL37:
 364 0008 0D49     		ldr	r1, .L32
 365 000a 0E4B     		ldr	r3, .L32+4
 366 000c FFF7FEFF 		bl	sprintf
 367              	.LVL38:
 110:.\wifi.c      ****     CyDelay(500);
 368              		.loc 1 110 0
 369 0010 FA20     		mov	r0, #250
 370 0012 4000     		lsl	r0, r0, #1
 371 0014 FFF7FEFF 		bl	CyDelay
 372              	.LVL39:
 111:.\wifi.c      ****     UART_PutString(sendString);                                                     //sendString pr
 373              		.loc 1 111 0
 374 0018 6846     		mov	r0, sp
 375 001a FFF7FEFF 		bl	UART_PutString
 376              	.LVL40:
 112:.\wifi.c      ****     CyDelay(1000);
 377              		.loc 1 112 0
 378 001e FA20     		mov	r0, #250
 379 0020 8000     		lsl	r0, r0, #2
 380 0022 FFF7FEFF 		bl	CyDelay
 381              	.LVL41:
 113:.\wifi.c      ****     if(findResponse("OK"))
 382              		.loc 1 113 0
 383 0026 0848     		ldr	r0, .L32+8
 384 0028 FFF7FEFF 		bl	findResponse
 385              	.LVL42:
 386 002c 0028     		cmp	r0, #0
 387 002e 04D0     		beq	.L31
 114:.\wifi.c      ****     {
 115:.\wifi.c      ****         CyDelay(100);
 388              		.loc 1 115 0
ARM GAS  C:\temp\ccfmIfoz.s 			page 10


 389 0030 6420     		mov	r0, #100
 390 0032 FFF7FEFF 		bl	CyDelay
 391              	.LVL43:
 116:.\wifi.c      ****         return 1;
 392              		.loc 1 116 0
 393 0036 0120     		mov	r0, #1
 394 0038 00E0     		b	.L30
 395              	.L31:
 117:.\wifi.c      ****     }
 118:.\wifi.c      ****     else
 119:.\wifi.c      ****         return 0;
 396              		.loc 1 119 0
 397 003a 0020     		mov	r0, #0
 398              	.L30:
 120:.\wifi.c      **** }
 399              		.loc 1 120 0
 400 003c 41B0     		add	sp, sp, #260
 401              		@ sp needed
 402 003e 00BD     		pop	{pc}
 403              	.L33:
 404              		.align	2
 405              	.L32:
 406 0040 1C000000 		.word	.LC8
 407 0044 B8220000 		.word	8888
 408 0048 18000000 		.word	.LC6
 409              		.cfi_endproc
 410              	.LFE38:
 411              		.size	connectToDevKit, .-connectToDevKit
 412              		.section	.text.sendDataDevkit,"ax",%progbits
 413              		.align	2
 414              		.global	sendDataDevkit
 415              		.code	16
 416              		.thumb_func
 417              		.type	sendDataDevkit, %function
 418              	sendDataDevkit:
 419              	.LFB39:
 121:.\wifi.c      **** 
 122:.\wifi.c      **** void sendDataDevkit(char *dataToSend)
 123:.\wifi.c      **** {
 420              		.loc 1 123 0
 421              		.cfi_startproc
 422              	.LVL44:
 423 0000 10B5     		push	{r4, lr}
 424              		.cfi_def_cfa_offset 8
 425              		.cfi_offset 4, -8
 426              		.cfi_offset 14, -4
 427 0002 C0B0     		sub	sp, sp, #256
 428              		.cfi_def_cfa_offset 264
 429 0004 041C     		mov	r4, r0
 430              	.LVL45:
 124:.\wifi.c      ****     char sendString[255];                               //char array på 254 chars, muligt at højs
 125:.\wifi.c      ****     uint16 length=0;
 126:.\wifi.c      ****     length=strlen(dataToSend);                          //længden af den mængde data man vil send
 431              		.loc 1 126 0
 432 0006 FFF7FEFF 		bl	strlen
 433              	.LVL46:
 434 000a 0204     		lsl	r2, r0, #16
ARM GAS  C:\temp\ccfmIfoz.s 			page 11


 435 000c 120C     		lsr	r2, r2, #16
 127:.\wifi.c      ****     sprintf(sendString,"AT+CIPSEND=%d\r\n",length);     //AT kommando for at sende, syntax er AT+CI
 436              		.loc 1 127 0
 437 000e 6846     		mov	r0, sp
 438              	.LVL47:
 439 0010 1649     		ldr	r1, .L38
 440 0012 FFF7FEFF 		bl	sprintf
 441              	.LVL48:
 128:.\wifi.c      ****     UART_PutString(sendString);                         //sendString printes på uarten
 442              		.loc 1 128 0
 443 0016 6846     		mov	r0, sp
 444 0018 FFF7FEFF 		bl	UART_PutString
 445              	.LVL49:
 129:.\wifi.c      ****     CyDelay(100);
 446              		.loc 1 129 0
 447 001c 6420     		mov	r0, #100
 448 001e FFF7FEFF 		bl	CyDelay
 449              	.LVL50:
 130:.\wifi.c      ****     if(findResponse("link"))                            //hvis den ikke er forbundet, forbinder den
 450              		.loc 1 130 0
 451 0022 1348     		ldr	r0, .L38+4
 452 0024 FFF7FEFF 		bl	findResponse
 453              	.LVL51:
 454 0028 0028     		cmp	r0, #0
 455 002a 17D0     		beq	.L35
 131:.\wifi.c      ****     {
 132:.\wifi.c      ****         CyDelay(300);
 456              		.loc 1 132 0
 457 002c 9620     		mov	r0, #150
 458 002e 4000     		lsl	r0, r0, #1
 459 0030 FFF7FEFF 		bl	CyDelay
 460              	.LVL52:
 133:.\wifi.c      ****         if(connectToDevKit(DevKitIP))                   //forbinder til net
 461              		.loc 1 133 0
 462 0034 0F48     		ldr	r0, .L38+8
 463 0036 FFF7FEFF 		bl	connectToDevKit
 464              	.LVL53:
 465 003a 0028     		cmp	r0, #0
 466 003c 14D0     		beq	.L34
 467              	.L37:
 134:.\wifi.c      ****         {
 135:.\wifi.c      ****             while(findResponse("OK"));                  //venter på OK svar
 468              		.loc 1 135 0 discriminator 1
 469 003e 0E48     		ldr	r0, .L38+12
 470 0040 FFF7FEFF 		bl	findResponse
 471              	.LVL54:
 472 0044 0028     		cmp	r0, #0
 473 0046 FAD1     		bne	.L37
 136:.\wifi.c      ****             UART_PutString(sendString);
 474              		.loc 1 136 0
 475 0048 6846     		mov	r0, sp
 476 004a FFF7FEFF 		bl	UART_PutString
 477              	.LVL55:
 137:.\wifi.c      ****             CyDelay(100);
 478              		.loc 1 137 0
 479 004e 6420     		mov	r0, #100
 480 0050 FFF7FEFF 		bl	CyDelay
ARM GAS  C:\temp\ccfmIfoz.s 			page 12


 481              	.LVL56:
 138:.\wifi.c      ****             UART_PutString(dataToSend);
 482              		.loc 1 138 0
 483 0054 201C     		mov	r0, r4
 484 0056 FFF7FEFF 		bl	UART_PutString
 485              	.LVL57:
 486 005a 05E0     		b	.L34
 487              	.L35:
 139:.\wifi.c      ****         }
 140:.\wifi.c      ****     }
 141:.\wifi.c      ****     else
 142:.\wifi.c      ****     {
 143:.\wifi.c      ****         CyDelay(100);
 488              		.loc 1 143 0
 489 005c 6420     		mov	r0, #100
 490 005e FFF7FEFF 		bl	CyDelay
 491              	.LVL58:
 144:.\wifi.c      ****         UART_PutString(dataToSend);                     //printer hvis den er forbundet til servere
 492              		.loc 1 144 0
 493 0062 201C     		mov	r0, r4
 494 0064 FFF7FEFF 		bl	UART_PutString
 495              	.LVL59:
 496              	.L34:
 145:.\wifi.c      ****     }
 146:.\wifi.c      **** }
 497              		.loc 1 146 0
 498 0068 40B0     		add	sp, sp, #256
 499              		@ sp needed
 500              	.LVL60:
 501 006a 10BD     		pop	{r4, pc}
 502              	.L39:
 503              		.align	2
 504              	.L38:
 505 006c 38000000 		.word	.LC11
 506 0070 48000000 		.word	.LC13
 507 0074 50000000 		.word	.LC15
 508 0078 18000000 		.word	.LC6
 509              		.cfi_endproc
 510              	.LFE39:
 511              		.size	sendDataDevkit, .-sendDataDevkit
 512              		.section	.text.receiveDataDevKit,"ax",%progbits
 513              		.align	2
 514              		.global	receiveDataDevKit
 515              		.code	16
 516              		.thumb_func
 517              		.type	receiveDataDevKit, %function
 518              	receiveDataDevKit:
 519              	.LFB40:
 147:.\wifi.c      **** 
 148:.\wifi.c      **** uint8 receiveDataDevKit(char *inputString, char *data)
 149:.\wifi.c      **** {
 520              		.loc 1 149 0
 521              		.cfi_startproc
 522              	.LVL61:
 523 0000 70B5     		push	{r4, r5, r6, lr}
 524              		.cfi_def_cfa_offset 16
 525              		.cfi_offset 4, -16
ARM GAS  C:\temp\ccfmIfoz.s 			page 13


 526              		.cfi_offset 5, -12
 527              		.cfi_offset 6, -8
 528              		.cfi_offset 14, -4
 529 0002 84B0     		sub	sp, sp, #16
 530              		.cfi_def_cfa_offset 32
 531 0004 051C     		mov	r5, r0
 532 0006 0E1C     		mov	r6, r1
 150:.\wifi.c      ****     getStringFromUart(inputString);
 533              		.loc 1 150 0
 534 0008 FFF7FEFF 		bl	getStringFromUart
 535              	.LVL62:
 151:.\wifi.c      ****     //Tjekker om starten af den modtagende string starter med +IPD
 152:.\wifi.c      ****     char IPD[] = "+IPD";
 536              		.loc 1 152 0
 537 000c 1D4B     		ldr	r3, .L50
 538 000e 1A68     		ldr	r2, [r3]
 539 0010 0292     		str	r2, [sp, #8]
 540 0012 1A79     		ldrb	r2, [r3, #4]
 541 0014 02AB     		add	r3, sp, #8
 542 0016 1A71     		strb	r2, [r3, #4]
 543              	.LVL63:
 153:.\wifi.c      ****     uint8 i;
 154:.\wifi.c      ****     for(i= 0; i<4; i++)
 544              		.loc 1 154 0
 545 0018 0023     		mov	r3, #0
 546 001a 06E0     		b	.L41
 547              	.LVL64:
 548              	.L43:
 155:.\wifi.c      ****     {
 156:.\wifi.c      ****         if(IPD[i] != inputString[i])
 549              		.loc 1 156 0
 550 001c 02AA     		add	r2, sp, #8
 551 001e D15C     		ldrb	r1, [r2, r3]
 552 0020 EA5C     		ldrb	r2, [r5, r3]
 553 0022 9142     		cmp	r1, r2
 554 0024 28D1     		bne	.L48
 154:.\wifi.c      ****     {
 555              		.loc 1 154 0 discriminator 2
 556 0026 0133     		add	r3, r3, #1
 557              	.LVL65:
 558 0028 DBB2     		uxtb	r3, r3
 559              	.LVL66:
 560              	.L41:
 154:.\wifi.c      ****     {
 561              		.loc 1 154 0 is_stmt 0 discriminator 1
 562 002a 032B     		cmp	r3, #3
 563 002c F6D9     		bls	.L43
 564 002e 0024     		mov	r4, #0
 565 0030 03E0     		b	.L44
 566              	.LVL67:
 567              	.L45:
 157:.\wifi.c      ****             return 0;
 158:.\wifi.c      ****     }
 159:.\wifi.c      **** 
 160:.\wifi.c      ****     //Så længde man ikke mødder ":" i inputString læses dataene over i bytesLength_char så der
 161:.\wifi.c      ****     char bytesLength_char[4];
 162:.\wifi.c      ****     uint8 len = 0;
ARM GAS  C:\temp\ccfmIfoz.s 			page 14


 163:.\wifi.c      ****     uint8 bytesPos = 0;
 164:.\wifi.c      ****     uint8 dataPos = 0;
 165:.\wifi.c      ****     while(inputString[(bytesPos + 5)]!=':')
 166:.\wifi.c      ****     {
 167:.\wifi.c      ****         bytesLength_char[bytesPos] = inputString[bytesPos+5];
 568              		.loc 1 167 0 is_stmt 1
 569 0032 01AA     		add	r2, sp, #4
 570 0034 1355     		strb	r3, [r2, r4]
 168:.\wifi.c      ****         bytesPos++;
 571              		.loc 1 168 0
 572 0036 0134     		add	r4, r4, #1
 573              	.LVL68:
 574 0038 E4B2     		uxtb	r4, r4
 575              	.LVL69:
 576              	.L44:
 165:.\wifi.c      ****     {
 577              		.loc 1 165 0
 578 003a 631D     		add	r3, r4, #5
 579 003c EB5C     		ldrb	r3, [r5, r3]
 580 003e 3A2B     		cmp	r3, #58
 581 0040 F7D1     		bne	.L45
 169:.\wifi.c      ****     }
 170:.\wifi.c      ****     bytesLength_char[bytesPos] = 0;
 582              		.loc 1 170 0
 583 0042 01A8     		add	r0, sp, #4
 584 0044 0023     		mov	r3, #0
 585 0046 0355     		strb	r3, [r0, r4]
 171:.\wifi.c      **** 
 172:.\wifi.c      ****     //mængde data aflæses og gemmes i len
 173:.\wifi.c      ****     len = atoi(bytesLength_char);
 586              		.loc 1 173 0
 587 0048 FFF7FEFF 		bl	atoi
 588              	.LVL70:
 589 004c C1B2     		uxtb	r1, r0
 590              	.LVL71:
 174:.\wifi.c      ****     if(len <= 0)
 591              		.loc 1 174 0
 592 004e 0029     		cmp	r1, #0
 593 0050 14D0     		beq	.L49
 594              	.LVL72:
 175:.\wifi.c      ****         return 0;
 176:.\wifi.c      ****     
 177:.\wifi.c      ****     //data overføres fra den modtagne string og over i 
 178:.\wifi.c      ****     bytesPos++;
 179:.\wifi.c      ****     dataPos = bytesPos + 5;
 595              		.loc 1 179 0
 596 0052 0634     		add	r4, r4, #6
 597              	.LVL73:
 598 0054 E4B2     		uxtb	r4, r4
 599              	.LVL74:
 180:.\wifi.c      ****     for(i=0; i<len; i++)        //f.eks. +IPD,8:Hello123   --> len = 8.                  
 600              		.loc 1 180 0
 601 0056 0023     		mov	r3, #0
 602 0058 04E0     		b	.L46
 603              	.LVL75:
 604              	.L47:
 181:.\wifi.c      ****     {
ARM GAS  C:\temp\ccfmIfoz.s 			page 15


 182:.\wifi.c      ****            data[i] = inputString[(i+dataPos)];
 605              		.loc 1 182 0 discriminator 3
 606 005a 1A19     		add	r2, r3, r4
 607 005c AA5C     		ldrb	r2, [r5, r2]
 608 005e F254     		strb	r2, [r6, r3]
 180:.\wifi.c      ****     for(i=0; i<len; i++)        //f.eks. +IPD,8:Hello123   --> len = 8.                  
 609              		.loc 1 180 0 discriminator 3
 610 0060 0133     		add	r3, r3, #1
 611              	.LVL76:
 612 0062 DBB2     		uxtb	r3, r3
 613              	.LVL77:
 614              	.L46:
 180:.\wifi.c      ****     for(i=0; i<len; i++)        //f.eks. +IPD,8:Hello123   --> len = 8.                  
 615              		.loc 1 180 0 is_stmt 0 discriminator 1
 616 0064 8B42     		cmp	r3, r1
 617 0066 F8D3     		bcc	.L47
 183:.\wifi.c      ****     }
 184:.\wifi.c      ****     
 185:.\wifi.c      ****     data[dataPos + len] = 0;        //afslutter arrayet ved pladsen efter det sidst modtagne data.
 618              		.loc 1 185 0 is_stmt 1
 619 0068 FF23     		mov	r3, #255
 620              	.LVL78:
 621 006a 1840     		and	r0, r3
 622 006c 2418     		add	r4, r4, r0
 623              	.LVL79:
 624 006e 3619     		add	r6, r6, r4
 625              	.LVL80:
 626 0070 0023     		mov	r3, #0
 627 0072 3370     		strb	r3, [r6]
 186:.\wifi.c      ****     
 187:.\wifi.c      ****     return len;
 628              		.loc 1 187 0
 629 0074 081C     		mov	r0, r1
 630 0076 02E0     		b	.L42
 631              	.LVL81:
 632              	.L48:
 157:.\wifi.c      ****     }
 633              		.loc 1 157 0
 634 0078 0020     		mov	r0, #0
 635 007a 00E0     		b	.L42
 636              	.LVL82:
 637              	.L49:
 175:.\wifi.c      ****     
 638              		.loc 1 175 0
 639 007c 0020     		mov	r0, #0
 640              	.LVL83:
 641              	.L42:
 188:.\wifi.c      **** }
 642              		.loc 1 188 0
 643 007e 04B0     		add	sp, sp, #16
 644              		@ sp needed
 645              	.LVL84:
 646 0080 70BD     		pop	{r4, r5, r6, pc}
 647              	.L51:
 648 0082 C046     		.align	2
 649              	.L50:
 650 0084 60000000 		.word	.LC18
ARM GAS  C:\temp\ccfmIfoz.s 			page 16


 651              		.cfi_endproc
 652              	.LFE40:
 653              		.size	receiveDataDevKit, .-receiveDataDevKit
 654              		.section	.text.setPlantData,"ax",%progbits
 655              		.align	2
 656              		.global	setPlantData
 657              		.code	16
 658              		.thumb_func
 659              		.type	setPlantData, %function
 660              	setPlantData:
 661              	.LFB42:
 189:.\wifi.c      **** 
 190:.\wifi.c      **** 
 191:.\wifi.c      **** void updatePlantData(char* inputString)      //det er kun Moisture og Rotate der kan sættes, reste
 192:.\wifi.c      **** {
 193:.\wifi.c      ****     int i = 0;
 194:.\wifi.c      ****     char dataBuf[255];  ///string med data modtaget fra DevKittet
 195:.\wifi.c      ****     char value_char[8];
 196:.\wifi.c      ****     uint8 plantIDLocal;
 197:.\wifi.c      **** 
 198:.\wifi.c      ****     while(receiveDataDevKit(inputString,dataBuf) == 0u);
 199:.\wifi.c      ****     //M1065R1099  -- Protokollen kan opdateres og gøres mere effectiv, evt. blot sende chars over 
 200:.\wifi.c      ****     plantIDLocal = dataBuf[1];  //værdien på index 1 modtaget fra devkit gemmes som plantens ID. 
 201:.\wifi.c      ****     //SKAL FJERNES SENERE....
 202:.\wifi.c      ****     
 203:.\wifi.c      ****     //WOOOOOP
 204:.\wifi.c      ****     for(i=0;i<3;i++)
 205:.\wifi.c      ****         value_char[i] = dataBuf[i+2];   //Tager moist value
 206:.\wifi.c      ****     for(i=0;i<3;i++)
 207:.\wifi.c      ****         value_char[i+3] = dataBuf[i+7]; //tager rotate value
 208:.\wifi.c      ****         
 209:.\wifi.c      ****     value_char[6] = 0;
 210:.\wifi.c      ****     
 211:.\wifi.c      ****     if (plantIDLocal >= 0 || plantID == '-') //plante IDen valideres
 212:.\wifi.c      ****     {
 213:.\wifi.c      ****         plantID = plantIDLocal;
 214:.\wifi.c      ****         setPlantData(value_char);
 215:.\wifi.c      ****     }
 216:.\wifi.c      ****     else
 217:.\wifi.c      ****         return; 
 218:.\wifi.c      **** }
 219:.\wifi.c      **** 
 220:.\wifi.c      **** void setPlantData(char *plantValue)
 221:.\wifi.c      **** {
 662              		.loc 1 221 0
 663              		.cfi_startproc
 664              	.LVL85:
 665 0000 F0B5     		push	{r4, r5, r6, r7, lr}
 666              		.cfi_def_cfa_offset 20
 667              		.cfi_offset 4, -20
 668              		.cfi_offset 5, -16
 669              		.cfi_offset 6, -12
 670              		.cfi_offset 7, -8
 671              		.cfi_offset 14, -4
 672 0002 83B0     		sub	sp, sp, #12
 673              		.cfi_def_cfa_offset 32
 674              	.LVL86:
ARM GAS  C:\temp\ccfmIfoz.s 			page 17


 222:.\wifi.c      ****     int i;
 223:.\wifi.c      ****     uint8 valueMoist = 0;
 224:.\wifi.c      ****     uint8 valueRotate = 0;
 225:.\wifi.c      ****     char plantMoist[4];
 226:.\wifi.c      ****     char plantRotate[4];
 227:.\wifi.c      ****     
 228:.\wifi.c      ****     for(i=0;i<3;i++)
 675              		.loc 1 228 0
 676 0004 0023     		mov	r3, #0
 677 0006 03E0     		b	.L53
 678              	.LVL87:
 679              	.L54:
 229:.\wifi.c      ****         plantMoist[i] = plantValue[i];
 680              		.loc 1 229 0 discriminator 3
 681 0008 C15C     		ldrb	r1, [r0, r3]
 682 000a 01AA     		add	r2, sp, #4
 683 000c D154     		strb	r1, [r2, r3]
 228:.\wifi.c      ****         plantMoist[i] = plantValue[i];
 684              		.loc 1 228 0 discriminator 3
 685 000e 0133     		add	r3, r3, #1
 686              	.LVL88:
 687              	.L53:
 228:.\wifi.c      ****         plantMoist[i] = plantValue[i];
 688              		.loc 1 228 0 is_stmt 0 discriminator 1
 689 0010 022B     		cmp	r3, #2
 690 0012 F9DD     		ble	.L54
 691 0014 0023     		mov	r3, #0
 692              	.LVL89:
 693 0016 04E0     		b	.L55
 694              	.LVL90:
 695              	.L56:
 230:.\wifi.c      ****     
 231:.\wifi.c      ****     for(i=0;i<3;i++)
 232:.\wifi.c      ****         plantRotate[i] = plantValue[i+3];
 696              		.loc 1 232 0 is_stmt 1 discriminator 3
 697 0018 C218     		add	r2, r0, r3
 698 001a D278     		ldrb	r2, [r2, #3]
 699 001c 6946     		mov	r1, sp
 700 001e CA54     		strb	r2, [r1, r3]
 231:.\wifi.c      ****         plantRotate[i] = plantValue[i+3];
 701              		.loc 1 231 0 discriminator 3
 702 0020 0133     		add	r3, r3, #1
 703              	.LVL91:
 704              	.L55:
 231:.\wifi.c      ****         plantRotate[i] = plantValue[i+3];
 705              		.loc 1 231 0 is_stmt 0 discriminator 1
 706 0022 022B     		cmp	r3, #2
 707 0024 F8DD     		ble	.L56
 233:.\wifi.c      ****     
 234:.\wifi.c      ****     plantMoist[3] = 0;
 708              		.loc 1 234 0 is_stmt 1
 709 0026 01A8     		add	r0, sp, #4
 710              	.LVL92:
 711 0028 0023     		mov	r3, #0
 712              	.LVL93:
 713 002a C370     		strb	r3, [r0, #3]
 235:.\wifi.c      ****     plantRotate[3] = 0;
ARM GAS  C:\temp\ccfmIfoz.s 			page 18


 714              		.loc 1 235 0
 715 002c 6A46     		mov	r2, sp
 716 002e D370     		strb	r3, [r2, #3]
 236:.\wifi.c      **** 
 237:.\wifi.c      ****     valueMoist = atoi(plantMoist);       //data fra dataBuf læses fra pladserne [2-4] hvor der kan
 717              		.loc 1 237 0
 718 0030 FFF7FEFF 		bl	atoi
 719              	.LVL94:
 720 0034 051C     		mov	r5, r0
 721 0036 C4B2     		uxtb	r4, r0
 722              	.LVL95:
 238:.\wifi.c      ****     valueRotate = atoi(plantRotate);     
 723              		.loc 1 238 0
 724 0038 6846     		mov	r0, sp
 725 003a FFF7FEFF 		bl	atoi
 726              	.LVL96:
 727 003e 061C     		mov	r6, r0
 728 0040 C7B2     		uxtb	r7, r0
 729              	.LVL97:
 239:.\wifi.c      ****     
 240:.\wifi.c      ****         if(valueMoist >=10 && valueMoist <=100)             //moisture samt rotate validering
 730              		.loc 1 240 0
 731 0042 0A3C     		sub	r4, r4, #10
 732              	.LVL98:
 733 0044 5A2C     		cmp	r4, #90
 734 0046 02D8     		bhi	.L57
 241:.\wifi.c      ****             wantedMoisture = valueMoist;
 735              		.loc 1 241 0
 736 0048 074B     		ldr	r3, .L61
 737 004a 1D70     		strb	r5, [r3]
 738 004c 02E0     		b	.L58
 739              	.L57:
 242:.\wifi.c      ****         else
 243:.\wifi.c      ****             UART_PutString("Value outside permitted plant set data for Moist\r\n");       //debuggi
 740              		.loc 1 243 0
 741 004e 0748     		ldr	r0, .L61+4
 742 0050 FFF7FEFF 		bl	UART_PutString
 743              	.LVL99:
 744              	.L58:
 244:.\wifi.c      **** 
 245:.\wifi.c      ****         if(valueRotate >=0 && valueRotate <= 200)
 745              		.loc 1 245 0
 746 0054 C82F     		cmp	r7, #200
 747 0056 02D8     		bhi	.L59
 246:.\wifi.c      ****             wantedRotate = valueRotate;
 748              		.loc 1 246 0
 749 0058 054B     		ldr	r3, .L61+8
 750 005a 1E70     		strb	r6, [r3]
 751 005c 02E0     		b	.L52
 752              	.L59:
 247:.\wifi.c      ****         else
 248:.\wifi.c      ****             UART_PutString("Value outside permitted plant set data for Rotate\r\n");       //debugg
 753              		.loc 1 248 0
 754 005e 0548     		ldr	r0, .L61+12
 755 0060 FFF7FEFF 		bl	UART_PutString
 756              	.LVL100:
 757              	.L52:
ARM GAS  C:\temp\ccfmIfoz.s 			page 19


 249:.\wifi.c      **** }
 758              		.loc 1 249 0
 759 0064 03B0     		add	sp, sp, #12
 760              		@ sp needed
 761              	.LVL101:
 762              	.LVL102:
 763 0066 F0BD     		pop	{r4, r5, r6, r7, pc}
 764              	.L62:
 765              		.align	2
 766              	.L61:
 767 0068 00000000 		.word	wantedMoisture
 768 006c 68000000 		.word	.LC21
 769 0070 00000000 		.word	wantedRotate
 770 0074 9C000000 		.word	.LC24
 771              		.cfi_endproc
 772              	.LFE42:
 773              		.size	setPlantData, .-setPlantData
 774              		.section	.text.updatePlantData,"ax",%progbits
 775              		.align	2
 776              		.global	updatePlantData
 777              		.code	16
 778              		.thumb_func
 779              		.type	updatePlantData, %function
 780              	updatePlantData:
 781              	.LFB41:
 192:.\wifi.c      ****     int i = 0;
 782              		.loc 1 192 0
 783              		.cfi_startproc
 784              	.LVL103:
 785 0000 10B5     		push	{r4, lr}
 786              		.cfi_def_cfa_offset 8
 787              		.cfi_offset 4, -8
 788              		.cfi_offset 14, -4
 789 0002 C2B0     		sub	sp, sp, #264
 790              		.cfi_def_cfa_offset 272
 791 0004 041C     		mov	r4, r0
 792              	.LVL104:
 793              	.L64:
 198:.\wifi.c      ****     //M1065R1099  -- Protokollen kan opdateres og gøres mere effectiv, evt. blot sende chars over 
 794              		.loc 1 198 0 discriminator 1
 795 0006 201C     		mov	r0, r4
 796 0008 02A9     		add	r1, sp, #8
 797 000a FFF7FEFF 		bl	receiveDataDevKit
 798              	.LVL105:
 799 000e 0028     		cmp	r0, #0
 800 0010 F9D0     		beq	.L64
 200:.\wifi.c      ****     //SKAL FJERNES SENERE....
 801              		.loc 1 200 0
 802 0012 02AB     		add	r3, sp, #8
 803 0014 5C78     		ldrb	r4, [r3, #1]
 804              	.LVL106:
 204:.\wifi.c      ****         value_char[i] = dataBuf[i+2];   //Tager moist value
 805              		.loc 1 204 0
 806 0016 0023     		mov	r3, #0
 807 0018 05E0     		b	.L65
 808              	.LVL107:
 809              	.L66:
ARM GAS  C:\temp\ccfmIfoz.s 			page 20


 205:.\wifi.c      ****     for(i=0;i<3;i++)
 810              		.loc 1 205 0 discriminator 3
 811 001a 9A1C     		add	r2, r3, #2
 812 001c 02A9     		add	r1, sp, #8
 813 001e 8A5C     		ldrb	r2, [r1, r2]
 814 0020 6946     		mov	r1, sp
 815 0022 CA54     		strb	r2, [r1, r3]
 204:.\wifi.c      ****         value_char[i] = dataBuf[i+2];   //Tager moist value
 816              		.loc 1 204 0 discriminator 3
 817 0024 0133     		add	r3, r3, #1
 818              	.LVL108:
 819              	.L65:
 204:.\wifi.c      ****         value_char[i] = dataBuf[i+2];   //Tager moist value
 820              		.loc 1 204 0 is_stmt 0 discriminator 1
 821 0026 022B     		cmp	r3, #2
 822 0028 F7DD     		ble	.L66
 823 002a 0023     		mov	r3, #0
 824              	.LVL109:
 825 002c 06E0     		b	.L67
 826              	.LVL110:
 827              	.L68:
 207:.\wifi.c      ****         
 828              		.loc 1 207 0 is_stmt 1 discriminator 3
 829 002e DA1C     		add	r2, r3, #3
 830 0030 D91D     		add	r1, r3, #7
 831 0032 02A8     		add	r0, sp, #8
 832 0034 415C     		ldrb	r1, [r0, r1]
 833 0036 6846     		mov	r0, sp
 834 0038 8154     		strb	r1, [r0, r2]
 206:.\wifi.c      ****         value_char[i+3] = dataBuf[i+7]; //tager rotate value
 835              		.loc 1 206 0 discriminator 3
 836 003a 0133     		add	r3, r3, #1
 837              	.LVL111:
 838              	.L67:
 206:.\wifi.c      ****         value_char[i+3] = dataBuf[i+7]; //tager rotate value
 839              		.loc 1 206 0 is_stmt 0 discriminator 1
 840 003c 022B     		cmp	r3, #2
 841 003e F6DD     		ble	.L68
 209:.\wifi.c      ****     
 842              		.loc 1 209 0 is_stmt 1
 843 0040 0023     		mov	r3, #0
 844              	.LVL112:
 845 0042 6A46     		mov	r2, sp
 846 0044 9371     		strb	r3, [r2, #6]
 213:.\wifi.c      ****         setPlantData(value_char);
 847              		.loc 1 213 0
 848 0046 034B     		ldr	r3, .L69
 849 0048 1C70     		strb	r4, [r3]
 214:.\wifi.c      ****     }
 850              		.loc 1 214 0
 851 004a 6846     		mov	r0, sp
 852 004c FFF7FEFF 		bl	setPlantData
 853              	.LVL113:
 218:.\wifi.c      **** 
 854              		.loc 1 218 0
 855 0050 42B0     		add	sp, sp, #264
 856              		@ sp needed
ARM GAS  C:\temp\ccfmIfoz.s 			page 21


 857              	.LVL114:
 858 0052 10BD     		pop	{r4, pc}
 859              	.L70:
 860              		.align	2
 861              	.L69:
 862 0054 00000000 		.word	.LANCHOR1
 863              		.cfi_endproc
 864              	.LFE41:
 865              		.size	updatePlantData, .-updatePlantData
 866              		.section	.text.sendSensorData,"ax",%progbits
 867              		.align	2
 868              		.global	sendSensorData
 869              		.code	16
 870              		.thumb_func
 871              		.type	sendSensorData, %function
 872              	sendSensorData:
 873              	.LFB43:
 250:.\wifi.c      **** 
 251:.\wifi.c      **** void sendSensorData(struct updateParameters sensors) // OBS der er tilføjes et mellemrum " " i slu
 252:.\wifi.c      **** {
 874              		.loc 1 252 0
 875              		.cfi_startproc
 876 0000 00B5     		push	{lr}
 877              		.cfi_def_cfa_offset 4
 878              		.cfi_offset 14, -4
 879 0002 BDB0     		sub	sp, sp, #244
 880              		.cfi_def_cfa_offset 248
 881 0004 0590     		str	r0, [sp, #20]
 882 0006 0691     		str	r1, [sp, #24]
 883 0008 0792     		str	r2, [sp, #28]
 253:.\wifi.c      ****     char sendString[128]; //lokal string til behandling af sprintf
 254:.\wifi.c      ****     //Sender alt i 1 lang string
 255:.\wifi.c      ****     char moistureString[16];
 256:.\wifi.c      ****     char waterString[16];
 257:.\wifi.c      ****     char lightString[16];
 258:.\wifi.c      ****     char batteryString[16];
 259:.\wifi.c      ****     char temperatureString[16];
 260:.\wifi.c      ****     
 261:.\wifi.c      ****     //Moisture fejlhåndtering
 262:.\wifi.c      ****     if(sensors.currentMoisture > 99)
 884              		.loc 1 262 0
 885 000a 83B2     		uxth	r3, r0
 886 000c 1AB2     		sxth	r2, r3
 887 000e 632A     		cmp	r2, #99
 888 0010 07DD     		ble	.L72
 263:.\wifi.c      ****         sprintf(moistureString,"M%c%d",plantID,sensors.currentMoisture);
 889              		.loc 1 263 0
 890 0012 654A     		ldr	r2, .L87
 891 0014 1278     		ldrb	r2, [r2]
 892 0016 1BB2     		sxth	r3, r3
 893 0018 18A8     		add	r0, sp, #96
 894 001a 6449     		ldr	r1, .L87+4
 895 001c FFF7FEFF 		bl	sprintf
 896              	.LVL115:
 897 0020 16E0     		b	.L73
 898              	.L72:
 264:.\wifi.c      ****     else if(sensors.currentMoisture <= 99 && sensors.currentMoisture >= 10)
ARM GAS  C:\temp\ccfmIfoz.s 			page 22


 899              		.loc 1 264 0
 900 0022 99B2     		uxth	r1, r3
 901 0024 0A1C     		mov	r2, r1
 902 0026 0A3A     		sub	r2, r2, #10
 903 0028 92B2     		uxth	r2, r2
 904 002a 592A     		cmp	r2, #89
 905 002c 07D8     		bhi	.L74
 265:.\wifi.c      ****         sprintf(moistureString,"M%c0%d",plantID,sensors.currentMoisture);
 906              		.loc 1 265 0
 907 002e 5E4A     		ldr	r2, .L87
 908 0030 1278     		ldrb	r2, [r2]
 909 0032 1BB2     		sxth	r3, r3
 910 0034 18A8     		add	r0, sp, #96
 911 0036 5E49     		ldr	r1, .L87+8
 912 0038 FFF7FEFF 		bl	sprintf
 913              	.LVL116:
 914 003c 08E0     		b	.L73
 915              	.L74:
 266:.\wifi.c      ****     else if(sensors.currentMoisture < 10 && sensors.currentMoisture >=0)
 916              		.loc 1 266 0
 917 003e 0929     		cmp	r1, #9
 918 0040 06D8     		bhi	.L73
 267:.\wifi.c      ****         sprintf(moistureString,"M%c00%d",plantID,sensors.currentMoisture);
 919              		.loc 1 267 0
 920 0042 594A     		ldr	r2, .L87
 921 0044 1278     		ldrb	r2, [r2]
 922 0046 1BB2     		sxth	r3, r3
 923 0048 18A8     		add	r0, sp, #96
 924 004a 5A49     		ldr	r1, .L87+12
 925 004c FFF7FEFF 		bl	sprintf
 926              	.LVL117:
 927              	.L73:
 268:.\wifi.c      ****         
 269:.\wifi.c      ****     //Water fejlhåndtering    
 270:.\wifi.c      ****     if(sensors.currentWater > 99)
 928              		.loc 1 270 0
 929 0050 05AB     		add	r3, sp, #20
 930 0052 9B88     		ldrh	r3, [r3, #4]
 931 0054 1AB2     		sxth	r2, r3
 932 0056 632A     		cmp	r2, #99
 933 0058 07DD     		ble	.L75
 271:.\wifi.c      ****         sprintf(waterString,"W%c%d",plantID,sensors.currentWater);
 934              		.loc 1 271 0
 935 005a 534A     		ldr	r2, .L87
 936 005c 1278     		ldrb	r2, [r2]
 937 005e 1BB2     		sxth	r3, r3
 938 0060 14A8     		add	r0, sp, #80
 939 0062 5549     		ldr	r1, .L87+16
 940 0064 FFF7FEFF 		bl	sprintf
 941              	.LVL118:
 942 0068 16E0     		b	.L76
 943              	.L75:
 272:.\wifi.c      ****     else if(sensors.currentWater <= 99 && sensors.currentWater >= 10)
 944              		.loc 1 272 0
 945 006a 99B2     		uxth	r1, r3
 946 006c 0A1C     		mov	r2, r1
 947 006e 0A3A     		sub	r2, r2, #10
ARM GAS  C:\temp\ccfmIfoz.s 			page 23


 948 0070 92B2     		uxth	r2, r2
 949 0072 592A     		cmp	r2, #89
 950 0074 07D8     		bhi	.L77
 273:.\wifi.c      ****         sprintf(waterString,"W%c0%d",plantID,sensors.currentWater);
 951              		.loc 1 273 0
 952 0076 4C4A     		ldr	r2, .L87
 953 0078 1278     		ldrb	r2, [r2]
 954 007a 1BB2     		sxth	r3, r3
 955 007c 14A8     		add	r0, sp, #80
 956 007e 4F49     		ldr	r1, .L87+20
 957 0080 FFF7FEFF 		bl	sprintf
 958              	.LVL119:
 959 0084 08E0     		b	.L76
 960              	.L77:
 274:.\wifi.c      ****     else if(sensors.currentWater < 10 && sensors.currentWater >=0)
 961              		.loc 1 274 0
 962 0086 0929     		cmp	r1, #9
 963 0088 06D8     		bhi	.L76
 275:.\wifi.c      ****         sprintf(waterString,"W%c00%d",plantID,sensors.currentWater);
 964              		.loc 1 275 0
 965 008a 474A     		ldr	r2, .L87
 966 008c 1278     		ldrb	r2, [r2]
 967 008e 1BB2     		sxth	r3, r3
 968 0090 14A8     		add	r0, sp, #80
 969 0092 4B49     		ldr	r1, .L87+24
 970 0094 FFF7FEFF 		bl	sprintf
 971              	.LVL120:
 972              	.L76:
 276:.\wifi.c      ****     
 277:.\wifi.c      ****     //Light fejlhåndtering    
 278:.\wifi.c      ****     if(sensors.currentLight > 99)
 973              		.loc 1 278 0
 974 0098 05AB     		add	r3, sp, #20
 975 009a DB88     		ldrh	r3, [r3, #6]
 976 009c 1AB2     		sxth	r2, r3
 977 009e 632A     		cmp	r2, #99
 978 00a0 07DD     		ble	.L78
 279:.\wifi.c      ****         sprintf(lightString,"L%c%d",plantID,sensors.currentLight);
 979              		.loc 1 279 0
 980 00a2 414A     		ldr	r2, .L87
 981 00a4 1278     		ldrb	r2, [r2]
 982 00a6 1BB2     		sxth	r3, r3
 983 00a8 10A8     		add	r0, sp, #64
 984 00aa 4649     		ldr	r1, .L87+28
 985 00ac FFF7FEFF 		bl	sprintf
 986              	.LVL121:
 987 00b0 16E0     		b	.L79
 988              	.L78:
 280:.\wifi.c      ****     else if(sensors.currentLight <= 99 && sensors.currentLight >= 10)
 989              		.loc 1 280 0
 990 00b2 99B2     		uxth	r1, r3
 991 00b4 0A1C     		mov	r2, r1
 992 00b6 0A3A     		sub	r2, r2, #10
 993 00b8 92B2     		uxth	r2, r2
 994 00ba 592A     		cmp	r2, #89
 995 00bc 07D8     		bhi	.L80
 281:.\wifi.c      ****         sprintf(lightString,"L%c0%d",plantID,sensors.currentLight);
ARM GAS  C:\temp\ccfmIfoz.s 			page 24


 996              		.loc 1 281 0
 997 00be 3A4A     		ldr	r2, .L87
 998 00c0 1278     		ldrb	r2, [r2]
 999 00c2 1BB2     		sxth	r3, r3
 1000 00c4 10A8     		add	r0, sp, #64
 1001 00c6 4049     		ldr	r1, .L87+32
 1002 00c8 FFF7FEFF 		bl	sprintf
 1003              	.LVL122:
 1004 00cc 08E0     		b	.L79
 1005              	.L80:
 282:.\wifi.c      ****     else if(sensors.currentLight < 10 && sensors.currentLight >=0)
 1006              		.loc 1 282 0
 1007 00ce 0929     		cmp	r1, #9
 1008 00d0 06D8     		bhi	.L79
 283:.\wifi.c      ****         sprintf(lightString,"L%c00%d",plantID,sensors.currentLight);
 1009              		.loc 1 283 0
 1010 00d2 354A     		ldr	r2, .L87
 1011 00d4 1278     		ldrb	r2, [r2]
 1012 00d6 1BB2     		sxth	r3, r3
 1013 00d8 10A8     		add	r0, sp, #64
 1014 00da 3C49     		ldr	r1, .L87+36
 1015 00dc FFF7FEFF 		bl	sprintf
 1016              	.LVL123:
 1017              	.L79:
 284:.\wifi.c      ****         
 285:.\wifi.c      ****     //Battery fejlhåndtering    
 286:.\wifi.c      ****     if(sensors.currentBattery > 99)
 1018              		.loc 1 286 0
 1019 00e0 05AB     		add	r3, sp, #20
 1020 00e2 5B88     		ldrh	r3, [r3, #2]
 1021 00e4 1AB2     		sxth	r2, r3
 1022 00e6 632A     		cmp	r2, #99
 1023 00e8 07DD     		ble	.L81
 287:.\wifi.c      ****         sprintf(batteryString,"B%c%d",plantID,sensors.currentBattery);
 1024              		.loc 1 287 0
 1025 00ea 2F4A     		ldr	r2, .L87
 1026 00ec 1278     		ldrb	r2, [r2]
 1027 00ee 1BB2     		sxth	r3, r3
 1028 00f0 0CA8     		add	r0, sp, #48
 1029 00f2 3749     		ldr	r1, .L87+40
 1030 00f4 FFF7FEFF 		bl	sprintf
 1031              	.LVL124:
 1032 00f8 16E0     		b	.L82
 1033              	.L81:
 288:.\wifi.c      ****     else if(sensors.currentBattery <= 99 && sensors.currentBattery >= 10)
 1034              		.loc 1 288 0
 1035 00fa 99B2     		uxth	r1, r3
 1036 00fc 0A1C     		mov	r2, r1
 1037 00fe 0A3A     		sub	r2, r2, #10
 1038 0100 92B2     		uxth	r2, r2
 1039 0102 592A     		cmp	r2, #89
 1040 0104 07D8     		bhi	.L83
 289:.\wifi.c      ****         sprintf(batteryString,"B%c0%d",plantID,sensors.currentBattery);
 1041              		.loc 1 289 0
 1042 0106 284A     		ldr	r2, .L87
 1043 0108 1278     		ldrb	r2, [r2]
 1044 010a 1BB2     		sxth	r3, r3
ARM GAS  C:\temp\ccfmIfoz.s 			page 25


 1045 010c 0CA8     		add	r0, sp, #48
 1046 010e 3149     		ldr	r1, .L87+44
 1047 0110 FFF7FEFF 		bl	sprintf
 1048              	.LVL125:
 1049 0114 08E0     		b	.L82
 1050              	.L83:
 290:.\wifi.c      ****     else if(sensors.currentBattery < 10 && sensors.currentBattery >=0)
 1051              		.loc 1 290 0
 1052 0116 0929     		cmp	r1, #9
 1053 0118 06D8     		bhi	.L82
 291:.\wifi.c      ****         sprintf(batteryString,"B%c00%d",plantID,sensors.currentBattery);
 1054              		.loc 1 291 0
 1055 011a 234A     		ldr	r2, .L87
 1056 011c 1278     		ldrb	r2, [r2]
 1057 011e 1BB2     		sxth	r3, r3
 1058 0120 0CA8     		add	r0, sp, #48
 1059 0122 2D49     		ldr	r1, .L87+48
 1060 0124 FFF7FEFF 		bl	sprintf
 1061              	.LVL126:
 1062              	.L82:
 292:.\wifi.c      ****          
 293:.\wifi.c      ****     //Temperature fejlhåndtering    
 294:.\wifi.c      ****     if(sensors.currentTemperature > 99)
 1063              		.loc 1 294 0
 1064 0128 05AB     		add	r3, sp, #20
 1065 012a 1B89     		ldrh	r3, [r3, #8]
 1066 012c 1AB2     		sxth	r2, r3
 1067 012e 632A     		cmp	r2, #99
 1068 0130 07DD     		ble	.L84
 295:.\wifi.c      ****         sprintf(temperatureString,"T%c%d",plantID,sensors.currentTemperature);
 1069              		.loc 1 295 0
 1070 0132 1D4A     		ldr	r2, .L87
 1071 0134 1278     		ldrb	r2, [r2]
 1072 0136 1BB2     		sxth	r3, r3
 1073 0138 08A8     		add	r0, sp, #32
 1074 013a 2849     		ldr	r1, .L87+52
 1075 013c FFF7FEFF 		bl	sprintf
 1076              	.LVL127:
 1077 0140 16E0     		b	.L85
 1078              	.L84:
 296:.\wifi.c      ****     else if(sensors.currentTemperature <= 99 && sensors.currentTemperature >= 10)
 1079              		.loc 1 296 0
 1080 0142 99B2     		uxth	r1, r3
 1081 0144 0A1C     		mov	r2, r1
 1082 0146 0A3A     		sub	r2, r2, #10
 1083 0148 92B2     		uxth	r2, r2
 1084 014a 592A     		cmp	r2, #89
 1085 014c 07D8     		bhi	.L86
 297:.\wifi.c      ****         sprintf(temperatureString,"T%c0%d",plantID,sensors.currentTemperature);
 1086              		.loc 1 297 0
 1087 014e 164A     		ldr	r2, .L87
 1088 0150 1278     		ldrb	r2, [r2]
 1089 0152 1BB2     		sxth	r3, r3
 1090 0154 08A8     		add	r0, sp, #32
 1091 0156 2249     		ldr	r1, .L87+56
 1092 0158 FFF7FEFF 		bl	sprintf
 1093              	.LVL128:
ARM GAS  C:\temp\ccfmIfoz.s 			page 26


 1094 015c 08E0     		b	.L85
 1095              	.L86:
 298:.\wifi.c      ****     else if(sensors.currentTemperature < 10 && sensors.currentTemperature >=0)
 1096              		.loc 1 298 0
 1097 015e 0929     		cmp	r1, #9
 1098 0160 06D8     		bhi	.L85
 299:.\wifi.c      ****         sprintf(temperatureString,"T%c00%d",plantID,sensors.currentTemperature);
 1099              		.loc 1 299 0
 1100 0162 114A     		ldr	r2, .L87
 1101 0164 1278     		ldrb	r2, [r2]
 1102 0166 1BB2     		sxth	r3, r3
 1103 0168 08A8     		add	r0, sp, #32
 1104 016a 1E49     		ldr	r1, .L87+60
 1105 016c FFF7FEFF 		bl	sprintf
 1106              	.LVL129:
 1107              	.L85:
 300:.\wifi.c      ****         
 301:.\wifi.c      ****     sprintf(sendString,"%s%s%s%s%s",moistureString,waterString,lightString,temperatureString,batter
 1108              		.loc 1 301 0
 1109 0170 10AB     		add	r3, sp, #64
 1110 0172 0093     		str	r3, [sp]
 1111 0174 08AB     		add	r3, sp, #32
 1112 0176 0193     		str	r3, [sp, #4]
 1113 0178 0CAB     		add	r3, sp, #48
 1114 017a 0293     		str	r3, [sp, #8]
 1115 017c 1CA8     		add	r0, sp, #112
 1116 017e 1A49     		ldr	r1, .L87+64
 1117 0180 18AA     		add	r2, sp, #96
 1118 0182 14AB     		add	r3, sp, #80
 1119 0184 FFF7FEFF 		bl	sprintf
 1120              	.LVL130:
 302:.\wifi.c      ****     sendDataDevkit(sendString);
 1121              		.loc 1 302 0
 1122 0188 1CA8     		add	r0, sp, #112
 1123 018a FFF7FEFF 		bl	sendDataDevkit
 1124              	.LVL131:
 303:.\wifi.c      ****     updatePlantData(uartString);
 1125              		.loc 1 303 0
 1126 018e 1748     		ldr	r0, .L87+68
 1127 0190 0430     		add	r0, r0, #4
 1128 0192 FFF7FEFF 		bl	updatePlantData
 1129              	.LVL132:
 304:.\wifi.c      **** 
 305:.\wifi.c      ****     CyDelay(2000);
 1130              		.loc 1 305 0
 1131 0196 FA20     		mov	r0, #250
 1132 0198 C000     		lsl	r0, r0, #3
 1133 019a FFF7FEFF 		bl	CyDelay
 1134              	.LVL133:
 306:.\wifi.c      ****     UART_PutString("AT+CIPCLOSE\r\n");  //lukker forbindelse til tcp serveren(devkit)  
 1135              		.loc 1 306 0
 1136 019e 1448     		ldr	r0, .L87+72
 1137 01a0 FFF7FEFF 		bl	UART_PutString
 1138              	.LVL134:
 307:.\wifi.c      **** }
 1139              		.loc 1 307 0
 1140 01a4 3DB0     		add	sp, sp, #244
ARM GAS  C:\temp\ccfmIfoz.s 			page 27


 1141              		@ sp needed
 1142 01a6 00BD     		pop	{pc}
 1143              	.L88:
 1144              		.align	2
 1145              	.L87:
 1146 01a8 00000000 		.word	.LANCHOR1
 1147 01ac D0000000 		.word	.LC27
 1148 01b0 D8000000 		.word	.LC30
 1149 01b4 E0000000 		.word	.LC32
 1150 01b8 E8000000 		.word	.LC34
 1151 01bc F0000000 		.word	.LC36
 1152 01c0 F8000000 		.word	.LC38
 1153 01c4 00010000 		.word	.LC40
 1154 01c8 08010000 		.word	.LC42
 1155 01cc 10010000 		.word	.LC44
 1156 01d0 18010000 		.word	.LC46
 1157 01d4 20010000 		.word	.LC48
 1158 01d8 28010000 		.word	.LC50
 1159 01dc 30010000 		.word	.LC52
 1160 01e0 38010000 		.word	.LC54
 1161 01e4 40010000 		.word	.LC56
 1162 01e8 48010000 		.word	.LC58
 1163 01ec 00010000 		.word	.LANCHOR2
 1164 01f0 54010000 		.word	.LC61
 1165              		.cfi_endproc
 1166              	.LFE43:
 1167              		.size	sendSensorData, .-sendSensorData
 1168              		.section	.text.initPSoCWiFi,"ax",%progbits
 1169              		.align	2
 1170              		.global	initPSoCWiFi
 1171              		.code	16
 1172              		.thumb_func
 1173              		.type	initPSoCWiFi, %function
 1174              	initPSoCWiFi:
 1175              	.LFB44:
 308:.\wifi.c      **** 
 309:.\wifi.c      **** void initPSoCWiFi(char *wifiSSID, char *wifiPASS, char *DevKitIPAdress) //Opstart af WiFi modul tag
 310:.\wifi.c      **** {
 1176              		.loc 1 310 0
 1177              		.cfi_startproc
 1178              	.LVL135:
 1179 0000 F8B5     		push	{r3, r4, r5, r6, r7, lr}
 1180              		.cfi_def_cfa_offset 24
 1181              		.cfi_offset 3, -24
 1182              		.cfi_offset 4, -20
 1183              		.cfi_offset 5, -16
 1184              		.cfi_offset 6, -12
 1185              		.cfi_offset 7, -8
 1186              		.cfi_offset 14, -4
 1187 0002 071C     		mov	r7, r0
 1188 0004 0E1C     		mov	r6, r1
 1189 0006 151C     		mov	r5, r2
 1190              	.LVL136:
 311:.\wifi.c      ****     int i = 0;
 312:.\wifi.c      ****    
 313:.\wifi.c      ****     CyGlobalIntEnable;                          //enabler global interrupt
 1191              		.loc 1 313 0
ARM GAS  C:\temp\ccfmIfoz.s 			page 28


 1192              	@ 313 ".\wifi.c" 1
 1193 0008 62B6     		CPSIE   i
 1194              	@ 0 "" 2
 314:.\wifi.c      ****     isr_UART_StartEx(UART_ISR);                 //initierer en bruger defineret interrupt service: 
 1195              		.loc 1 314 0
 1196              		.code	16
 1197 000a 1B48     		ldr	r0, .L96
 1198              	.LVL137:
 1199 000c FFF7FEFF 		bl	isr_UART_StartEx
 1200              	.LVL138:
 315:.\wifi.c      ****     UART_Start();                               //Initier UARTEN
 1201              		.loc 1 315 0
 1202 0010 FFF7FEFF 		bl	UART_Start
 1203              	.LVL139:
 316:.\wifi.c      **** 
 317:.\wifi.c      ****     UART_PutString("AT+CIPCLOSE\r\n");
 1204              		.loc 1 317 0
 1205 0014 1948     		ldr	r0, .L96+4
 1206 0016 FFF7FEFF 		bl	UART_PutString
 1207              	.LVL140:
 318:.\wifi.c      ****     CyDelay(500);
 1208              		.loc 1 318 0
 1209 001a FA24     		mov	r4, #250
 1210 001c 6400     		lsl	r4, r4, #1
 1211 001e 201C     		mov	r0, r4
 1212 0020 FFF7FEFF 		bl	CyDelay
 1213              	.LVL141:
 319:.\wifi.c      ****     
 320:.\wifi.c      ****     UART_PutString("AT+RST\r\n");
 1214              		.loc 1 320 0
 1215 0024 1648     		ldr	r0, .L96+8
 1216 0026 FFF7FEFF 		bl	UART_PutString
 1217              	.LVL142:
 321:.\wifi.c      ****     CyDelay(3000);
 1218              		.loc 1 321 0
 1219 002a 1648     		ldr	r0, .L96+12
 1220 002c FFF7FEFF 		bl	CyDelay
 1221              	.LVL143:
 322:.\wifi.c      ****     
 323:.\wifi.c      ****     UART_PutString("AT+CWMODE=3\r\n");          //WiFI mode sættes til AP+station mode
 1222              		.loc 1 323 0
 1223 0030 1548     		ldr	r0, .L96+16
 1224 0032 FFF7FEFF 		bl	UART_PutString
 1225              	.LVL144:
 324:.\wifi.c      ****     CyDelay(500);
 1226              		.loc 1 324 0
 1227 0036 201C     		mov	r0, r4
 1228 0038 FFF7FEFF 		bl	CyDelay
 1229              	.LVL145:
 325:.\wifi.c      ****     
 326:.\wifi.c      ****     for(i=0;i<3;i++)
 1230              		.loc 1 326 0
 1231 003c 0024     		mov	r4, #0
 1232 003e 06E0     		b	.L90
 1233              	.LVL146:
 1234              	.L92:
 327:.\wifi.c      ****     {
ARM GAS  C:\temp\ccfmIfoz.s 			page 29


 328:.\wifi.c      ****         if(connectToWiFi(wifiSSID,wifiPASS))    //forbinde til WiFi
 1235              		.loc 1 328 0
 1236 0040 381C     		mov	r0, r7
 1237 0042 311C     		mov	r1, r6
 1238 0044 FFF7FEFF 		bl	connectToWiFi
 1239              	.LVL147:
 1240 0048 0028     		cmp	r0, #0
 1241 004a 02D1     		bne	.L91
 326:.\wifi.c      ****     {
 1242              		.loc 1 326 0 discriminator 2
 1243 004c 0134     		add	r4, r4, #1
 1244              	.LVL148:
 1245              	.L90:
 326:.\wifi.c      ****     {
 1246              		.loc 1 326 0 is_stmt 0 discriminator 1
 1247 004e 022C     		cmp	r4, #2
 1248 0050 F6DD     		ble	.L92
 1249              	.L91:
 329:.\wifi.c      ****             break;
 330:.\wifi.c      ****     }
 331:.\wifi.c      ****    
 332:.\wifi.c      ****     CyDelay(100);
 1250              		.loc 1 332 0 is_stmt 1
 1251 0052 6420     		mov	r0, #100
 1252 0054 FFF7FEFF 		bl	CyDelay
 1253              	.LVL149:
 333:.\wifi.c      ****     for(i=0;i<3;i++)                            //forbinde til DevKit
 1254              		.loc 1 333 0
 1255 0058 0024     		mov	r4, #0
 1256 005a 05E0     		b	.L93
 1257              	.LVL150:
 1258              	.L95:
 334:.\wifi.c      ****     {
 335:.\wifi.c      ****         if(connectToDevKit(DevKitIPAdress))
 1259              		.loc 1 335 0
 1260 005c 281C     		mov	r0, r5
 1261 005e FFF7FEFF 		bl	connectToDevKit
 1262              	.LVL151:
 1263 0062 0028     		cmp	r0, #0
 1264 0064 02D1     		bne	.L94
 333:.\wifi.c      ****     for(i=0;i<3;i++)                            //forbinde til DevKit
 1265              		.loc 1 333 0 discriminator 2
 1266 0066 0134     		add	r4, r4, #1
 1267              	.LVL152:
 1268              	.L93:
 333:.\wifi.c      ****     for(i=0;i<3;i++)                            //forbinde til DevKit
 1269              		.loc 1 333 0 is_stmt 0 discriminator 1
 1270 0068 022C     		cmp	r4, #2
 1271 006a F7DD     		ble	.L95
 1272              	.L94:
 336:.\wifi.c      ****             break;
 337:.\wifi.c      ****     }
 338:.\wifi.c      ****     CyDelay(1000);
 1273              		.loc 1 338 0 is_stmt 1
 1274 006c FA20     		mov	r0, #250
 1275 006e 8000     		lsl	r0, r0, #2
 1276 0070 FFF7FEFF 		bl	CyDelay
ARM GAS  C:\temp\ccfmIfoz.s 			page 30


 1277              	.LVL153:
 339:.\wifi.c      **** }
 1278              		.loc 1 339 0
 1279              		@ sp needed
 1280              	.LVL154:
 1281              	.LVL155:
 1282              	.LVL156:
 1283              	.LVL157:
 1284 0074 F8BD     		pop	{r3, r4, r5, r6, r7, pc}
 1285              	.L97:
 1286 0076 C046     		.align	2
 1287              	.L96:
 1288 0078 00000000 		.word	UART_ISR
 1289 007c 54010000 		.word	.LC61
 1290 0080 64010000 		.word	.LC65
 1291 0084 B80B0000 		.word	3000
 1292 0088 70010000 		.word	.LC67
 1293              		.cfi_endproc
 1294              	.LFE44:
 1295              		.size	initPSoCWiFi, .-initPSoCWiFi
 1296              		.section	.text.tick,"ax",%progbits
 1297              		.align	2
 1298              		.global	tick
 1299              		.code	16
 1300              		.thumb_func
 1301              		.type	tick, %function
 1302              	tick:
 1303              	.LFB45:
 340:.\wifi.c      **** 
 341:.\wifi.c      **** void tick()   
 342:.\wifi.c      **** {
 1304              		.loc 1 342 0
 1305              		.cfi_startproc
 1306 0000 70B5     		push	{r4, r5, r6, lr}
 1307              		.cfi_def_cfa_offset 16
 1308              		.cfi_offset 4, -16
 1309              		.cfi_offset 5, -12
 1310              		.cfi_offset 6, -8
 1311              		.cfi_offset 14, -4
 1312 0002 A4B0     		sub	sp, sp, #144
 1313              		.cfi_def_cfa_offset 160
 343:.\wifi.c      ****     char sendString[128];                        //temp string til at handle lidt printning -- fjer
 344:.\wifi.c      ****     if(getStringFromUart(uartString) != 0)
 1314              		.loc 1 344 0
 1315 0004 4148     		ldr	r0, .L106
 1316 0006 0430     		add	r0, r0, #4
 1317 0008 FFF7FEFF 		bl	getStringFromUart
 1318              	.LVL158:
 1319 000c 0028     		cmp	r0, #0
 1320 000e 00D1     		bne	.LCB1298
 1321 0010 7AE0     		b	.L98	@long jump
 1322              	.LCB1298:
 345:.\wifi.c      ****     {
 346:.\wifi.c      ****         if(strcmp(uartString,"GG") == 0)
 1323              		.loc 1 346 0
 1324 0012 3E48     		ldr	r0, .L106
 1325 0014 0430     		add	r0, r0, #4
ARM GAS  C:\temp\ccfmIfoz.s 			page 31


 1326 0016 3E49     		ldr	r1, .L106+4
 1327 0018 FFF7FEFF 		bl	strcmp
 1328              	.LVL159:
 1329 001c 0028     		cmp	r0, #0
 1330 001e 03D1     		bne	.L100
 347:.\wifi.c      ****         {
 348:.\wifi.c      ****             UART_PutString("Works...");
 1331              		.loc 1 348 0
 1332 0020 3C48     		ldr	r0, .L106+8
 1333 0022 FFF7FEFF 		bl	UART_PutString
 1334              	.LVL160:
 1335 0026 6FE0     		b	.L98
 1336              	.L100:
 349:.\wifi.c      ****         }
 350:.\wifi.c      ****         else if(strcmp(uartString,"Print all") == 0)
 1337              		.loc 1 350 0
 1338 0028 3848     		ldr	r0, .L106
 1339 002a 0430     		add	r0, r0, #4
 1340 002c 3A49     		ldr	r1, .L106+12
 1341 002e FFF7FEFF 		bl	strcmp
 1342              	.LVL161:
 1343 0032 0028     		cmp	r0, #0
 1344 0034 1AD1     		bne	.L101
 351:.\wifi.c      ****         {
 352:.\wifi.c      ****             sprintf(sendString,"Moist:%d Rotate:%d CurMoist:%d CurWater:%d CurBattery:%d CurTemp:%d
 1345              		.loc 1 352 0
 1346 0036 3949     		ldr	r1, .L106+16
 1347 0038 8D88     		ldrh	r5, [r1, #4]
 1348 003a 4C88     		ldrh	r4, [r1, #2]
 1349 003c 0889     		ldrh	r0, [r1, #8]
 1350 003e 384B     		ldr	r3, .L106+20
 1351 0040 0022     		mov	r2, #0
 1352 0042 9A56     		ldrsb	r2, [r3, r2]
 1353 0044 374B     		ldr	r3, .L106+24
 1354 0046 1B78     		ldrb	r3, [r3]
 1355 0048 5BB2     		sxtb	r3, r3
 1356 004a 0026     		mov	r6, #0
 1357 004c 895F     		ldrsh	r1, [r1, r6]
 1358 004e 0091     		str	r1, [sp]
 1359 0050 29B2     		sxth	r1, r5
 1360 0052 0191     		str	r1, [sp, #4]
 1361 0054 21B2     		sxth	r1, r4
 1362 0056 0291     		str	r1, [sp, #8]
 1363 0058 01B2     		sxth	r1, r0
 1364 005a 0391     		str	r1, [sp, #12]
 1365 005c 04A8     		add	r0, sp, #16
 1366 005e 3249     		ldr	r1, .L106+28
 1367 0060 FFF7FEFF 		bl	sprintf
 1368              	.LVL162:
 353:.\wifi.c      ****             UART_PutString(sendString);
 1369              		.loc 1 353 0
 1370 0064 04A8     		add	r0, sp, #16
 1371 0066 FFF7FEFF 		bl	UART_PutString
 1372              	.LVL163:
 1373 006a 4DE0     		b	.L98
 1374              	.L101:
 354:.\wifi.c      ****         }
ARM GAS  C:\temp\ccfmIfoz.s 			page 32


 355:.\wifi.c      ****         else if(strcmp(uartString,"Print sensor1") == 0)
 1375              		.loc 1 355 0
 1376 006c 2748     		ldr	r0, .L106
 1377 006e 0430     		add	r0, r0, #4
 1378 0070 2E49     		ldr	r1, .L106+32
 1379 0072 FFF7FEFF 		bl	strcmp
 1380              	.LVL164:
 1381 0076 0028     		cmp	r0, #0
 1382 0078 11D1     		bne	.L102
 356:.\wifi.c      ****         {
 357:.\wifi.c      ****             updateSensors();
 1383              		.loc 1 357 0
 1384 007a FFF7FEFF 		bl	updateSensors
 1385              	.LVL165:
 358:.\wifi.c      ****             CyDelay(200);
 1386              		.loc 1 358 0
 1387 007e C820     		mov	r0, #200
 1388 0080 FFF7FEFF 		bl	CyDelay
 1389              	.LVL166:
 359:.\wifi.c      ****             
 360:.\wifi.c      ****             sendSensorData(sensors_);
 1390              		.loc 1 360 0
 1391 0084 254B     		ldr	r3, .L106+16
 1392 0086 1A88     		ldrh	r2, [r3]
 1393 0088 5888     		ldrh	r0, [r3, #2]
 1394 008a 0004     		lsl	r0, r0, #16
 1395 008c 1043     		orr	r0, r2
 1396 008e 9A88     		ldrh	r2, [r3, #4]
 1397 0090 D988     		ldrh	r1, [r3, #6]
 1398 0092 0904     		lsl	r1, r1, #16
 1399 0094 1143     		orr	r1, r2
 1400 0096 1A89     		ldrh	r2, [r3, #8]
 1401 0098 FFF7FEFF 		bl	sendSensorData
 1402              	.LVL167:
 1403 009c 34E0     		b	.L98
 1404              	.L102:
 361:.\wifi.c      ****         }
 362:.\wifi.c      ****         else if(strcmp(uartString,"Print sensor2") == 0)
 1405              		.loc 1 362 0
 1406 009e 1B48     		ldr	r0, .L106
 1407 00a0 0430     		add	r0, r0, #4
 1408 00a2 2349     		ldr	r1, .L106+36
 1409 00a4 FFF7FEFF 		bl	strcmp
 1410              	.LVL168:
 1411 00a8 0028     		cmp	r0, #0
 1412 00aa 08D1     		bne	.L103
 363:.\wifi.c      ****         {
 364:.\wifi.c      ****             testSendSensorData(50,50,70,90,50);
 1413              		.loc 1 364 0
 1414 00ac 3223     		mov	r3, #50
 1415 00ae 0093     		str	r3, [sp]
 1416 00b0 3230     		add	r0, r0, #50
 1417 00b2 3221     		mov	r1, #50
 1418 00b4 4622     		mov	r2, #70
 1419 00b6 2833     		add	r3, r3, #40
 1420 00b8 FFF7FEFF 		bl	testSendSensorData
 1421              	.LVL169:
ARM GAS  C:\temp\ccfmIfoz.s 			page 33


 1422 00bc 24E0     		b	.L98
 1423              	.L103:
 365:.\wifi.c      ****         }
 366:.\wifi.c      ****         else if(strcmp(uartString,"Print sensor3") == 0)
 1424              		.loc 1 366 0
 1425 00be 1348     		ldr	r0, .L106
 1426 00c0 0430     		add	r0, r0, #4
 1427 00c2 1C49     		ldr	r1, .L106+40
 1428 00c4 FFF7FEFF 		bl	strcmp
 1429              	.LVL170:
 1430 00c8 0028     		cmp	r0, #0
 1431 00ca 08D1     		bne	.L104
 367:.\wifi.c      ****         {
 368:.\wifi.c      ****            testSendSensorData(65,20,50,120,30);
 1432              		.loc 1 368 0
 1433 00cc 1E23     		mov	r3, #30
 1434 00ce 0093     		str	r3, [sp]
 1435 00d0 4130     		add	r0, r0, #65
 1436 00d2 1421     		mov	r1, #20
 1437 00d4 3222     		mov	r2, #50
 1438 00d6 5A33     		add	r3, r3, #90
 1439 00d8 FFF7FEFF 		bl	testSendSensorData
 1440              	.LVL171:
 1441 00dc 14E0     		b	.L98
 1442              	.L104:
 369:.\wifi.c      ****         }   
 370:.\wifi.c      ****         else if(strcmp(uartString,"Update sensor") == 0)
 1443              		.loc 1 370 0
 1444 00de 0B48     		ldr	r0, .L106
 1445 00e0 0430     		add	r0, r0, #4
 1446 00e2 1549     		ldr	r1, .L106+44
 1447 00e4 FFF7FEFF 		bl	strcmp
 1448              	.LVL172:
 1449 00e8 0028     		cmp	r0, #0
 1450 00ea 02D1     		bne	.L105
 371:.\wifi.c      ****         {
 372:.\wifi.c      ****             updateSensors();
 1451              		.loc 1 372 0
 1452 00ec FFF7FEFF 		bl	updateSensors
 1453              	.LVL173:
 1454 00f0 0AE0     		b	.L98
 1455              	.L105:
 373:.\wifi.c      ****         }
 374:.\wifi.c      ****         else if(strcmp(uartString,"Receive data") == 0)
 1456              		.loc 1 374 0
 1457 00f2 0648     		ldr	r0, .L106
 1458 00f4 0430     		add	r0, r0, #4
 1459 00f6 1149     		ldr	r1, .L106+48
 1460 00f8 FFF7FEFF 		bl	strcmp
 1461              	.LVL174:
 1462 00fc 0028     		cmp	r0, #0
 1463 00fe 03D1     		bne	.L98
 375:.\wifi.c      ****         {
 376:.\wifi.c      ****             updatePlantData(uartString);
 1464              		.loc 1 376 0
 1465 0100 0248     		ldr	r0, .L106
 1466 0102 0430     		add	r0, r0, #4
ARM GAS  C:\temp\ccfmIfoz.s 			page 34


 1467 0104 FFF7FEFF 		bl	updatePlantData
 1468              	.LVL175:
 1469              	.L98:
 377:.\wifi.c      ****         }
 378:.\wifi.c      ****     }
 379:.\wifi.c      **** }
 1470              		.loc 1 379 0
 1471 0108 24B0     		add	sp, sp, #144
 1472              		@ sp needed
 1473 010a 70BD     		pop	{r4, r5, r6, pc}
 1474              	.L107:
 1475              		.align	2
 1476              	.L106:
 1477 010c 00010000 		.word	.LANCHOR2
 1478 0110 80010000 		.word	.LC70
 1479 0114 84010000 		.word	.LC72
 1480 0118 90010000 		.word	.LC74
 1481 011c 00000000 		.word	sensors_
 1482 0120 00000000 		.word	wantedMoisture
 1483 0124 00000000 		.word	wantedRotate
 1484 0128 9C010000 		.word	.LC77
 1485 012c E4010000 		.word	.LC81
 1486 0130 F4010000 		.word	.LC83
 1487 0134 04020000 		.word	.LC85
 1488 0138 14020000 		.word	.LC87
 1489 013c 24020000 		.word	.LC89
 1490              		.cfi_endproc
 1491              	.LFE45:
 1492              		.size	tick, .-tick
 1493              		.global	plantID
 1494              		.global	uartString
 1495              		.global	stringRX
 1496              		.global	stringRX_len
 1497              		.comm	RXnewData,1,1
 1498              		.comm	sensors_,10,4
 1499              		.comm	wantedRotate,1,1
 1500              		.comm	water,1,1
 1501              		.comm	battery,1,1
 1502              		.comm	light,1,1
 1503              		.comm	maxTemperature,1,1
 1504              		.comm	wantedMoisture,1,1
 1505              		.comm	ID,1,1
 1506              		.comm	indexnummer1,2,2
 1507              		.comm	lightlevel,16,4
 1508              		.comm	batterylevel,16,4
 1509              		.comm	temperature,16,4
 1510              		.comm	waterlevel,100,4
 1511              		.comm	moisture,100,4
 1512              		.data
 1513              		.set	.LANCHOR1,. + 0
 1514              		.type	plantID, %object
 1515              		.size	plantID, 1
 1516              	plantID:
 1517 0000 2D       		.byte	45
 1518              		.section	.rodata.str1.4,"aMS",%progbits,1
 1519              		.align	2
 1520              	.LC4:
ARM GAS  C:\temp\ccfmIfoz.s 			page 35


 1521 0000 41542B43 		.ascii	"AT+CWJAP=\"%s\",\"%s\"\015\012\000"
 1521      574A4150 
 1521      3D222573 
 1521      222C2225 
 1521      73220D0A 
 1522 0015 000000   		.space	3
 1523              	.LC6:
 1524 0018 4F4B00   		.ascii	"OK\000"
 1525 001b 00       		.space	1
 1526              	.LC8:
 1527 001c 41542B43 		.ascii	"AT+CIPSTART=\"TCP\",\"%s\",%d\015\012\000"
 1527      49505354 
 1527      4152543D 
 1527      22544350 
 1527      222C2225 
 1528              	.LC11:
 1529 0038 41542B43 		.ascii	"AT+CIPSEND=%d\015\012\000"
 1529      49505345 
 1529      4E443D25 
 1529      640D0A00 
 1530              	.LC13:
 1531 0048 6C696E6B 		.ascii	"link\000"
 1531      00
 1532 004d 000000   		.space	3
 1533              	.LC15:
 1534 0050 3139322E 		.ascii	"192.168.1.117\000"
 1534      3136382E 
 1534      312E3131 
 1534      3700
 1535 005e 0000     		.space	2
 1536              	.LC18:
 1537 0060 2B495044 		.ascii	"+IPD\000"
 1537      00
 1538 0065 000000   		.space	3
 1539              	.LC21:
 1540 0068 56616C75 		.ascii	"Value outside permitted plant set data for Moist\015"
 1540      65206F75 
 1540      74736964 
 1540      65207065 
 1540      726D6974 
 1541 0099 0A00     		.ascii	"\012\000"
 1542 009b 00       		.space	1
 1543              	.LC24:
 1544 009c 56616C75 		.ascii	"Value outside permitted plant set data for Rotate\015"
 1544      65206F75 
 1544      74736964 
 1544      65207065 
 1544      726D6974 
 1545 00ce 0A00     		.ascii	"\012\000"
 1546              	.LC27:
 1547 00d0 4D256325 		.ascii	"M%c%d\000"
 1547      6400
 1548 00d6 0000     		.space	2
 1549              	.LC30:
 1550 00d8 4D256330 		.ascii	"M%c0%d\000"
 1550      256400
 1551 00df 00       		.space	1
ARM GAS  C:\temp\ccfmIfoz.s 			page 36


 1552              	.LC32:
 1553 00e0 4D256330 		.ascii	"M%c00%d\000"
 1553      30256400 
 1554              	.LC34:
 1555 00e8 57256325 		.ascii	"W%c%d\000"
 1555      6400
 1556 00ee 0000     		.space	2
 1557              	.LC36:
 1558 00f0 57256330 		.ascii	"W%c0%d\000"
 1558      256400
 1559 00f7 00       		.space	1
 1560              	.LC38:
 1561 00f8 57256330 		.ascii	"W%c00%d\000"
 1561      30256400 
 1562              	.LC40:
 1563 0100 4C256325 		.ascii	"L%c%d\000"
 1563      6400
 1564 0106 0000     		.space	2
 1565              	.LC42:
 1566 0108 4C256330 		.ascii	"L%c0%d\000"
 1566      256400
 1567 010f 00       		.space	1
 1568              	.LC44:
 1569 0110 4C256330 		.ascii	"L%c00%d\000"
 1569      30256400 
 1570              	.LC46:
 1571 0118 42256325 		.ascii	"B%c%d\000"
 1571      6400
 1572 011e 0000     		.space	2
 1573              	.LC48:
 1574 0120 42256330 		.ascii	"B%c0%d\000"
 1574      256400
 1575 0127 00       		.space	1
 1576              	.LC50:
 1577 0128 42256330 		.ascii	"B%c00%d\000"
 1577      30256400 
 1578              	.LC52:
 1579 0130 54256325 		.ascii	"T%c%d\000"
 1579      6400
 1580 0136 0000     		.space	2
 1581              	.LC54:
 1582 0138 54256330 		.ascii	"T%c0%d\000"
 1582      256400
 1583 013f 00       		.space	1
 1584              	.LC56:
 1585 0140 54256330 		.ascii	"T%c00%d\000"
 1585      30256400 
 1586              	.LC58:
 1587 0148 25732573 		.ascii	"%s%s%s%s%s\000"
 1587      25732573 
 1587      257300
 1588 0153 00       		.space	1
 1589              	.LC61:
 1590 0154 41542B43 		.ascii	"AT+CIPCLOSE\015\012\000"
 1590      4950434C 
 1590      4F53450D 
 1590      0A00
ARM GAS  C:\temp\ccfmIfoz.s 			page 37


 1591 0162 0000     		.space	2
 1592              	.LC65:
 1593 0164 41542B52 		.ascii	"AT+RST\015\012\000"
 1593      53540D0A 
 1593      00
 1594 016d 000000   		.space	3
 1595              	.LC67:
 1596 0170 41542B43 		.ascii	"AT+CWMODE=3\015\012\000"
 1596      574D4F44 
 1596      453D330D 
 1596      0A00
 1597 017e 0000     		.space	2
 1598              	.LC70:
 1599 0180 474700   		.ascii	"GG\000"
 1600 0183 00       		.space	1
 1601              	.LC72:
 1602 0184 576F726B 		.ascii	"Works...\000"
 1602      732E2E2E 
 1602      00
 1603 018d 000000   		.space	3
 1604              	.LC74:
 1605 0190 5072696E 		.ascii	"Print all\000"
 1605      7420616C 
 1605      6C00
 1606 019a 0000     		.space	2
 1607              	.LC77:
 1608 019c 4D6F6973 		.ascii	"Moist:%d Rotate:%d CurMoist:%d CurWater:%d CurBatte"
 1608      743A2564 
 1608      20526F74 
 1608      6174653A 
 1608      25642043 
 1609 01cf 72793A25 		.ascii	"ry:%d CurTemp:%d\015\012\000"
 1609      64204375 
 1609      7254656D 
 1609      703A2564 
 1609      0D0A00
 1610 01e2 0000     		.space	2
 1611              	.LC81:
 1612 01e4 5072696E 		.ascii	"Print sensor1\000"
 1612      74207365 
 1612      6E736F72 
 1612      3100
 1613 01f2 0000     		.space	2
 1614              	.LC83:
 1615 01f4 5072696E 		.ascii	"Print sensor2\000"
 1615      74207365 
 1615      6E736F72 
 1615      3200
 1616 0202 0000     		.space	2
 1617              	.LC85:
 1618 0204 5072696E 		.ascii	"Print sensor3\000"
 1618      74207365 
 1618      6E736F72 
 1618      3300
 1619 0212 0000     		.space	2
 1620              	.LC87:
 1621 0214 55706461 		.ascii	"Update sensor\000"
ARM GAS  C:\temp\ccfmIfoz.s 			page 38


 1621      74652073 
 1621      656E736F 
 1621      7200
 1622 0222 0000     		.space	2
 1623              	.LC89:
 1624 0224 52656365 		.ascii	"Receive data\000"
 1624      69766520 
 1624      64617461 
 1624      00
 1625 0231 000000   		.bss
 1626              		.align	2
 1627              		.set	.LANCHOR0,. + 0
 1628              		.set	.LANCHOR2,. + 256
 1629              		.type	stringRX_len, %object
 1630              		.size	stringRX_len, 1
 1631              	stringRX_len:
 1632 0000 00       		.space	1
 1633 0001 000000   		.space	3
 1634              		.type	stringRX, %object
 1635              		.size	stringRX, 255
 1636              	stringRX:
 1637 0004 00000000 		.space	255
 1637      00000000 
 1637      00000000 
 1637      00000000 
 1637      00000000 
 1638 0103 00       		.space	1
 1639              		.type	uartString, %object
 1640              		.size	uartString, 255
 1641              	uartString:
 1642 0104 00000000 		.space	255
 1642      00000000 
 1642      00000000 
 1642      00000000 
 1642      00000000 
 1643 0203 00       		.text
 1644              	.Letext0:
 1645              		.file 2 "c:\\program files (x86)\\cypress\\psoc creator\\3.3\\psoc creator\\import\\gnu\\arm\\4.9.
 1646              		.file 3 "Generated_Source\\PSoC4/cytypes.h"
 1647              		.file 4 "./Plantcontrol.h"
 1648              		.file 5 "./sensors.h"
 1649              		.file 6 "./motor.h"
 1650              		.file 7 "Generated_Source\\PSoC4/UART.h"
 1651              		.file 8 "c:\\program files (x86)\\cypress\\psoc creator\\3.3\\psoc creator\\import\\gnu\\arm\\4.9.
 1652              		.file 9 "c:\\program files (x86)\\cypress\\psoc creator\\3.3\\psoc creator\\import\\gnu\\arm\\4.9.
 1653              		.file 10 "Generated_Source\\PSoC4/CyLib.h"
 1654              		.file 11 "c:\\program files (x86)\\cypress\\psoc creator\\3.3\\psoc creator\\import\\gnu\\arm\\4.9
 1655              		.file 12 "Generated_Source\\PSoC4/isr_UART.h"
 1656              		.file 13 ".\\wifi.h"