ARM GAS  C:\temp\ccUyuQab.s 			page 1


   1              		.cpu cortex-m0
   2              		.fpu softvfp
   3              		.eabi_attribute 20, 1
   4              		.eabi_attribute 21, 1
   5              		.eabi_attribute 23, 3
   6              		.eabi_attribute 24, 1
   7              		.eabi_attribute 25, 1
   8              		.eabi_attribute 26, 1
   9              		.eabi_attribute 30, 4
  10              		.eabi_attribute 34, 0
  11              		.eabi_attribute 18, 4
  12              		.code	16
  13              		.file	"ADC_SAR_Seq_1.c"
  14              		.text
  15              	.Ltext0:
  16              		.cfi_sections	.debug_frame
  17              		.global	__aeabi_idiv
  18              		.section	.text.ADC_SAR_Seq_1_Init,"ax",%progbits
  19              		.align	1
  20              		.global	ADC_SAR_Seq_1_Init
  21              		.code	16
  22              		.thumb_func
  23              		.type	ADC_SAR_Seq_1_Init, %function
  24              	ADC_SAR_Seq_1_Init:
  25              	.LFB1:
  26              		.file 1 ".\\Generated_Source\\PSoC4\\ADC_SAR_Seq_1.c"
   1:.\Generated_Source\PSoC4/ADC_SAR_Seq_1.c **** /*******************************************************************************
   2:.\Generated_Source\PSoC4/ADC_SAR_Seq_1.c **** * File Name: ADC_SAR_Seq_1.c
   3:.\Generated_Source\PSoC4/ADC_SAR_Seq_1.c **** * Version 2.20
   4:.\Generated_Source\PSoC4/ADC_SAR_Seq_1.c **** *
   5:.\Generated_Source\PSoC4/ADC_SAR_Seq_1.c **** * Description:
   6:.\Generated_Source\PSoC4/ADC_SAR_Seq_1.c **** *  This file provides the source code to the API for the Sequencing Successive
   7:.\Generated_Source\PSoC4/ADC_SAR_Seq_1.c **** *  Approximation ADC Component Component.
   8:.\Generated_Source\PSoC4/ADC_SAR_Seq_1.c **** *
   9:.\Generated_Source\PSoC4/ADC_SAR_Seq_1.c **** * Note:
  10:.\Generated_Source\PSoC4/ADC_SAR_Seq_1.c **** *
  11:.\Generated_Source\PSoC4/ADC_SAR_Seq_1.c **** ********************************************************************************
  12:.\Generated_Source\PSoC4/ADC_SAR_Seq_1.c **** * Copyright 2008-2015, Cypress Semiconductor Corporation.  All rights reserved.
  13:.\Generated_Source\PSoC4/ADC_SAR_Seq_1.c **** * You may use this file only in accordance with the license, terms, conditions,
  14:.\Generated_Source\PSoC4/ADC_SAR_Seq_1.c **** * disclaimers, and limitations in the end user license agreement accompanying
  15:.\Generated_Source\PSoC4/ADC_SAR_Seq_1.c **** * the software package with which this file was provided.
  16:.\Generated_Source\PSoC4/ADC_SAR_Seq_1.c **** *******************************************************************************/
  17:.\Generated_Source\PSoC4/ADC_SAR_Seq_1.c **** 
  18:.\Generated_Source\PSoC4/ADC_SAR_Seq_1.c **** #include "ADC_SAR_Seq_1.h"
  19:.\Generated_Source\PSoC4/ADC_SAR_Seq_1.c **** 
  20:.\Generated_Source\PSoC4/ADC_SAR_Seq_1.c **** 
  21:.\Generated_Source\PSoC4/ADC_SAR_Seq_1.c **** /***************************************
  22:.\Generated_Source\PSoC4/ADC_SAR_Seq_1.c **** * Global data allocation
  23:.\Generated_Source\PSoC4/ADC_SAR_Seq_1.c **** ***************************************/
  24:.\Generated_Source\PSoC4/ADC_SAR_Seq_1.c **** uint8 ADC_SAR_Seq_1_initVar = 0u;
  25:.\Generated_Source\PSoC4/ADC_SAR_Seq_1.c **** volatile int16 ADC_SAR_Seq_1_offset[ADC_SAR_Seq_1_TOTAL_CHANNELS_NUM];
  26:.\Generated_Source\PSoC4/ADC_SAR_Seq_1.c **** volatile int32 ADC_SAR_Seq_1_countsPer10Volt[ADC_SAR_Seq_1_TOTAL_CHANNELS_NUM];   /* Gain compensat
  27:.\Generated_Source\PSoC4/ADC_SAR_Seq_1.c **** 
  28:.\Generated_Source\PSoC4/ADC_SAR_Seq_1.c **** 
  29:.\Generated_Source\PSoC4/ADC_SAR_Seq_1.c **** /***************************************
  30:.\Generated_Source\PSoC4/ADC_SAR_Seq_1.c **** * Local data allocation
  31:.\Generated_Source\PSoC4/ADC_SAR_Seq_1.c **** ***************************************/
ARM GAS  C:\temp\ccUyuQab.s 			page 2


  32:.\Generated_Source\PSoC4/ADC_SAR_Seq_1.c **** /* Channels configuration generated by customiser */
  33:.\Generated_Source\PSoC4/ADC_SAR_Seq_1.c **** static const uint32 CYCODE ADC_SAR_Seq_1_channelsConfig[] = { 0x00000000u, 0x00000000u, 0x00000000u
  34:.\Generated_Source\PSoC4/ADC_SAR_Seq_1.c ****  0x00000000u };
  35:.\Generated_Source\PSoC4/ADC_SAR_Seq_1.c **** 
  36:.\Generated_Source\PSoC4/ADC_SAR_Seq_1.c **** 
  37:.\Generated_Source\PSoC4/ADC_SAR_Seq_1.c **** /*******************************************************************************
  38:.\Generated_Source\PSoC4/ADC_SAR_Seq_1.c **** * Function Name: ADC_SAR_Seq_1_Start
  39:.\Generated_Source\PSoC4/ADC_SAR_Seq_1.c **** ********************************************************************************
  40:.\Generated_Source\PSoC4/ADC_SAR_Seq_1.c **** *
  41:.\Generated_Source\PSoC4/ADC_SAR_Seq_1.c **** * Summary:
  42:.\Generated_Source\PSoC4/ADC_SAR_Seq_1.c **** *  Performs all required initialization for this component
  43:.\Generated_Source\PSoC4/ADC_SAR_Seq_1.c **** *  and enables the power. The power will be set to the appropriate
  44:.\Generated_Source\PSoC4/ADC_SAR_Seq_1.c **** *  power based on the clock frequency.
  45:.\Generated_Source\PSoC4/ADC_SAR_Seq_1.c **** *
  46:.\Generated_Source\PSoC4/ADC_SAR_Seq_1.c **** * Parameters:
  47:.\Generated_Source\PSoC4/ADC_SAR_Seq_1.c **** *  None.
  48:.\Generated_Source\PSoC4/ADC_SAR_Seq_1.c **** *
  49:.\Generated_Source\PSoC4/ADC_SAR_Seq_1.c **** * Return:
  50:.\Generated_Source\PSoC4/ADC_SAR_Seq_1.c **** *  None.
  51:.\Generated_Source\PSoC4/ADC_SAR_Seq_1.c **** *
  52:.\Generated_Source\PSoC4/ADC_SAR_Seq_1.c **** * Global variables:
  53:.\Generated_Source\PSoC4/ADC_SAR_Seq_1.c **** *  The ADC_SAR_Seq_1_initVar variable is used to indicate when/if initial
  54:.\Generated_Source\PSoC4/ADC_SAR_Seq_1.c **** *  configuration of this component has happened. The variable is initialized to
  55:.\Generated_Source\PSoC4/ADC_SAR_Seq_1.c **** *  zero and set to 1 the first time ADC_Start() is called. This allows for
  56:.\Generated_Source\PSoC4/ADC_SAR_Seq_1.c **** *  component Re-Start without re-initialization in all subsequent calls to the
  57:.\Generated_Source\PSoC4/ADC_SAR_Seq_1.c **** *  ADC_SAR_Seq_1_Start() routine.
  58:.\Generated_Source\PSoC4/ADC_SAR_Seq_1.c **** *  If re-initialization of the component is required the variable should be set
  59:.\Generated_Source\PSoC4/ADC_SAR_Seq_1.c **** *  to zero before call of ADC_SAR_Seq_1_Start() routine, or the user may call
  60:.\Generated_Source\PSoC4/ADC_SAR_Seq_1.c **** *  ADC_SAR_Seq_1_Init() and ADC_SAR_Seq_1_Enable() as done in the
  61:.\Generated_Source\PSoC4/ADC_SAR_Seq_1.c **** *  ADC_SAR_Seq_1_Start() routine.
  62:.\Generated_Source\PSoC4/ADC_SAR_Seq_1.c **** *
  63:.\Generated_Source\PSoC4/ADC_SAR_Seq_1.c **** *******************************************************************************/
  64:.\Generated_Source\PSoC4/ADC_SAR_Seq_1.c **** void ADC_SAR_Seq_1_Start(void)
  65:.\Generated_Source\PSoC4/ADC_SAR_Seq_1.c **** {
  66:.\Generated_Source\PSoC4/ADC_SAR_Seq_1.c ****     /* If not Initialized then initialize all required hardware and software */
  67:.\Generated_Source\PSoC4/ADC_SAR_Seq_1.c ****     if(ADC_SAR_Seq_1_initVar == 0u)
  68:.\Generated_Source\PSoC4/ADC_SAR_Seq_1.c ****     {
  69:.\Generated_Source\PSoC4/ADC_SAR_Seq_1.c ****         ADC_SAR_Seq_1_Init();
  70:.\Generated_Source\PSoC4/ADC_SAR_Seq_1.c ****         ADC_SAR_Seq_1_initVar = 1u;
  71:.\Generated_Source\PSoC4/ADC_SAR_Seq_1.c ****     }
  72:.\Generated_Source\PSoC4/ADC_SAR_Seq_1.c ****     ADC_SAR_Seq_1_Enable();
  73:.\Generated_Source\PSoC4/ADC_SAR_Seq_1.c **** }
  74:.\Generated_Source\PSoC4/ADC_SAR_Seq_1.c **** 
  75:.\Generated_Source\PSoC4/ADC_SAR_Seq_1.c **** 
  76:.\Generated_Source\PSoC4/ADC_SAR_Seq_1.c **** /*******************************************************************************
  77:.\Generated_Source\PSoC4/ADC_SAR_Seq_1.c **** * Function Name: ADC_SAR_Seq_1_Init
  78:.\Generated_Source\PSoC4/ADC_SAR_Seq_1.c **** ********************************************************************************
  79:.\Generated_Source\PSoC4/ADC_SAR_Seq_1.c **** *
  80:.\Generated_Source\PSoC4/ADC_SAR_Seq_1.c **** * Summary:
  81:.\Generated_Source\PSoC4/ADC_SAR_Seq_1.c **** *  Initialize component's parameters to the parameters set by user in the
  82:.\Generated_Source\PSoC4/ADC_SAR_Seq_1.c **** *  customizer of the component placed onto schematic. Usually called in
  83:.\Generated_Source\PSoC4/ADC_SAR_Seq_1.c **** *  ADC_SAR_Seq_1_Start().
  84:.\Generated_Source\PSoC4/ADC_SAR_Seq_1.c **** *
  85:.\Generated_Source\PSoC4/ADC_SAR_Seq_1.c **** * Parameters:
  86:.\Generated_Source\PSoC4/ADC_SAR_Seq_1.c **** *  None.
  87:.\Generated_Source\PSoC4/ADC_SAR_Seq_1.c **** *
  88:.\Generated_Source\PSoC4/ADC_SAR_Seq_1.c **** * Return:
ARM GAS  C:\temp\ccUyuQab.s 			page 3


  89:.\Generated_Source\PSoC4/ADC_SAR_Seq_1.c **** *  None.
  90:.\Generated_Source\PSoC4/ADC_SAR_Seq_1.c **** *
  91:.\Generated_Source\PSoC4/ADC_SAR_Seq_1.c **** * Global variables:
  92:.\Generated_Source\PSoC4/ADC_SAR_Seq_1.c **** *  The ADC_SAR_Seq_1_offset variable is initialized.
  93:.\Generated_Source\PSoC4/ADC_SAR_Seq_1.c **** *
  94:.\Generated_Source\PSoC4/ADC_SAR_Seq_1.c **** *******************************************************************************/
  95:.\Generated_Source\PSoC4/ADC_SAR_Seq_1.c **** void ADC_SAR_Seq_1_Init(void)
  96:.\Generated_Source\PSoC4/ADC_SAR_Seq_1.c **** {
  27              		.loc 1 96 0
  28              		.cfi_startproc
  29 0000 F8B5     		push	{r3, r4, r5, r6, r7, lr}
  30              		.cfi_def_cfa_offset 24
  31              		.cfi_offset 3, -24
  32              		.cfi_offset 4, -20
  33              		.cfi_offset 5, -16
  34              		.cfi_offset 6, -12
  35              		.cfi_offset 7, -8
  36              		.cfi_offset 14, -4
  97:.\Generated_Source\PSoC4/ADC_SAR_Seq_1.c ****     uint32 chNum;
  98:.\Generated_Source\PSoC4/ADC_SAR_Seq_1.c ****     uint32 tmpRegVal;
  99:.\Generated_Source\PSoC4/ADC_SAR_Seq_1.c ****     int32 counts;
 100:.\Generated_Source\PSoC4/ADC_SAR_Seq_1.c **** 
 101:.\Generated_Source\PSoC4/ADC_SAR_Seq_1.c ****     #if(ADC_SAR_Seq_1_TOTAL_CHANNELS_NUM > 1u)
 102:.\Generated_Source\PSoC4/ADC_SAR_Seq_1.c ****         static const uint8 CYCODE ADC_SAR_Seq_1_InputsPlacement[] =
 103:.\Generated_Source\PSoC4/ADC_SAR_Seq_1.c ****         {
 104:.\Generated_Source\PSoC4/ADC_SAR_Seq_1.c ****             (uint8)(ADC_SAR_Seq_1_cy_psoc4_sarmux_8__CH_0_PORT << 4u) |
 105:.\Generated_Source\PSoC4/ADC_SAR_Seq_1.c ****             (uint8)ADC_SAR_Seq_1_cy_psoc4_sarmux_8__CH_0_PIN
 106:.\Generated_Source\PSoC4/ADC_SAR_Seq_1.c ****             ,(uint8)(ADC_SAR_Seq_1_cy_psoc4_sarmux_8__CH_1_PORT << 4u) |
 107:.\Generated_Source\PSoC4/ADC_SAR_Seq_1.c ****              (uint8)ADC_SAR_Seq_1_cy_psoc4_sarmux_8__CH_1_PIN
 108:.\Generated_Source\PSoC4/ADC_SAR_Seq_1.c ****             #if(ADC_SAR_Seq_1_TOTAL_CHANNELS_NUM > 2u)
 109:.\Generated_Source\PSoC4/ADC_SAR_Seq_1.c ****                 ,(uint8)(ADC_SAR_Seq_1_cy_psoc4_sarmux_8__CH_2_PORT << 4u) |
 110:.\Generated_Source\PSoC4/ADC_SAR_Seq_1.c ****                  (uint8)ADC_SAR_Seq_1_cy_psoc4_sarmux_8__CH_2_PIN
 111:.\Generated_Source\PSoC4/ADC_SAR_Seq_1.c ****             #endif /* End ADC_SAR_Seq_1_TOTAL_CHANNELS_NUM > 2u */
 112:.\Generated_Source\PSoC4/ADC_SAR_Seq_1.c ****             #if(ADC_SAR_Seq_1_TOTAL_CHANNELS_NUM > 3u)
 113:.\Generated_Source\PSoC4/ADC_SAR_Seq_1.c ****                 ,(uint8)(ADC_SAR_Seq_1_cy_psoc4_sarmux_8__CH_3_PORT << 4u) |
 114:.\Generated_Source\PSoC4/ADC_SAR_Seq_1.c ****                  (uint8)ADC_SAR_Seq_1_cy_psoc4_sarmux_8__CH_3_PIN
 115:.\Generated_Source\PSoC4/ADC_SAR_Seq_1.c ****             #endif /* End ADC_SAR_Seq_1_TOTAL_CHANNELS_NUM > 3u */
 116:.\Generated_Source\PSoC4/ADC_SAR_Seq_1.c ****             #if(ADC_SAR_Seq_1_TOTAL_CHANNELS_NUM > 4u)
 117:.\Generated_Source\PSoC4/ADC_SAR_Seq_1.c ****                 ,(uint8)(ADC_SAR_Seq_1_cy_psoc4_sarmux_8__CH_4_PORT << 4u) |
 118:.\Generated_Source\PSoC4/ADC_SAR_Seq_1.c ****                  (uint8)ADC_SAR_Seq_1_cy_psoc4_sarmux_8__CH_4_PIN
 119:.\Generated_Source\PSoC4/ADC_SAR_Seq_1.c ****             #endif /* End ADC_SAR_Seq_1_TOTAL_CHANNELS_NUM > 4u */
 120:.\Generated_Source\PSoC4/ADC_SAR_Seq_1.c ****             #if(ADC_SAR_Seq_1_TOTAL_CHANNELS_NUM > 5u)
 121:.\Generated_Source\PSoC4/ADC_SAR_Seq_1.c ****                 ,(uint8)(ADC_SAR_Seq_1_cy_psoc4_sarmux_8__CH_5_PORT << 4u) |
 122:.\Generated_Source\PSoC4/ADC_SAR_Seq_1.c ****                  (uint8)ADC_SAR_Seq_1_cy_psoc4_sarmux_8__CH_5_PIN
 123:.\Generated_Source\PSoC4/ADC_SAR_Seq_1.c ****             #endif /* End ADC_SAR_Seq_1_TOTAL_CHANNELS_NUM > 5u */
 124:.\Generated_Source\PSoC4/ADC_SAR_Seq_1.c ****             #if(ADC_SAR_Seq_1_TOTAL_CHANNELS_NUM > 6u)
 125:.\Generated_Source\PSoC4/ADC_SAR_Seq_1.c ****                 ,(uint8)(ADC_SAR_Seq_1_cy_psoc4_sarmux_8__CH_6_PORT << 4u) |
 126:.\Generated_Source\PSoC4/ADC_SAR_Seq_1.c ****                  (uint8)ADC_SAR_Seq_1_cy_psoc4_sarmux_8__CH_6_PIN
 127:.\Generated_Source\PSoC4/ADC_SAR_Seq_1.c ****             #endif /* End ADC_SAR_Seq_1_TOTAL_CHANNELS_NUM > 6u */
 128:.\Generated_Source\PSoC4/ADC_SAR_Seq_1.c ****             #if(ADC_SAR_Seq_1_TOTAL_CHANNELS_NUM > 7u)
 129:.\Generated_Source\PSoC4/ADC_SAR_Seq_1.c ****                 ,(uint8)(ADC_SAR_Seq_1_cy_psoc4_sarmux_8__CH_7_PORT << 4u) |
 130:.\Generated_Source\PSoC4/ADC_SAR_Seq_1.c ****                  (uint8)ADC_SAR_Seq_1_cy_psoc4_sarmux_8__CH_7_PIN
 131:.\Generated_Source\PSoC4/ADC_SAR_Seq_1.c ****             #endif /* End ADC_SAR_Seq_1_TOTAL_CHANNELS_NUM > 7u */
 132:.\Generated_Source\PSoC4/ADC_SAR_Seq_1.c ****             #if(ADC_SAR_Seq_1_TOTAL_CHANNELS_NUM > 8u)
 133:.\Generated_Source\PSoC4/ADC_SAR_Seq_1.c ****                 ,(uint8)(ADC_SAR_Seq_1_cy_psoc4_sarmux_8__CH_8_PORT << 4u) |
 134:.\Generated_Source\PSoC4/ADC_SAR_Seq_1.c ****                  (uint8)ADC_SAR_Seq_1_cy_psoc4_sarmux_8__CH_8_PIN
 135:.\Generated_Source\PSoC4/ADC_SAR_Seq_1.c ****             #endif /* End ADC_SAR_Seq_1_TOTAL_CHANNELS_NUM > 8u */
ARM GAS  C:\temp\ccUyuQab.s 			page 4


 136:.\Generated_Source\PSoC4/ADC_SAR_Seq_1.c ****             #if(ADC_SAR_Seq_1_TOTAL_CHANNELS_NUM > 9u)
 137:.\Generated_Source\PSoC4/ADC_SAR_Seq_1.c ****                 ,(uint8)(ADC_SAR_Seq_1_cy_psoc4_sarmux_8__CH_9_PORT << 4u) |
 138:.\Generated_Source\PSoC4/ADC_SAR_Seq_1.c ****                  (uint8)ADC_SAR_Seq_1_cy_psoc4_sarmux_8__CH_9_PIN
 139:.\Generated_Source\PSoC4/ADC_SAR_Seq_1.c ****             #endif /* End ADC_SAR_Seq_1_TOTAL_CHANNELS_NUM > 9u */
 140:.\Generated_Source\PSoC4/ADC_SAR_Seq_1.c ****             #if(ADC_SAR_Seq_1_TOTAL_CHANNELS_NUM > 10u)
 141:.\Generated_Source\PSoC4/ADC_SAR_Seq_1.c ****                 ,(uint8)(ADC_SAR_Seq_1_cy_psoc4_sarmux_8__CH_10_PORT << 4u) |
 142:.\Generated_Source\PSoC4/ADC_SAR_Seq_1.c ****                  (uint8)ADC_SAR_Seq_1_cy_psoc4_sarmux_8__CH_10_PIN
 143:.\Generated_Source\PSoC4/ADC_SAR_Seq_1.c ****             #endif /* End ADC_SAR_Seq_1_TOTAL_CHANNELS_NUM > 10u */
 144:.\Generated_Source\PSoC4/ADC_SAR_Seq_1.c ****             #if(ADC_SAR_Seq_1_TOTAL_CHANNELS_NUM > 11u)
 145:.\Generated_Source\PSoC4/ADC_SAR_Seq_1.c ****                 ,(uint8)(ADC_SAR_Seq_1_cy_psoc4_sarmux_8__CH_11_PORT << 4u) |
 146:.\Generated_Source\PSoC4/ADC_SAR_Seq_1.c ****                  (uint8)ADC_SAR_Seq_1_cy_psoc4_sarmux_8__CH_11_PIN
 147:.\Generated_Source\PSoC4/ADC_SAR_Seq_1.c ****             #endif /* End ADC_SAR_Seq_1_TOTAL_CHANNELS_NUM > 11u */
 148:.\Generated_Source\PSoC4/ADC_SAR_Seq_1.c ****             #if(ADC_SAR_Seq_1_TOTAL_CHANNELS_NUM > 12u)
 149:.\Generated_Source\PSoC4/ADC_SAR_Seq_1.c ****                 ,(uint8)(ADC_SAR_Seq_1_cy_psoc4_sarmux_8__CH_12_PORT << 4u) |
 150:.\Generated_Source\PSoC4/ADC_SAR_Seq_1.c ****                  (uint8)ADC_SAR_Seq_1_cy_psoc4_sarmux_8__CH_12_PIN
 151:.\Generated_Source\PSoC4/ADC_SAR_Seq_1.c ****             #endif /* End ADC_SAR_Seq_1_TOTAL_CHANNELS_NUM > 12u */
 152:.\Generated_Source\PSoC4/ADC_SAR_Seq_1.c ****             #if(ADC_SAR_Seq_1_TOTAL_CHANNELS_NUM > 13u)
 153:.\Generated_Source\PSoC4/ADC_SAR_Seq_1.c ****                 ,(uint8)(ADC_SAR_Seq_1_cy_psoc4_sarmux_8__CH_13_PORT << 4u) |
 154:.\Generated_Source\PSoC4/ADC_SAR_Seq_1.c ****                  (uint8)ADC_SAR_Seq_1_cy_psoc4_sarmux_8__CH_13_PIN
 155:.\Generated_Source\PSoC4/ADC_SAR_Seq_1.c ****             #endif /* End ADC_SAR_Seq_1_TOTAL_CHANNELS_NUM > 13u */
 156:.\Generated_Source\PSoC4/ADC_SAR_Seq_1.c ****             #if(ADC_SAR_Seq_1_TOTAL_CHANNELS_NUM > 14u)
 157:.\Generated_Source\PSoC4/ADC_SAR_Seq_1.c ****                 ,(uint8)(ADC_SAR_Seq_1_cy_psoc4_sarmux_8__CH_14_PORT << 4u) |
 158:.\Generated_Source\PSoC4/ADC_SAR_Seq_1.c ****                  (uint8)ADC_SAR_Seq_1_cy_psoc4_sarmux_8__CH_14_PIN
 159:.\Generated_Source\PSoC4/ADC_SAR_Seq_1.c ****             #endif /* End ADC_SAR_Seq_1_TOTAL_CHANNELS_NUM > 14u */
 160:.\Generated_Source\PSoC4/ADC_SAR_Seq_1.c ****             #if(ADC_SAR_Seq_1_TOTAL_CHANNELS_NUM > 15u)
 161:.\Generated_Source\PSoC4/ADC_SAR_Seq_1.c ****                 ,(uint8)(ADC_SAR_Seq_1_cy_psoc4_sarmux_8__CH_15_PORT << 4u) |
 162:.\Generated_Source\PSoC4/ADC_SAR_Seq_1.c ****                  (uint8)ADC_SAR_Seq_1_cy_psoc4_sarmux_8__CH_15_PIN
 163:.\Generated_Source\PSoC4/ADC_SAR_Seq_1.c ****             #endif /* End ADC_SAR_Seq_1_TOTAL_CHANNELS_NUM > 15u */
 164:.\Generated_Source\PSoC4/ADC_SAR_Seq_1.c ****             #if(ADC_SAR_Seq_1_TOTAL_CHANNELS_NUM > 16u)
 165:.\Generated_Source\PSoC4/ADC_SAR_Seq_1.c ****                 ,(uint8)(ADC_SAR_Seq_1_cy_psoc4_sarmux_8__CH_16_PORT << 4u) |
 166:.\Generated_Source\PSoC4/ADC_SAR_Seq_1.c ****                  (uint8)ADC_SAR_Seq_1_cy_psoc4_sarmux_8__CH_16_PIN
 167:.\Generated_Source\PSoC4/ADC_SAR_Seq_1.c ****             #endif /* End ADC_SAR_Seq_1_TOTAL_CHANNELS_NUM > 16u */
 168:.\Generated_Source\PSoC4/ADC_SAR_Seq_1.c ****         };
 169:.\Generated_Source\PSoC4/ADC_SAR_Seq_1.c ****     #endif /* End ADC_SAR_Seq_1_TOTAL_CHANNELS_NUM > 1u */
 170:.\Generated_Source\PSoC4/ADC_SAR_Seq_1.c **** 
 171:.\Generated_Source\PSoC4/ADC_SAR_Seq_1.c ****     #if(ADC_SAR_Seq_1_IRQ_REMOVE == 0u)
 172:.\Generated_Source\PSoC4/ADC_SAR_Seq_1.c ****         /* Start and set interrupt vector */
 173:.\Generated_Source\PSoC4/ADC_SAR_Seq_1.c ****         CyIntSetPriority(ADC_SAR_Seq_1_INTC_NUMBER, ADC_SAR_Seq_1_INTC_PRIOR_NUMBER);
  37              		.loc 1 173 0
  38 0002 0E20     		mov	r0, #14
  39 0004 0321     		mov	r1, #3
  40 0006 FFF7FEFF 		bl	CyIntSetPriority
  41              	.LVL0:
 174:.\Generated_Source\PSoC4/ADC_SAR_Seq_1.c ****         (void)CyIntSetVector(ADC_SAR_Seq_1_INTC_NUMBER, &ADC_SAR_Seq_1_ISR);
  42              		.loc 1 174 0
  43 000a 0E20     		mov	r0, #14
  44 000c 3549     		ldr	r1, .L19
  45 000e FFF7FEFF 		bl	CyIntSetVector
  46              	.LVL1:
 175:.\Generated_Source\PSoC4/ADC_SAR_Seq_1.c ****     #endif   /* End ADC_SAR_Seq_1_IRQ_REMOVE */
 176:.\Generated_Source\PSoC4/ADC_SAR_Seq_1.c **** 
 177:.\Generated_Source\PSoC4/ADC_SAR_Seq_1.c ****     /* Init SAR and MUX registers */
 178:.\Generated_Source\PSoC4/ADC_SAR_Seq_1.c ****     ADC_SAR_Seq_1_SAR_CHAN_EN_REG = ADC_SAR_Seq_1_DEFAULT_EN_CHANNELS;
  47              		.loc 1 178 0
  48 0012 1F22     		mov	r2, #31
  49 0014 344B     		ldr	r3, .L19+4
  50 0016 1A60     		str	r2, [r3]
ARM GAS  C:\temp\ccUyuQab.s 			page 5


 179:.\Generated_Source\PSoC4/ADC_SAR_Seq_1.c ****     ADC_SAR_Seq_1_SAR_CTRL_REG |= ADC_SAR_Seq_1_DEFAULT_CTRL_REG_CFG | 
 180:.\Generated_Source\PSoC4/ADC_SAR_Seq_1.c ****         /* Enable the SAR internal pump when global pump is enabled */
 181:.\Generated_Source\PSoC4/ADC_SAR_Seq_1.c ****         (((ADC_SAR_Seq_1_PUMP_CTRL_REG & ADC_SAR_Seq_1_PUMP_CTRL_ENABLED) != 0u) ? 
  51              		.loc 1 181 0
  52 0018 344B     		ldr	r3, .L19+8
  53 001a 1B68     		ldr	r3, [r3]
 179:.\Generated_Source\PSoC4/ADC_SAR_Seq_1.c ****     ADC_SAR_Seq_1_SAR_CTRL_REG |= ADC_SAR_Seq_1_DEFAULT_CTRL_REG_CFG | 
  54              		.loc 1 179 0
  55 001c 002B     		cmp	r3, #0
  56 001e 01DB     		blt	.L9
  57 0020 3349     		ldr	r1, .L19+12
  58 0022 00E0     		b	.L2
  59              	.L9:
  60 0024 3349     		ldr	r1, .L19+16
  61              	.L2:
 182:.\Generated_Source\PSoC4/ADC_SAR_Seq_1.c ****         ADC_SAR_Seq_1_BOOSTPUMP_EN : 0u);
 183:.\Generated_Source\PSoC4/ADC_SAR_Seq_1.c ****     ADC_SAR_Seq_1_SAR_SAMPLE_CTRL_REG = ADC_SAR_Seq_1_DEFAULT_SAMPLE_CTRL_REG_CFG;
 184:.\Generated_Source\PSoC4/ADC_SAR_Seq_1.c ****     ADC_SAR_Seq_1_SAR_RANGE_THRES_REG = ADC_SAR_Seq_1_DEFAULT_RANGE_THRES_REG_CFG;
 185:.\Generated_Source\PSoC4/ADC_SAR_Seq_1.c ****     ADC_SAR_Seq_1_SAR_RANGE_COND_REG  = ADC_SAR_Seq_1_COMPARE_MODE;
  62              		.loc 1 185 0 discriminator 4
  63 0026 0024     		mov	r4, #0
 179:.\Generated_Source\PSoC4/ADC_SAR_Seq_1.c ****     ADC_SAR_Seq_1_SAR_CTRL_REG |= ADC_SAR_Seq_1_DEFAULT_CTRL_REG_CFG | 
  64              		.loc 1 179 0 discriminator 4
  65 0028 334A     		ldr	r2, .L19+20
 186:.\Generated_Source\PSoC4/ADC_SAR_Seq_1.c ****     ADC_SAR_Seq_1_SAR_SAMPLE_TIME01_REG = ADC_SAR_Seq_1_DEFAULT_SAMPLE_TIME01_REG_CFG;
 187:.\Generated_Source\PSoC4/ADC_SAR_Seq_1.c ****     ADC_SAR_Seq_1_SAR_SAMPLE_TIME23_REG = ADC_SAR_Seq_1_DEFAULT_SAMPLE_TIME23_REG_CFG;
 188:.\Generated_Source\PSoC4/ADC_SAR_Seq_1.c ****     
 189:.\Generated_Source\PSoC4/ADC_SAR_Seq_1.c ****     /* Connect Vm to VSSA when even one channel is single-ended or multiple channels configured */
 190:.\Generated_Source\PSoC4/ADC_SAR_Seq_1.c ****     #if(ADC_SAR_Seq_1_DEFAULT_MUX_SWITCH0 != 0u)
 191:.\Generated_Source\PSoC4/ADC_SAR_Seq_1.c ****         ADC_SAR_Seq_1_MUX_SWITCH0_REG |= ADC_SAR_Seq_1_DEFAULT_MUX_SWITCH0;
 192:.\Generated_Source\PSoC4/ADC_SAR_Seq_1.c ****         /* Set MUX_HW_CTRL_VSSA in MUX_SWITCH_HW_CTRL when multiple channels enabled */
 193:.\Generated_Source\PSoC4/ADC_SAR_Seq_1.c ****         #if(ADC_SAR_Seq_1_TOTAL_CHANNELS_NUM > 1u)
 194:.\Generated_Source\PSoC4/ADC_SAR_Seq_1.c ****             ADC_SAR_Seq_1_MUX_SWITCH_HW_CTRL_REG |= ADC_SAR_Seq_1_DEFAULT_MUX_SWITCH0;
 195:.\Generated_Source\PSoC4/ADC_SAR_Seq_1.c ****         #endif /* ADC_SAR_Seq_1_TOTAL_CHANNELS_NUM > 1u */
 196:.\Generated_Source\PSoC4/ADC_SAR_Seq_1.c ****     #endif /*ADC_SAR_Seq_1_CHANNELS_MODE !=0 */
 197:.\Generated_Source\PSoC4/ADC_SAR_Seq_1.c **** 
 198:.\Generated_Source\PSoC4/ADC_SAR_Seq_1.c ****     ADC_SAR_Seq_1_SAR_SATURATE_INTR_MASK_REG = 0u;
  66              		.loc 1 198 0 discriminator 4
  67 002a 344E     		ldr	r6, .L19+24
 179:.\Generated_Source\PSoC4/ADC_SAR_Seq_1.c ****         /* Enable the SAR internal pump when global pump is enabled */
  68              		.loc 1 179 0 discriminator 4
  69 002c 1368     		ldr	r3, [r2]
 199:.\Generated_Source\PSoC4/ADC_SAR_Seq_1.c ****     ADC_SAR_Seq_1_SAR_RANGE_INTR_MASK_REG = 0u;
  70              		.loc 1 199 0 discriminator 4
  71 002e 344F     		ldr	r7, .L19+28
 179:.\Generated_Source\PSoC4/ADC_SAR_Seq_1.c ****         /* Enable the SAR internal pump when global pump is enabled */
  72              		.loc 1 179 0 discriminator 4
  73 0030 0B43     		orr	r3, r1
  74 0032 1360     		str	r3, [r2]
 183:.\Generated_Source\PSoC4/ADC_SAR_Seq_1.c ****     ADC_SAR_Seq_1_SAR_RANGE_THRES_REG = ADC_SAR_Seq_1_DEFAULT_RANGE_THRES_REG_CFG;
  75              		.loc 1 183 0 discriminator 4
  76 0034 334A     		ldr	r2, .L19+32
  77 0036 344B     		ldr	r3, .L19+36
  78 0038 1A60     		str	r2, [r3]
 184:.\Generated_Source\PSoC4/ADC_SAR_Seq_1.c ****     ADC_SAR_Seq_1_SAR_RANGE_COND_REG  = ADC_SAR_Seq_1_COMPARE_MODE;
  79              		.loc 1 184 0 discriminator 4
  80 003a 344A     		ldr	r2, .L19+40
ARM GAS  C:\temp\ccUyuQab.s 			page 6


  81 003c 344B     		ldr	r3, .L19+44
  82 003e 1A60     		str	r2, [r3]
 185:.\Generated_Source\PSoC4/ADC_SAR_Seq_1.c ****     ADC_SAR_Seq_1_SAR_SAMPLE_TIME01_REG = ADC_SAR_Seq_1_DEFAULT_SAMPLE_TIME01_REG_CFG;
  83              		.loc 1 185 0 discriminator 4
  84 0040 344B     		ldr	r3, .L19+48
 186:.\Generated_Source\PSoC4/ADC_SAR_Seq_1.c ****     ADC_SAR_Seq_1_SAR_SAMPLE_TIME23_REG = ADC_SAR_Seq_1_DEFAULT_SAMPLE_TIME23_REG_CFG;
  85              		.loc 1 186 0 discriminator 4
  86 0042 354A     		ldr	r2, .L19+52
 185:.\Generated_Source\PSoC4/ADC_SAR_Seq_1.c ****     ADC_SAR_Seq_1_SAR_SAMPLE_TIME01_REG = ADC_SAR_Seq_1_DEFAULT_SAMPLE_TIME01_REG_CFG;
  87              		.loc 1 185 0 discriminator 4
  88 0044 1C60     		str	r4, [r3]
 186:.\Generated_Source\PSoC4/ADC_SAR_Seq_1.c ****     ADC_SAR_Seq_1_SAR_SAMPLE_TIME23_REG = ADC_SAR_Seq_1_DEFAULT_SAMPLE_TIME23_REG_CFG;
  89              		.loc 1 186 0 discriminator 4
  90 0046 354B     		ldr	r3, .L19+56
  91 0048 1360     		str	r3, [r2]
 187:.\Generated_Source\PSoC4/ADC_SAR_Seq_1.c ****     
  92              		.loc 1 187 0 discriminator 4
  93 004a 354A     		ldr	r2, .L19+60
  94 004c 1360     		str	r3, [r2]
 200:.\Generated_Source\PSoC4/ADC_SAR_Seq_1.c ****     ADC_SAR_Seq_1_SAR_INTR_MASK_REG = ADC_SAR_Seq_1_SAR_INTR_MASK;
  95              		.loc 1 200 0 discriminator 4
  96 004e 0122     		mov	r2, #1
  97 0050 344B     		ldr	r3, .L19+64
 198:.\Generated_Source\PSoC4/ADC_SAR_Seq_1.c ****     ADC_SAR_Seq_1_SAR_RANGE_INTR_MASK_REG = 0u;
  98              		.loc 1 198 0 discriminator 4
  99 0052 3460     		str	r4, [r6]
 199:.\Generated_Source\PSoC4/ADC_SAR_Seq_1.c ****     ADC_SAR_Seq_1_SAR_INTR_MASK_REG = ADC_SAR_Seq_1_SAR_INTR_MASK;
 100              		.loc 1 199 0 discriminator 4
 101 0054 3C60     		str	r4, [r7]
 102              		.loc 1 200 0 discriminator 4
 103 0056 1A60     		str	r2, [r3]
 201:.\Generated_Source\PSoC4/ADC_SAR_Seq_1.c **** 
 202:.\Generated_Source\PSoC4/ADC_SAR_Seq_1.c ****     #if(ADC_SAR_Seq_1_CY_SAR_IP_VER == ADC_SAR_Seq_1_CY_SAR_IP_VER0)
 203:.\Generated_Source\PSoC4/ADC_SAR_Seq_1.c ****         ADC_SAR_Seq_1_ANA_TRIM_REG = ADC_SAR_Seq_1_TRIM_COEF;
 104              		.loc 1 203 0 discriminator 4
 105 0058 334B     		ldr	r3, .L19+68
 106 005a 9218     		add	r2, r2, r2
 107 005c 1A60     		str	r2, [r3]
 204:.\Generated_Source\PSoC4/ADC_SAR_Seq_1.c ****     #endif /* (ADC_SAR_Seq_1_CY_SAR_IP_VER == ADC_SAR_Seq_1_CY_SAR_IP_VER0) */
 205:.\Generated_Source\PSoC4/ADC_SAR_Seq_1.c **** 
 206:.\Generated_Source\PSoC4/ADC_SAR_Seq_1.c ****     /* Read and modify default configuration based on characterization */
 207:.\Generated_Source\PSoC4/ADC_SAR_Seq_1.c ****     tmpRegVal = ADC_SAR_Seq_1_SAR_DFT_CTRL_REG;
 108              		.loc 1 207 0 discriminator 4
 109 005e 334A     		ldr	r2, .L19+72
 208:.\Generated_Source\PSoC4/ADC_SAR_Seq_1.c ****     tmpRegVal &= (uint32)~ADC_SAR_Seq_1_DCEN;
 110              		.loc 1 208 0 discriminator 4
 111 0060 334B     		ldr	r3, .L19+76
 207:.\Generated_Source\PSoC4/ADC_SAR_Seq_1.c ****     tmpRegVal &= (uint32)~ADC_SAR_Seq_1_DCEN;
 112              		.loc 1 207 0 discriminator 4
 113 0062 1168     		ldr	r1, [r2]
 114              	.LVL2:
 115              		.loc 1 208 0 discriminator 4
 116 0064 0B40     		and	r3, r1
 117              	.LVL3:
 209:.\Generated_Source\PSoC4/ADC_SAR_Seq_1.c ****     
 210:.\Generated_Source\PSoC4/ADC_SAR_Seq_1.c ****     #if(ADC_SAR_Seq_1_CY_SAR_IP_VER == ADC_SAR_Seq_1_CY_SAR_IP_VER0)
 211:.\Generated_Source\PSoC4/ADC_SAR_Seq_1.c ****         #if(ADC_SAR_Seq_1_NOMINAL_CLOCK_FREQ > (ADC_SAR_Seq_1_MAX_FREQUENCY / 2))
ARM GAS  C:\temp\ccUyuQab.s 			page 7


 212:.\Generated_Source\PSoC4/ADC_SAR_Seq_1.c ****             tmpRegVal |= ADC_SAR_Seq_1_SEL_CSEL_DFT_CHAR;
 118              		.loc 1 212 0 discriminator 4
 119 0066 C021     		mov	r1, #192
 120 0068 8904     		lsl	r1, r1, #18
 121 006a 0B43     		orr	r3, r1
 122              	.LVL4:
 213:.\Generated_Source\PSoC4/ADC_SAR_Seq_1.c ****         #else  /* clock speed < 9 Mhz */
 214:.\Generated_Source\PSoC4/ADC_SAR_Seq_1.c ****             tmpRegVal |= ADC_SAR_Seq_1_DLY_INC;
 215:.\Generated_Source\PSoC4/ADC_SAR_Seq_1.c ****         #endif /* clock speed > 9 Mhz */
 216:.\Generated_Source\PSoC4/ADC_SAR_Seq_1.c ****     #else
 217:.\Generated_Source\PSoC4/ADC_SAR_Seq_1.c ****         #if ((ADC_SAR_Seq_1_DEFAULT_VREF_SEL == ADC_SAR_Seq_1__INTERNAL1024) || \
 218:.\Generated_Source\PSoC4/ADC_SAR_Seq_1.c ****              (ADC_SAR_Seq_1_DEFAULT_VREF_SEL == ADC_SAR_Seq_1__INTERNALVREF))
 219:.\Generated_Source\PSoC4/ADC_SAR_Seq_1.c ****             tmpRegVal |= ADC_SAR_Seq_1_DLY_INC;
 220:.\Generated_Source\PSoC4/ADC_SAR_Seq_1.c ****         #else
 221:.\Generated_Source\PSoC4/ADC_SAR_Seq_1.c ****             tmpRegVal |= ADC_SAR_Seq_1_DCEN;
 222:.\Generated_Source\PSoC4/ADC_SAR_Seq_1.c ****             tmpRegVal &= (uint32)~ADC_SAR_Seq_1_DLY_INC;
 223:.\Generated_Source\PSoC4/ADC_SAR_Seq_1.c ****         #endif /* ((ADC_SAR_Seq_1_DEFAULT_VREF_SEL == ADC_SAR_Seq_1__INTERNAL1024) || \
 224:.\Generated_Source\PSoC4/ADC_SAR_Seq_1.c ****                    (ADC_SAR_Seq_1_DEFAULT_VREF_SEL == ADC_SAR_Seq_1__INTERNALVREF)) */
 225:.\Generated_Source\PSoC4/ADC_SAR_Seq_1.c ****     #endif /* (ADC_SAR_Seq_1_CY_SAR_IP_VER == ADC_SAR_Seq_1_CY_SAR_IP_VER0) */
 226:.\Generated_Source\PSoC4/ADC_SAR_Seq_1.c ****     
 227:.\Generated_Source\PSoC4/ADC_SAR_Seq_1.c ****     ADC_SAR_Seq_1_SAR_DFT_CTRL_REG = tmpRegVal;
 123              		.loc 1 227 0 discriminator 4
 124 006c 1360     		str	r3, [r2]
 125              	.LVL5:
 126              	.L8:
 228:.\Generated_Source\PSoC4/ADC_SAR_Seq_1.c **** 
 229:.\Generated_Source\PSoC4/ADC_SAR_Seq_1.c ****     #if(ADC_SAR_Seq_1_MAX_RESOLUTION != ADC_SAR_Seq_1_RESOLUTION_12)
 230:.\Generated_Source\PSoC4/ADC_SAR_Seq_1.c ****         ADC_SAR_Seq_1_WOUNDING_REG = ADC_SAR_Seq_1_ALT_WOUNDING;
 231:.\Generated_Source\PSoC4/ADC_SAR_Seq_1.c ****     #endif /* ADC_SAR_Seq_1_MAX_RESOLUTION != ADC_SAR_Seq_1_RESOLUTION_12 */
 232:.\Generated_Source\PSoC4/ADC_SAR_Seq_1.c **** 
 233:.\Generated_Source\PSoC4/ADC_SAR_Seq_1.c ****     for(chNum = 0u; chNum < ADC_SAR_Seq_1_TOTAL_CHANNELS_NUM; chNum++)
 234:.\Generated_Source\PSoC4/ADC_SAR_Seq_1.c ****     {
 235:.\Generated_Source\PSoC4/ADC_SAR_Seq_1.c ****         tmpRegVal = (ADC_SAR_Seq_1_channelsConfig[chNum] & ADC_SAR_Seq_1_CHANNEL_CONFIG_MASK);
 127              		.loc 1 235 0
 128 006e 314B     		ldr	r3, .L19+80
 129 0070 DC22     		mov	r2, #220
 236:.\Generated_Source\PSoC4/ADC_SAR_Seq_1.c ****         #if(ADC_SAR_Seq_1_TOTAL_CHANNELS_NUM > 1u)
 237:.\Generated_Source\PSoC4/ADC_SAR_Seq_1.c ****             tmpRegVal |= ADC_SAR_Seq_1_InputsPlacement[chNum];
 130              		.loc 1 237 0
 131 0072 181C     		mov	r0, r3
 132 0074 A500     		lsl	r5, r4, #2
 235:.\Generated_Source\PSoC4/ADC_SAR_Seq_1.c ****         #if(ADC_SAR_Seq_1_TOTAL_CHANNELS_NUM > 1u)
 133              		.loc 1 235 0
 134 0076 E958     		ldr	r1, [r5, r3]
 135              		.loc 1 237 0
 136 0078 1430     		add	r0, r0, #20
 137 007a 205C     		ldrb	r0, [r4, r0]
 235:.\Generated_Source\PSoC4/ADC_SAR_Seq_1.c ****         #if(ADC_SAR_Seq_1_TOTAL_CHANNELS_NUM > 1u)
 138              		.loc 1 235 0
 139 007c 9201     		lsl	r2, r2, #6
 140 007e 0A40     		and	r2, r1
 141              	.LVL6:
 142              		.loc 1 237 0
 143 0080 0243     		orr	r2, r0
 144              	.LVL7:
 238:.\Generated_Source\PSoC4/ADC_SAR_Seq_1.c ****         #endif /* End ADC_SAR_Seq_1_TOTAL_CHANNELS_NUM > 1u */
 239:.\Generated_Source\PSoC4/ADC_SAR_Seq_1.c ****         
ARM GAS  C:\temp\ccUyuQab.s 			page 8


 240:.\Generated_Source\PSoC4/ADC_SAR_Seq_1.c ****         
 241:.\Generated_Source\PSoC4/ADC_SAR_Seq_1.c ****         /* When the part is limited to 10-bit then the SUB_RESOLUTION bit
 242:.\Generated_Source\PSoC4/ADC_SAR_Seq_1.c ****         *  will be ignored and the RESOLUTION bit selects between 10-bit
 243:.\Generated_Source\PSoC4/ADC_SAR_Seq_1.c ****         *  (0) and 8-bit (1) resolution.
 244:.\Generated_Source\PSoC4/ADC_SAR_Seq_1.c ****         */
 245:.\Generated_Source\PSoC4/ADC_SAR_Seq_1.c ****         #if((ADC_SAR_Seq_1_MAX_RESOLUTION != ADC_SAR_Seq_1_RESOLUTION_12) && \
 246:.\Generated_Source\PSoC4/ADC_SAR_Seq_1.c ****             (ADC_SAR_Seq_1_ALT_WOUNDING == ADC_SAR_Seq_1_WOUNDING_10BIT))
 247:.\Generated_Source\PSoC4/ADC_SAR_Seq_1.c ****             tmpRegVal &= (uint32)(~ADC_SAR_Seq_1_ALT_RESOLUTION_ON);
 248:.\Generated_Source\PSoC4/ADC_SAR_Seq_1.c ****         #endif /* ADC_SAR_Seq_1_MAX_RESOLUTION != ADC_SAR_Seq_1_RESOLUTION_12 */
 249:.\Generated_Source\PSoC4/ADC_SAR_Seq_1.c **** 
 250:.\Generated_Source\PSoC4/ADC_SAR_Seq_1.c ****         #if(ADC_SAR_Seq_1_INJ_CHANNEL_ENABLED)
 251:.\Generated_Source\PSoC4/ADC_SAR_Seq_1.c ****         if(chNum < ADC_SAR_Seq_1_SEQUENCED_CHANNELS_NUM)
 252:.\Generated_Source\PSoC4/ADC_SAR_Seq_1.c ****         #endif /* ADC_SAR_Seq_1_INJ_CHANNEL_ENABLED */
 253:.\Generated_Source\PSoC4/ADC_SAR_Seq_1.c ****         {
 254:.\Generated_Source\PSoC4/ADC_SAR_Seq_1.c ****             CY_SET_REG32((reg32 *)(ADC_SAR_Seq_1_SAR_CHAN_CONFIG_IND + (uint32)(chNum << 2)), tmpRe
 145              		.loc 1 254 0
 146 0082 2D48     		ldr	r0, .L19+84
 147 0084 2818     		add	r0, r5, r0
 148 0086 0260     		str	r2, [r0]
 255:.\Generated_Source\PSoC4/ADC_SAR_Seq_1.c **** 
 256:.\Generated_Source\PSoC4/ADC_SAR_Seq_1.c ****             if((ADC_SAR_Seq_1_channelsConfig[chNum] & ADC_SAR_Seq_1_IS_SATURATE_EN_MASK) != 0u)
 149              		.loc 1 256 0
 150 0088 0122     		mov	r2, #1
 151              	.LVL8:
 152 008a 1142     		tst	r1, r2
 153 008c 03D0     		beq	.L3
 257:.\Generated_Source\PSoC4/ADC_SAR_Seq_1.c ****             {
 258:.\Generated_Source\PSoC4/ADC_SAR_Seq_1.c ****                 ADC_SAR_Seq_1_SAR_SATURATE_INTR_MASK_REG |= (uint16)((uint16)1 << chNum);
 154              		.loc 1 258 0
 155 008e A240     		lsl	r2, r2, r4
 156 0090 3168     		ldr	r1, [r6]
 157 0092 0A43     		orr	r2, r1
 158 0094 3260     		str	r2, [r6]
 159              	.LVL9:
 160              	.L3:
 259:.\Generated_Source\PSoC4/ADC_SAR_Seq_1.c ****             }
 260:.\Generated_Source\PSoC4/ADC_SAR_Seq_1.c **** 
 261:.\Generated_Source\PSoC4/ADC_SAR_Seq_1.c ****             if((ADC_SAR_Seq_1_channelsConfig[chNum] & ADC_SAR_Seq_1_IS_RANGE_CTRL_EN_MASK) != 0u)
 161              		.loc 1 261 0
 162 0096 5A59     		ldr	r2, [r3, r5]
 163 0098 9207     		lsl	r2, r2, #30
 164 009a 04D5     		bpl	.L4
 262:.\Generated_Source\PSoC4/ADC_SAR_Seq_1.c ****             {
 263:.\Generated_Source\PSoC4/ADC_SAR_Seq_1.c ****                 ADC_SAR_Seq_1_SAR_RANGE_INTR_MASK_REG |= (uint16)((uint16)1 << chNum);
 165              		.loc 1 263 0
 166 009c 0122     		mov	r2, #1
 167 009e A240     		lsl	r2, r2, r4
 168 00a0 3968     		ldr	r1, [r7]
 169 00a2 0A43     		orr	r2, r1
 170 00a4 3A60     		str	r2, [r7]
 171              	.L4:
 264:.\Generated_Source\PSoC4/ADC_SAR_Seq_1.c ****             }
 265:.\Generated_Source\PSoC4/ADC_SAR_Seq_1.c ****         }
 266:.\Generated_Source\PSoC4/ADC_SAR_Seq_1.c ****         #if(ADC_SAR_Seq_1_INJ_CHANNEL_ENABLED)
 267:.\Generated_Source\PSoC4/ADC_SAR_Seq_1.c ****             else
 268:.\Generated_Source\PSoC4/ADC_SAR_Seq_1.c ****             {
 269:.\Generated_Source\PSoC4/ADC_SAR_Seq_1.c ****                 CY_SET_REG32(ADC_SAR_Seq_1_SAR_INJ_CHAN_CONFIG_PTR, tmpRegVal | ADC_SAR_Seq_1_INJ_T
ARM GAS  C:\temp\ccUyuQab.s 			page 9


 270:.\Generated_Source\PSoC4/ADC_SAR_Seq_1.c **** 
 271:.\Generated_Source\PSoC4/ADC_SAR_Seq_1.c ****                 if((ADC_SAR_Seq_1_channelsConfig[chNum] & ADC_SAR_Seq_1_IS_SATURATE_EN_MASK) != 0u)
 272:.\Generated_Source\PSoC4/ADC_SAR_Seq_1.c ****                 {
 273:.\Generated_Source\PSoC4/ADC_SAR_Seq_1.c ****                     ADC_SAR_Seq_1_SAR_INTR_MASK_REG |= ADC_SAR_Seq_1_INJ_SATURATE_MASK;
 274:.\Generated_Source\PSoC4/ADC_SAR_Seq_1.c ****                 }
 275:.\Generated_Source\PSoC4/ADC_SAR_Seq_1.c **** 
 276:.\Generated_Source\PSoC4/ADC_SAR_Seq_1.c ****                 if((ADC_SAR_Seq_1_channelsConfig[chNum] & ADC_SAR_Seq_1_IS_RANGE_CTRL_EN_MASK) != 0
 277:.\Generated_Source\PSoC4/ADC_SAR_Seq_1.c ****                 {
 278:.\Generated_Source\PSoC4/ADC_SAR_Seq_1.c ****                     ADC_SAR_Seq_1_SAR_INTR_MASK_REG |= ADC_SAR_Seq_1_INJ_RANGE_MASK;
 279:.\Generated_Source\PSoC4/ADC_SAR_Seq_1.c ****                 }
 280:.\Generated_Source\PSoC4/ADC_SAR_Seq_1.c ****             }
 281:.\Generated_Source\PSoC4/ADC_SAR_Seq_1.c ****         #endif /* ADC_SAR_Seq_1_INJ_CHANNEL_ENABLED */
 282:.\Generated_Source\PSoC4/ADC_SAR_Seq_1.c **** 
 283:.\Generated_Source\PSoC4/ADC_SAR_Seq_1.c ****         if((ADC_SAR_Seq_1_channelsConfig[chNum] & ADC_SAR_Seq_1_ALT_RESOLUTION_ON) != 0u)
 172              		.loc 1 283 0
 173 00a6 5B59     		ldr	r3, [r3, r5]
 174              	.LVL10:
 284:.\Generated_Source\PSoC4/ADC_SAR_Seq_1.c ****         {
 285:.\Generated_Source\PSoC4/ADC_SAR_Seq_1.c ****                counts = (int32)ADC_SAR_Seq_1_DEFAULT_MAX_WRK_ALT;
 175              		.loc 1 285 0
 176 00a8 8020     		mov	r0, #128
 283:.\Generated_Source\PSoC4/ADC_SAR_Seq_1.c ****         {
 177              		.loc 1 283 0
 178 00aa 9A05     		lsl	r2, r3, #22
 179 00ac 01D4     		bmi	.L10
 286:.\Generated_Source\PSoC4/ADC_SAR_Seq_1.c ****         }
 287:.\Generated_Source\PSoC4/ADC_SAR_Seq_1.c ****         else
 288:.\Generated_Source\PSoC4/ADC_SAR_Seq_1.c ****         {
 289:.\Generated_Source\PSoC4/ADC_SAR_Seq_1.c ****                counts = (int32)ADC_SAR_Seq_1_SAR_WRK_MAX_12BIT;
 180              		.loc 1 289 0
 181 00ae 4001     		lsl	r0, r0, #5
 182 00b0 00E0     		b	.L5
 183              	.L10:
 285:.\Generated_Source\PSoC4/ADC_SAR_Seq_1.c ****         }
 184              		.loc 1 285 0
 185 00b2 C000     		lsl	r0, r0, #3
 186              	.L5:
 187              	.LVL11:
 188 00b4 2149     		ldr	r1, .L19+88
 189 00b6 6200     		lsl	r2, r4, #1
 290:.\Generated_Source\PSoC4/ADC_SAR_Seq_1.c ****         }
 291:.\Generated_Source\PSoC4/ADC_SAR_Seq_1.c **** 
 292:.\Generated_Source\PSoC4/ADC_SAR_Seq_1.c ****         if((ADC_SAR_Seq_1_channelsConfig[chNum] & ADC_SAR_Seq_1_DIFFERENTIAL_EN) == 0u)
 190              		.loc 1 292 0
 191 00b8 DB05     		lsl	r3, r3, #23
 192 00ba 03D4     		bmi	.L6
 293:.\Generated_Source\PSoC4/ADC_SAR_Seq_1.c ****         {
 294:.\Generated_Source\PSoC4/ADC_SAR_Seq_1.c ****             #if((ADC_SAR_Seq_1_DEFAULT_SE_RESULT_FORMAT_SEL == ADC_SAR_Seq_1__FSIGNED) && \
 295:.\Generated_Source\PSoC4/ADC_SAR_Seq_1.c ****                 (ADC_SAR_Seq_1_DEFAULT_NEG_INPUT_SEL == ADC_SAR_Seq_1__VREF))
 296:.\Generated_Source\PSoC4/ADC_SAR_Seq_1.c ****                 /* Set offset to the minus half scale to convert results to unsigned format */
 297:.\Generated_Source\PSoC4/ADC_SAR_Seq_1.c ****                 ADC_SAR_Seq_1_offset[chNum] = (int16)(counts / -2);
 193              		.loc 1 297 0
 194 00bc 4308     		lsr	r3, r0, #1
 195 00be 5B42     		neg	r3, r3
 196 00c0 9BB2     		uxth	r3, r3
 197 00c2 00E0     		b	.L17
 198              	.L6:
ARM GAS  C:\temp\ccUyuQab.s 			page 10


 298:.\Generated_Source\PSoC4/ADC_SAR_Seq_1.c ****             #else
 299:.\Generated_Source\PSoC4/ADC_SAR_Seq_1.c ****                 ADC_SAR_Seq_1_offset[chNum] = 0;
 300:.\Generated_Source\PSoC4/ADC_SAR_Seq_1.c ****             #endif /* end DEFAULT_SE_RESULT_FORMAT_SEL == ADC_SAR_Seq_1__FSIGNED */
 301:.\Generated_Source\PSoC4/ADC_SAR_Seq_1.c ****         }
 302:.\Generated_Source\PSoC4/ADC_SAR_Seq_1.c ****         else    /* Differential channel */
 303:.\Generated_Source\PSoC4/ADC_SAR_Seq_1.c ****         {
 304:.\Generated_Source\PSoC4/ADC_SAR_Seq_1.c ****             #if(ADC_SAR_Seq_1_DEFAULT_DIFF_RESULT_FORMAT_SEL == ADC_SAR_Seq_1__FUNSIGNED)
 305:.\Generated_Source\PSoC4/ADC_SAR_Seq_1.c ****                 /* Set offset to the half scale to convert results to signed format */
 306:.\Generated_Source\PSoC4/ADC_SAR_Seq_1.c ****                 ADC_SAR_Seq_1_offset[chNum] = (int16)(counts / 2);
 307:.\Generated_Source\PSoC4/ADC_SAR_Seq_1.c ****             #else
 308:.\Generated_Source\PSoC4/ADC_SAR_Seq_1.c ****                 ADC_SAR_Seq_1_offset[chNum] = 0;
 199              		.loc 1 308 0
 200 00c4 0023     		mov	r3, #0
 201              	.L17:
 202 00c6 8B52     		strh	r3, [r1, r2]
 309:.\Generated_Source\PSoC4/ADC_SAR_Seq_1.c ****             #endif /* end ADC_SAR_Seq_1_DEFAULT_DIFF_RESULT_FORMAT_SEL == ADC_SAR_Seq_1__FUNSIGNED 
 310:.\Generated_Source\PSoC4/ADC_SAR_Seq_1.c ****         }
 311:.\Generated_Source\PSoC4/ADC_SAR_Seq_1.c ****         /* Calculate gain in counts per 10 volts with rounding */
 312:.\Generated_Source\PSoC4/ADC_SAR_Seq_1.c ****         ADC_SAR_Seq_1_countsPer10Volt[chNum] = (int16)(((counts * ADC_SAR_Seq_1_10MV_COUNTS) +
 203              		.loc 1 312 0
 204 00c8 1D4B     		ldr	r3, .L19+92
 313:.\Generated_Source\PSoC4/ADC_SAR_Seq_1.c ****                             ADC_SAR_Seq_1_DEFAULT_VREF_MV_VALUE) / (ADC_SAR_Seq_1_DEFAULT_VREF_MV_V
 205              		.loc 1 313 0
 206 00ca 1E49     		ldr	r1, .L19+96
 312:.\Generated_Source\PSoC4/ADC_SAR_Seq_1.c ****                             ADC_SAR_Seq_1_DEFAULT_VREF_MV_VALUE) / (ADC_SAR_Seq_1_DEFAULT_VREF_MV_V
 207              		.loc 1 312 0
 208 00cc 5843     		mul	r0, r3
 209              	.LVL12:
 210 00ce 1E4B     		ldr	r3, .L19+100
 233:.\Generated_Source\PSoC4/ADC_SAR_Seq_1.c ****     {
 211              		.loc 1 233 0
 212 00d0 0134     		add	r4, r4, #1
 213              	.LVL13:
 312:.\Generated_Source\PSoC4/ADC_SAR_Seq_1.c ****                             ADC_SAR_Seq_1_DEFAULT_VREF_MV_VALUE) / (ADC_SAR_Seq_1_DEFAULT_VREF_MV_V
 214              		.loc 1 312 0
 215 00d2 C018     		add	r0, r0, r3
 216              		.loc 1 313 0
 217 00d4 FFF7FEFF 		bl	__aeabi_idiv
 218              	.LVL14:
 312:.\Generated_Source\PSoC4/ADC_SAR_Seq_1.c ****                             ADC_SAR_Seq_1_DEFAULT_VREF_MV_VALUE) / (ADC_SAR_Seq_1_DEFAULT_VREF_MV_V
 219              		.loc 1 312 0
 220 00d8 1C4B     		ldr	r3, .L19+104
 221 00da 5851     		str	r0, [r3, r5]
 233:.\Generated_Source\PSoC4/ADC_SAR_Seq_1.c ****     {
 222              		.loc 1 233 0
 223 00dc 052C     		cmp	r4, #5
 224 00de C6D1     		bne	.L8
 314:.\Generated_Source\PSoC4/ADC_SAR_Seq_1.c ****     }
 315:.\Generated_Source\PSoC4/ADC_SAR_Seq_1.c **** }
 225              		.loc 1 315 0
 226              		@ sp needed
 227              	.LVL15:
 228 00e0 F8BD     		pop	{r3, r4, r5, r6, r7, pc}
 229              	.L20:
 230 00e2 C046     		.align	2
 231              	.L19:
 232 00e4 00000000 		.word	ADC_SAR_Seq_1_ISR
ARM GAS  C:\temp\ccUyuQab.s 			page 11


 233 00e8 20001A40 		.word	1075445792
 234 00ec 80031A40 		.word	1075446656
 235 00f0 E02E0010 		.word	268447456
 236 00f4 E02E1010 		.word	269496032
 237 00f8 00001A40 		.word	1075445760
 238 00fc 28021A40 		.word	1075446312
 239 0100 38021A40 		.word	1075446328
 240 0104 8D000080 		.word	-2147483507
 241 0108 04001A40 		.word	1075445764
 242 010c 0000FF07 		.word	134152192
 243 0110 18001A40 		.word	1075445784
 244 0114 1C001A40 		.word	1075445788
 245 0118 10001A40 		.word	1075445776
 246 011c 02000200 		.word	131074
 247 0120 14001A40 		.word	1075445780
 248 0124 18021A40 		.word	1075446296
 249 0128 000F1A40 		.word	1075449600
 250 012c 30001A40 		.word	1075445808
 251 0130 FFFFFFDF 		.word	-536870913
 252 0134 00000000 		.word	.LANCHOR0
 253 0138 80001A40 		.word	1075445888
 254 013c 00000000 		.word	ADC_SAR_Seq_1_offset
 255 0140 10270000 		.word	10000
 256 0144 E40C0000 		.word	3300
 257 0148 72060000 		.word	1650
 258 014c 00000000 		.word	ADC_SAR_Seq_1_countsPer10Volt
 259              		.cfi_endproc
 260              	.LFE1:
 261              		.size	ADC_SAR_Seq_1_Init, .-ADC_SAR_Seq_1_Init
 262              		.section	.text.ADC_SAR_Seq_1_Enable,"ax",%progbits
 263              		.align	1
 264              		.global	ADC_SAR_Seq_1_Enable
 265              		.code	16
 266              		.thumb_func
 267              		.type	ADC_SAR_Seq_1_Enable, %function
 268              	ADC_SAR_Seq_1_Enable:
 269              	.LFB2:
 316:.\Generated_Source\PSoC4/ADC_SAR_Seq_1.c **** 
 317:.\Generated_Source\PSoC4/ADC_SAR_Seq_1.c **** /*******************************************************************************
 318:.\Generated_Source\PSoC4/ADC_SAR_Seq_1.c **** * Function Name: ADC_SAR_1_Enable
 319:.\Generated_Source\PSoC4/ADC_SAR_Seq_1.c **** ********************************************************************************
 320:.\Generated_Source\PSoC4/ADC_SAR_Seq_1.c **** *
 321:.\Generated_Source\PSoC4/ADC_SAR_Seq_1.c **** * Summary:
 322:.\Generated_Source\PSoC4/ADC_SAR_Seq_1.c **** *  Enables the clock and analog power for SAR ADC.
 323:.\Generated_Source\PSoC4/ADC_SAR_Seq_1.c **** *
 324:.\Generated_Source\PSoC4/ADC_SAR_Seq_1.c **** * Parameters:
 325:.\Generated_Source\PSoC4/ADC_SAR_Seq_1.c **** *  None.
 326:.\Generated_Source\PSoC4/ADC_SAR_Seq_1.c **** *
 327:.\Generated_Source\PSoC4/ADC_SAR_Seq_1.c **** * Return:
 328:.\Generated_Source\PSoC4/ADC_SAR_Seq_1.c **** *  None.
 329:.\Generated_Source\PSoC4/ADC_SAR_Seq_1.c **** *
 330:.\Generated_Source\PSoC4/ADC_SAR_Seq_1.c **** *******************************************************************************/
 331:.\Generated_Source\PSoC4/ADC_SAR_Seq_1.c **** void ADC_SAR_Seq_1_Enable(void)
 332:.\Generated_Source\PSoC4/ADC_SAR_Seq_1.c **** {
 270              		.loc 1 332 0
 271              		.cfi_startproc
 272 0000 08B5     		push	{r3, lr}
ARM GAS  C:\temp\ccUyuQab.s 			page 12


 273              		.cfi_def_cfa_offset 8
 274              		.cfi_offset 3, -8
 275              		.cfi_offset 14, -4
 333:.\Generated_Source\PSoC4/ADC_SAR_Seq_1.c ****     if (0u == (ADC_SAR_Seq_1_SAR_CTRL_REG & ADC_SAR_Seq_1_ENABLE))
 276              		.loc 1 333 0
 277 0002 064B     		ldr	r3, .L23
 278 0004 1A68     		ldr	r2, [r3]
 279 0006 002A     		cmp	r2, #0
 280 0008 07DB     		blt	.L21
 281              	.LBB4:
 282              	.LBB5:
 334:.\Generated_Source\PSoC4/ADC_SAR_Seq_1.c ****     {
 335:.\Generated_Source\PSoC4/ADC_SAR_Seq_1.c ****         #if(ADC_SAR_Seq_1_CY_SAR_IP_VER != ADC_SAR_Seq_1_CY_SAR_IP_VER0)
 336:.\Generated_Source\PSoC4/ADC_SAR_Seq_1.c **** 
 337:.\Generated_Source\PSoC4/ADC_SAR_Seq_1.c ****             while (0u != (ADC_SAR_Seq_1_SAR_STATUS_REG & ADC_SAR_Seq_1_STATUS_BUSY))
 338:.\Generated_Source\PSoC4/ADC_SAR_Seq_1.c ****             {
 339:.\Generated_Source\PSoC4/ADC_SAR_Seq_1.c ****                 /* wait for SAR to go idle to avoid deadlock */
 340:.\Generated_Source\PSoC4/ADC_SAR_Seq_1.c ****             }
 341:.\Generated_Source\PSoC4/ADC_SAR_Seq_1.c ****         #endif /* (ADC_SAR_Seq_1_CY_SAR_IP_VER != ADC_SAR_Seq_1_CY_SAR_IP_VER0) */
 342:.\Generated_Source\PSoC4/ADC_SAR_Seq_1.c ****         
 343:.\Generated_Source\PSoC4/ADC_SAR_Seq_1.c ****         ADC_SAR_Seq_1_SAR_CTRL_REG |= ADC_SAR_Seq_1_ENABLE;
 283              		.loc 1 343 0
 284 000a 8021     		mov	r1, #128
 285 000c 1A68     		ldr	r2, [r3]
 286 000e 0906     		lsl	r1, r1, #24
 287 0010 0A43     		orr	r2, r1
 288 0012 1A60     		str	r2, [r3]
 344:.\Generated_Source\PSoC4/ADC_SAR_Seq_1.c ****         
 345:.\Generated_Source\PSoC4/ADC_SAR_Seq_1.c ****         /* The block is ready to use 10 us after the enable signal is set high. */
 346:.\Generated_Source\PSoC4/ADC_SAR_Seq_1.c ****         CyDelayUs(ADC_SAR_Seq_1_10US_DELAY);         
 289              		.loc 1 346 0
 290 0014 0A20     		mov	r0, #10
 291 0016 FFF7FEFF 		bl	CyDelayUs
 292              	.LVL16:
 293              	.L21:
 294              	.LBE5:
 295              	.LBE4:
 347:.\Generated_Source\PSoC4/ADC_SAR_Seq_1.c ****     }
 348:.\Generated_Source\PSoC4/ADC_SAR_Seq_1.c **** }
 296              		.loc 1 348 0
 297              		@ sp needed
 298 001a 08BD     		pop	{r3, pc}
 299              	.L24:
 300              		.align	2
 301              	.L23:
 302 001c 00001A40 		.word	1075445760
 303              		.cfi_endproc
 304              	.LFE2:
 305              		.size	ADC_SAR_Seq_1_Enable, .-ADC_SAR_Seq_1_Enable
 306              		.section	.text.ADC_SAR_Seq_1_Start,"ax",%progbits
 307              		.align	1
 308              		.global	ADC_SAR_Seq_1_Start
 309              		.code	16
 310              		.thumb_func
 311              		.type	ADC_SAR_Seq_1_Start, %function
 312              	ADC_SAR_Seq_1_Start:
 313              	.LFB0:
ARM GAS  C:\temp\ccUyuQab.s 			page 13


  65:.\Generated_Source\PSoC4/ADC_SAR_Seq_1.c ****     /* If not Initialized then initialize all required hardware and software */
 314              		.loc 1 65 0
 315              		.cfi_startproc
 316 0000 10B5     		push	{r4, lr}
 317              		.cfi_def_cfa_offset 8
 318              		.cfi_offset 4, -8
 319              		.cfi_offset 14, -4
  67:.\Generated_Source\PSoC4/ADC_SAR_Seq_1.c ****     {
 320              		.loc 1 67 0
 321 0002 054C     		ldr	r4, .L27
 322 0004 2378     		ldrb	r3, [r4]
 323 0006 002B     		cmp	r3, #0
 324 0008 03D1     		bne	.L26
  69:.\Generated_Source\PSoC4/ADC_SAR_Seq_1.c ****         ADC_SAR_Seq_1_initVar = 1u;
 325              		.loc 1 69 0
 326 000a FFF7FEFF 		bl	ADC_SAR_Seq_1_Init
 327              	.LVL17:
  70:.\Generated_Source\PSoC4/ADC_SAR_Seq_1.c ****     }
 328              		.loc 1 70 0
 329 000e 0123     		mov	r3, #1
 330 0010 2370     		strb	r3, [r4]
 331              	.L26:
  72:.\Generated_Source\PSoC4/ADC_SAR_Seq_1.c **** }
 332              		.loc 1 72 0
 333 0012 FFF7FEFF 		bl	ADC_SAR_Seq_1_Enable
 334              	.LVL18:
  73:.\Generated_Source\PSoC4/ADC_SAR_Seq_1.c **** 
 335              		.loc 1 73 0
 336              		@ sp needed
 337 0016 10BD     		pop	{r4, pc}
 338              	.L28:
 339              		.align	2
 340              	.L27:
 341 0018 00000000 		.word	.LANCHOR1
 342              		.cfi_endproc
 343              	.LFE0:
 344              		.size	ADC_SAR_Seq_1_Start, .-ADC_SAR_Seq_1_Start
 345              		.section	.text.ADC_SAR_Seq_1_Stop,"ax",%progbits
 346              		.align	1
 347              		.global	ADC_SAR_Seq_1_Stop
 348              		.code	16
 349              		.thumb_func
 350              		.type	ADC_SAR_Seq_1_Stop, %function
 351              	ADC_SAR_Seq_1_Stop:
 352              	.LFB3:
 349:.\Generated_Source\PSoC4/ADC_SAR_Seq_1.c **** 
 350:.\Generated_Source\PSoC4/ADC_SAR_Seq_1.c **** 
 351:.\Generated_Source\PSoC4/ADC_SAR_Seq_1.c **** /*******************************************************************************
 352:.\Generated_Source\PSoC4/ADC_SAR_Seq_1.c **** * Function Name: ADC_SAR_Seq_1_Stop
 353:.\Generated_Source\PSoC4/ADC_SAR_Seq_1.c **** ********************************************************************************
 354:.\Generated_Source\PSoC4/ADC_SAR_Seq_1.c **** *
 355:.\Generated_Source\PSoC4/ADC_SAR_Seq_1.c **** * Summary:
 356:.\Generated_Source\PSoC4/ADC_SAR_Seq_1.c **** *  This function stops ADC conversions and puts the ADC into its lowest power
 357:.\Generated_Source\PSoC4/ADC_SAR_Seq_1.c **** *  mode.
 358:.\Generated_Source\PSoC4/ADC_SAR_Seq_1.c **** *
 359:.\Generated_Source\PSoC4/ADC_SAR_Seq_1.c **** * Parameters:
 360:.\Generated_Source\PSoC4/ADC_SAR_Seq_1.c **** *  None.
ARM GAS  C:\temp\ccUyuQab.s 			page 14


 361:.\Generated_Source\PSoC4/ADC_SAR_Seq_1.c **** *
 362:.\Generated_Source\PSoC4/ADC_SAR_Seq_1.c **** * Return:
 363:.\Generated_Source\PSoC4/ADC_SAR_Seq_1.c **** *  None.
 364:.\Generated_Source\PSoC4/ADC_SAR_Seq_1.c **** *
 365:.\Generated_Source\PSoC4/ADC_SAR_Seq_1.c **** *******************************************************************************/
 366:.\Generated_Source\PSoC4/ADC_SAR_Seq_1.c **** void ADC_SAR_Seq_1_Stop(void)
 367:.\Generated_Source\PSoC4/ADC_SAR_Seq_1.c **** {
 353              		.loc 1 367 0
 354              		.cfi_startproc
 368:.\Generated_Source\PSoC4/ADC_SAR_Seq_1.c ****     ADC_SAR_Seq_1_SAR_CTRL_REG &= (uint32)~ADC_SAR_Seq_1_ENABLE;
 355              		.loc 1 368 0
 356 0000 024A     		ldr	r2, .L30
 369:.\Generated_Source\PSoC4/ADC_SAR_Seq_1.c **** }
 357              		.loc 1 369 0
 358              		@ sp needed
 368:.\Generated_Source\PSoC4/ADC_SAR_Seq_1.c ****     ADC_SAR_Seq_1_SAR_CTRL_REG &= (uint32)~ADC_SAR_Seq_1_ENABLE;
 359              		.loc 1 368 0
 360 0002 1368     		ldr	r3, [r2]
 361 0004 5B00     		lsl	r3, r3, #1
 362 0006 5B08     		lsr	r3, r3, #1
 363 0008 1360     		str	r3, [r2]
 364              		.loc 1 369 0
 365 000a 7047     		bx	lr
 366              	.L31:
 367              		.align	2
 368              	.L30:
 369 000c 00001A40 		.word	1075445760
 370              		.cfi_endproc
 371              	.LFE3:
 372              		.size	ADC_SAR_Seq_1_Stop, .-ADC_SAR_Seq_1_Stop
 373              		.section	.text.ADC_SAR_Seq_1_StartConvert,"ax",%progbits
 374              		.align	1
 375              		.global	ADC_SAR_Seq_1_StartConvert
 376              		.code	16
 377              		.thumb_func
 378              		.type	ADC_SAR_Seq_1_StartConvert, %function
 379              	ADC_SAR_Seq_1_StartConvert:
 380              	.LFB4:
 370:.\Generated_Source\PSoC4/ADC_SAR_Seq_1.c **** 
 371:.\Generated_Source\PSoC4/ADC_SAR_Seq_1.c **** 
 372:.\Generated_Source\PSoC4/ADC_SAR_Seq_1.c **** /*******************************************************************************
 373:.\Generated_Source\PSoC4/ADC_SAR_Seq_1.c **** * Function Name: ADC_SAR_Seq_1_StartConvert
 374:.\Generated_Source\PSoC4/ADC_SAR_Seq_1.c **** ********************************************************************************
 375:.\Generated_Source\PSoC4/ADC_SAR_Seq_1.c **** *
 376:.\Generated_Source\PSoC4/ADC_SAR_Seq_1.c **** * Summary:
 377:.\Generated_Source\PSoC4/ADC_SAR_Seq_1.c **** *  Description:
 378:.\Generated_Source\PSoC4/ADC_SAR_Seq_1.c **** *  For free running mode, this API starts the conversion process and it
 379:.\Generated_Source\PSoC4/ADC_SAR_Seq_1.c **** *  runs continuously.
 380:.\Generated_Source\PSoC4/ADC_SAR_Seq_1.c **** *
 381:.\Generated_Source\PSoC4/ADC_SAR_Seq_1.c **** *  In a triggered mode, this routine triggers every conversion by
 382:.\Generated_Source\PSoC4/ADC_SAR_Seq_1.c **** *  writing into the FW_TRIGGER bit in SAR_START_CTRL reg. In triggered mode,
 383:.\Generated_Source\PSoC4/ADC_SAR_Seq_1.c **** *  every conversion has to start by this API.
 384:.\Generated_Source\PSoC4/ADC_SAR_Seq_1.c **** *
 385:.\Generated_Source\PSoC4/ADC_SAR_Seq_1.c **** * Parameters:
 386:.\Generated_Source\PSoC4/ADC_SAR_Seq_1.c **** *  None.
 387:.\Generated_Source\PSoC4/ADC_SAR_Seq_1.c **** *
 388:.\Generated_Source\PSoC4/ADC_SAR_Seq_1.c **** * Return:
ARM GAS  C:\temp\ccUyuQab.s 			page 15


 389:.\Generated_Source\PSoC4/ADC_SAR_Seq_1.c **** *  None.
 390:.\Generated_Source\PSoC4/ADC_SAR_Seq_1.c **** *
 391:.\Generated_Source\PSoC4/ADC_SAR_Seq_1.c **** *******************************************************************************/
 392:.\Generated_Source\PSoC4/ADC_SAR_Seq_1.c **** void ADC_SAR_Seq_1_StartConvert(void)
 393:.\Generated_Source\PSoC4/ADC_SAR_Seq_1.c **** {
 381              		.loc 1 393 0
 382              		.cfi_startproc
 394:.\Generated_Source\PSoC4/ADC_SAR_Seq_1.c ****     #if(ADC_SAR_Seq_1_DEFAULT_SAMPLE_MODE_SEL == ADC_SAR_Seq_1__FREERUNNING)
 395:.\Generated_Source\PSoC4/ADC_SAR_Seq_1.c ****         ADC_SAR_Seq_1_SAR_SAMPLE_CTRL_REG |= ADC_SAR_Seq_1_CONTINUOUS_EN;
 383              		.loc 1 395 0
 384 0000 8021     		mov	r1, #128
 385 0002 034A     		ldr	r2, .L33
 386 0004 4902     		lsl	r1, r1, #9
 387 0006 1368     		ldr	r3, [r2]
 396:.\Generated_Source\PSoC4/ADC_SAR_Seq_1.c ****     #else /* Firmware trigger */
 397:.\Generated_Source\PSoC4/ADC_SAR_Seq_1.c ****         ADC_SAR_Seq_1_SAR_START_CTRL_REG = ADC_SAR_Seq_1_FW_TRIGGER;
 398:.\Generated_Source\PSoC4/ADC_SAR_Seq_1.c ****     #endif /* End ADC_SAR_Seq_1_DEFAULT_SAMPLE_MODE == ADC_SAR_Seq_1__FREERUNNING */
 399:.\Generated_Source\PSoC4/ADC_SAR_Seq_1.c **** 
 400:.\Generated_Source\PSoC4/ADC_SAR_Seq_1.c **** }
 388              		.loc 1 400 0
 389              		@ sp needed
 395:.\Generated_Source\PSoC4/ADC_SAR_Seq_1.c ****     #else /* Firmware trigger */
 390              		.loc 1 395 0
 391 0008 0B43     		orr	r3, r1
 392 000a 1360     		str	r3, [r2]
 393              		.loc 1 400 0
 394 000c 7047     		bx	lr
 395              	.L34:
 396 000e C046     		.align	2
 397              	.L33:
 398 0010 04001A40 		.word	1075445764
 399              		.cfi_endproc
 400              	.LFE4:
 401              		.size	ADC_SAR_Seq_1_StartConvert, .-ADC_SAR_Seq_1_StartConvert
 402              		.section	.text.ADC_SAR_Seq_1_StopConvert,"ax",%progbits
 403              		.align	1
 404              		.global	ADC_SAR_Seq_1_StopConvert
 405              		.code	16
 406              		.thumb_func
 407              		.type	ADC_SAR_Seq_1_StopConvert, %function
 408              	ADC_SAR_Seq_1_StopConvert:
 409              	.LFB5:
 401:.\Generated_Source\PSoC4/ADC_SAR_Seq_1.c **** 
 402:.\Generated_Source\PSoC4/ADC_SAR_Seq_1.c **** 
 403:.\Generated_Source\PSoC4/ADC_SAR_Seq_1.c **** /*******************************************************************************
 404:.\Generated_Source\PSoC4/ADC_SAR_Seq_1.c **** * Function Name: ADC_SAR_Seq_1_StopConvert
 405:.\Generated_Source\PSoC4/ADC_SAR_Seq_1.c **** ********************************************************************************
 406:.\Generated_Source\PSoC4/ADC_SAR_Seq_1.c **** *
 407:.\Generated_Source\PSoC4/ADC_SAR_Seq_1.c **** * Summary:
 408:.\Generated_Source\PSoC4/ADC_SAR_Seq_1.c **** *  Forces the ADC to stop all conversions.
 409:.\Generated_Source\PSoC4/ADC_SAR_Seq_1.c **** *
 410:.\Generated_Source\PSoC4/ADC_SAR_Seq_1.c **** * Parameters:
 411:.\Generated_Source\PSoC4/ADC_SAR_Seq_1.c **** *  None.
 412:.\Generated_Source\PSoC4/ADC_SAR_Seq_1.c **** *
 413:.\Generated_Source\PSoC4/ADC_SAR_Seq_1.c **** * Return:
 414:.\Generated_Source\PSoC4/ADC_SAR_Seq_1.c **** *  None.
 415:.\Generated_Source\PSoC4/ADC_SAR_Seq_1.c **** *
ARM GAS  C:\temp\ccUyuQab.s 			page 16


 416:.\Generated_Source\PSoC4/ADC_SAR_Seq_1.c **** *******************************************************************************/
 417:.\Generated_Source\PSoC4/ADC_SAR_Seq_1.c **** void ADC_SAR_Seq_1_StopConvert(void)
 418:.\Generated_Source\PSoC4/ADC_SAR_Seq_1.c **** {
 410              		.loc 1 418 0
 411              		.cfi_startproc
 419:.\Generated_Source\PSoC4/ADC_SAR_Seq_1.c ****     #if(ADC_SAR_Seq_1_DEFAULT_SAMPLE_MODE_SEL == ADC_SAR_Seq_1__FREERUNNING)
 420:.\Generated_Source\PSoC4/ADC_SAR_Seq_1.c ****         ADC_SAR_Seq_1_SAR_SAMPLE_CTRL_REG &= (uint32)(~ADC_SAR_Seq_1_CONTINUOUS_EN);
 412              		.loc 1 420 0
 413 0000 024A     		ldr	r2, .L36
 414 0002 034B     		ldr	r3, .L36+4
 415 0004 1168     		ldr	r1, [r2]
 421:.\Generated_Source\PSoC4/ADC_SAR_Seq_1.c ****     #endif /* ADC_SAR_Seq_1_DEFAULT_SAMPLE_MODE == ADC_SAR_Seq_1__FREERUNNING */
 422:.\Generated_Source\PSoC4/ADC_SAR_Seq_1.c **** }
 416              		.loc 1 422 0
 417              		@ sp needed
 420:.\Generated_Source\PSoC4/ADC_SAR_Seq_1.c ****     #endif /* ADC_SAR_Seq_1_DEFAULT_SAMPLE_MODE == ADC_SAR_Seq_1__FREERUNNING */
 418              		.loc 1 420 0
 419 0006 0B40     		and	r3, r1
 420 0008 1360     		str	r3, [r2]
 421              		.loc 1 422 0
 422 000a 7047     		bx	lr
 423              	.L37:
 424              		.align	2
 425              	.L36:
 426 000c 04001A40 		.word	1075445764
 427 0010 FFFFFEFF 		.word	-65537
 428              		.cfi_endproc
 429              	.LFE5:
 430              		.size	ADC_SAR_Seq_1_StopConvert, .-ADC_SAR_Seq_1_StopConvert
 431              		.section	.text.ADC_SAR_Seq_1_IsEndConversion,"ax",%progbits
 432              		.align	1
 433              		.global	ADC_SAR_Seq_1_IsEndConversion
 434              		.code	16
 435              		.thumb_func
 436              		.type	ADC_SAR_Seq_1_IsEndConversion, %function
 437              	ADC_SAR_Seq_1_IsEndConversion:
 438              	.LFB6:
 423:.\Generated_Source\PSoC4/ADC_SAR_Seq_1.c **** 
 424:.\Generated_Source\PSoC4/ADC_SAR_Seq_1.c **** 
 425:.\Generated_Source\PSoC4/ADC_SAR_Seq_1.c **** /*******************************************************************************
 426:.\Generated_Source\PSoC4/ADC_SAR_Seq_1.c **** * Function Name: ADC_SAR_Seq_1_IsEndConversion
 427:.\Generated_Source\PSoC4/ADC_SAR_Seq_1.c **** ********************************************************************************
 428:.\Generated_Source\PSoC4/ADC_SAR_Seq_1.c **** *
 429:.\Generated_Source\PSoC4/ADC_SAR_Seq_1.c **** * Summary:
 430:.\Generated_Source\PSoC4/ADC_SAR_Seq_1.c **** *  Description: Checks for ADC end of conversion for the case one
 431:.\Generated_Source\PSoC4/ADC_SAR_Seq_1.c **** *  channel and end of scan for the case of multiple channels. It acts
 432:.\Generated_Source\PSoC4/ADC_SAR_Seq_1.c **** *  as a software version of the EOC. This function provides the
 433:.\Generated_Source\PSoC4/ADC_SAR_Seq_1.c **** *  programmer with two options. In one mode this function
 434:.\Generated_Source\PSoC4/ADC_SAR_Seq_1.c **** *  immediately returns with the conversion status. In the other mode,
 435:.\Generated_Source\PSoC4/ADC_SAR_Seq_1.c **** *  the function does not return (blocking) until the conversion has
 436:.\Generated_Source\PSoC4/ADC_SAR_Seq_1.c **** *  completed.
 437:.\Generated_Source\PSoC4/ADC_SAR_Seq_1.c **** *
 438:.\Generated_Source\PSoC4/ADC_SAR_Seq_1.c **** * Parameters:
 439:.\Generated_Source\PSoC4/ADC_SAR_Seq_1.c **** *  ADC_RETURN_STATUS        -> Immediately returns conversion result status
 440:.\Generated_Source\PSoC4/ADC_SAR_Seq_1.c **** *  ADC_WAIT_FOR_RESULT      -> Does not return until ADC complete
 441:.\Generated_Source\PSoC4/ADC_SAR_Seq_1.c **** *  ADC_RETURN_STATUS_INJ    -> Immediately returns conversion result status
 442:.\Generated_Source\PSoC4/ADC_SAR_Seq_1.c **** *                              for injection channel
ARM GAS  C:\temp\ccUyuQab.s 			page 17


 443:.\Generated_Source\PSoC4/ADC_SAR_Seq_1.c **** *  ADC_WAIT_FOR_RESULT_INJ  -> Does not return until ADC completes injection
 444:.\Generated_Source\PSoC4/ADC_SAR_Seq_1.c **** *                              channel conversion
 445:.\Generated_Source\PSoC4/ADC_SAR_Seq_1.c **** *
 446:.\Generated_Source\PSoC4/ADC_SAR_Seq_1.c **** * Return:
 447:.\Generated_Source\PSoC4/ADC_SAR_Seq_1.c **** *  If a non-zero value is returned, the last conversion or scan has completed.
 448:.\Generated_Source\PSoC4/ADC_SAR_Seq_1.c **** *  If the returned value is zero, the ADC is still in the process of a scan.
 449:.\Generated_Source\PSoC4/ADC_SAR_Seq_1.c **** *
 450:.\Generated_Source\PSoC4/ADC_SAR_Seq_1.c **** *******************************************************************************/
 451:.\Generated_Source\PSoC4/ADC_SAR_Seq_1.c **** uint32 ADC_SAR_Seq_1_IsEndConversion(uint32 retMode)
 452:.\Generated_Source\PSoC4/ADC_SAR_Seq_1.c **** {
 439              		.loc 1 452 0
 440              		.cfi_startproc
 441              	.LVL19:
 442 0000 10B5     		push	{r4, lr}
 443              		.cfi_def_cfa_offset 8
 444              		.cfi_offset 4, -8
 445              		.cfi_offset 14, -4
 446              		.loc 1 452 0
 447 0002 041C     		mov	r4, r0
 453:.\Generated_Source\PSoC4/ADC_SAR_Seq_1.c ****     uint32 status = 0u;
 448              		.loc 1 453 0
 449 0004 0020     		mov	r0, #0
 450              	.LVL20:
 454:.\Generated_Source\PSoC4/ADC_SAR_Seq_1.c **** 
 455:.\Generated_Source\PSoC4/ADC_SAR_Seq_1.c ****     if((retMode & (ADC_SAR_Seq_1_RETURN_STATUS | ADC_SAR_Seq_1_WAIT_FOR_RESULT)) != 0u)
 451              		.loc 1 455 0
 452 0006 A307     		lsl	r3, r4, #30
 453 0008 0AD0     		beq	.L43
 454              	.LVL21:
 455              	.L41:
 456:.\Generated_Source\PSoC4/ADC_SAR_Seq_1.c ****     {
 457:.\Generated_Source\PSoC4/ADC_SAR_Seq_1.c ****         do
 458:.\Generated_Source\PSoC4/ADC_SAR_Seq_1.c ****         {
 459:.\Generated_Source\PSoC4/ADC_SAR_Seq_1.c ****             status = ADC_SAR_Seq_1_SAR_INTR_REG & ADC_SAR_Seq_1_EOS_MASK;
 456              		.loc 1 459 0 discriminator 2
 457 000a 0122     		mov	r2, #1
 458 000c 0549     		ldr	r1, .L45
 459 000e 0B68     		ldr	r3, [r1]
 460 0010 1340     		and	r3, r2
 461 0012 181E     		sub	r0, r3, #0
 462              	.LVL22:
 460:.\Generated_Source\PSoC4/ADC_SAR_Seq_1.c ****         }while((status == 0u) && ((retMode & ADC_SAR_Seq_1_WAIT_FOR_RESULT) != 0u));
 463              		.loc 1 460 0 discriminator 2
 464 0014 02D1     		bne	.L40
 465              		.loc 1 460 0 is_stmt 0 discriminator 1
 466 0016 A307     		lsl	r3, r4, #30
 467 0018 F7D4     		bmi	.L41
 468 001a 01E0     		b	.L43
 469              	.L40:
 461:.\Generated_Source\PSoC4/ADC_SAR_Seq_1.c **** 
 462:.\Generated_Source\PSoC4/ADC_SAR_Seq_1.c ****         if(status != 0u)
 463:.\Generated_Source\PSoC4/ADC_SAR_Seq_1.c ****         {
 464:.\Generated_Source\PSoC4/ADC_SAR_Seq_1.c ****             /* Clear EOS bit */
 465:.\Generated_Source\PSoC4/ADC_SAR_Seq_1.c ****             ADC_SAR_Seq_1_SAR_INTR_REG = ADC_SAR_Seq_1_EOS_MASK;
 470              		.loc 1 465 0 is_stmt 1
 471 001c 101C     		mov	r0, r2
 472              	.LVL23:
ARM GAS  C:\temp\ccUyuQab.s 			page 18


 473 001e 0A60     		str	r2, [r1]
 474              	.LVL24:
 475              	.L43:
 466:.\Generated_Source\PSoC4/ADC_SAR_Seq_1.c ****         }
 467:.\Generated_Source\PSoC4/ADC_SAR_Seq_1.c ****     }
 468:.\Generated_Source\PSoC4/ADC_SAR_Seq_1.c **** 
 469:.\Generated_Source\PSoC4/ADC_SAR_Seq_1.c ****     #if(ADC_SAR_Seq_1_INJ_CHANNEL_ENABLED)
 470:.\Generated_Source\PSoC4/ADC_SAR_Seq_1.c ****         if((retMode & (ADC_SAR_Seq_1_RETURN_STATUS_INJ | ADC_SAR_Seq_1_WAIT_FOR_RESULT_INJ)) != 0u)
 471:.\Generated_Source\PSoC4/ADC_SAR_Seq_1.c ****         {
 472:.\Generated_Source\PSoC4/ADC_SAR_Seq_1.c ****             do
 473:.\Generated_Source\PSoC4/ADC_SAR_Seq_1.c ****             {
 474:.\Generated_Source\PSoC4/ADC_SAR_Seq_1.c ****                 status |= ADC_SAR_Seq_1_SAR_INTR_REG & ADC_SAR_Seq_1_INJ_EOC_MASK;
 475:.\Generated_Source\PSoC4/ADC_SAR_Seq_1.c ****             }while(((status & ADC_SAR_Seq_1_INJ_EOC_MASK) == 0u) &&
 476:.\Generated_Source\PSoC4/ADC_SAR_Seq_1.c ****                    ((retMode & ADC_SAR_Seq_1_WAIT_FOR_RESULT_INJ) != 0u));
 477:.\Generated_Source\PSoC4/ADC_SAR_Seq_1.c **** 
 478:.\Generated_Source\PSoC4/ADC_SAR_Seq_1.c ****             if((status & ADC_SAR_Seq_1_INJ_EOC_MASK) != 0u)
 479:.\Generated_Source\PSoC4/ADC_SAR_Seq_1.c ****             {
 480:.\Generated_Source\PSoC4/ADC_SAR_Seq_1.c ****                 /* Clear Injection EOS bit */
 481:.\Generated_Source\PSoC4/ADC_SAR_Seq_1.c ****                 ADC_SAR_Seq_1_SAR_INTR_REG = ADC_SAR_Seq_1_INJ_EOC_MASK;
 482:.\Generated_Source\PSoC4/ADC_SAR_Seq_1.c ****             }
 483:.\Generated_Source\PSoC4/ADC_SAR_Seq_1.c ****         }
 484:.\Generated_Source\PSoC4/ADC_SAR_Seq_1.c ****     #endif /* ADC_SAR_Seq_1_INJ_CHANNEL_ENABLED */
 485:.\Generated_Source\PSoC4/ADC_SAR_Seq_1.c **** 
 486:.\Generated_Source\PSoC4/ADC_SAR_Seq_1.c ****     return (status);
 487:.\Generated_Source\PSoC4/ADC_SAR_Seq_1.c **** }
 476              		.loc 1 487 0
 477              		@ sp needed
 478              	.LVL25:
 479 0020 10BD     		pop	{r4, pc}
 480              	.L46:
 481 0022 C046     		.align	2
 482              	.L45:
 483 0024 10021A40 		.word	1075446288
 484              		.cfi_endproc
 485              	.LFE6:
 486              		.size	ADC_SAR_Seq_1_IsEndConversion, .-ADC_SAR_Seq_1_IsEndConversion
 487              		.section	.text.ADC_SAR_Seq_1_GetResult16,"ax",%progbits
 488              		.align	1
 489              		.global	ADC_SAR_Seq_1_GetResult16
 490              		.code	16
 491              		.thumb_func
 492              		.type	ADC_SAR_Seq_1_GetResult16, %function
 493              	ADC_SAR_Seq_1_GetResult16:
 494              	.LFB7:
 488:.\Generated_Source\PSoC4/ADC_SAR_Seq_1.c **** 
 489:.\Generated_Source\PSoC4/ADC_SAR_Seq_1.c **** 
 490:.\Generated_Source\PSoC4/ADC_SAR_Seq_1.c **** /*******************************************************************************
 491:.\Generated_Source\PSoC4/ADC_SAR_Seq_1.c **** * Function Name: ADC_SAR_Seq_1_GetResult16
 492:.\Generated_Source\PSoC4/ADC_SAR_Seq_1.c **** ********************************************************************************
 493:.\Generated_Source\PSoC4/ADC_SAR_Seq_1.c **** *
 494:.\Generated_Source\PSoC4/ADC_SAR_Seq_1.c **** * Summary:
 495:.\Generated_Source\PSoC4/ADC_SAR_Seq_1.c **** *  Gets the data available in the SAR DATA register.
 496:.\Generated_Source\PSoC4/ADC_SAR_Seq_1.c **** *
 497:.\Generated_Source\PSoC4/ADC_SAR_Seq_1.c **** * Parameters:
 498:.\Generated_Source\PSoC4/ADC_SAR_Seq_1.c **** *  chan: The ADC channel in which to return the result. The first channel
 499:.\Generated_Source\PSoC4/ADC_SAR_Seq_1.c **** *  is 0 and the injection channel if enabled is the number of valid channels.
 500:.\Generated_Source\PSoC4/ADC_SAR_Seq_1.c **** *
ARM GAS  C:\temp\ccUyuQab.s 			page 19


 501:.\Generated_Source\PSoC4/ADC_SAR_Seq_1.c **** * Return:
 502:.\Generated_Source\PSoC4/ADC_SAR_Seq_1.c **** *  Returns converted data as a signed 16-bit integer
 503:.\Generated_Source\PSoC4/ADC_SAR_Seq_1.c **** *
 504:.\Generated_Source\PSoC4/ADC_SAR_Seq_1.c **** *******************************************************************************/
 505:.\Generated_Source\PSoC4/ADC_SAR_Seq_1.c **** int16 ADC_SAR_Seq_1_GetResult16(uint32 chan)
 506:.\Generated_Source\PSoC4/ADC_SAR_Seq_1.c **** {
 495              		.loc 1 506 0
 496              		.cfi_startproc
 497              	.LVL26:
 507:.\Generated_Source\PSoC4/ADC_SAR_Seq_1.c ****     uint32 result;
 508:.\Generated_Source\PSoC4/ADC_SAR_Seq_1.c **** 
 509:.\Generated_Source\PSoC4/ADC_SAR_Seq_1.c ****     /* Halt CPU in debug mode if channel is out of valid range */
 510:.\Generated_Source\PSoC4/ADC_SAR_Seq_1.c ****     CYASSERT(chan < ADC_SAR_Seq_1_TOTAL_CHANNELS_NUM);
 511:.\Generated_Source\PSoC4/ADC_SAR_Seq_1.c **** 
 512:.\Generated_Source\PSoC4/ADC_SAR_Seq_1.c ****     if(chan < ADC_SAR_Seq_1_SEQUENCED_CHANNELS_NUM)
 513:.\Generated_Source\PSoC4/ADC_SAR_Seq_1.c ****     {
 514:.\Generated_Source\PSoC4/ADC_SAR_Seq_1.c ****         result = CY_GET_REG32((reg32 *)(ADC_SAR_Seq_1_SAR_CHAN_RESULT_IND + (uint32)(chan << 2u))) 
 515:.\Generated_Source\PSoC4/ADC_SAR_Seq_1.c ****                 ADC_SAR_Seq_1_RESULT_MASK;
 516:.\Generated_Source\PSoC4/ADC_SAR_Seq_1.c ****     }
 517:.\Generated_Source\PSoC4/ADC_SAR_Seq_1.c ****     else
 518:.\Generated_Source\PSoC4/ADC_SAR_Seq_1.c ****     {
 519:.\Generated_Source\PSoC4/ADC_SAR_Seq_1.c ****         #if(ADC_SAR_Seq_1_INJ_CHANNEL_ENABLED)
 520:.\Generated_Source\PSoC4/ADC_SAR_Seq_1.c ****             result = ADC_SAR_Seq_1_SAR_INJ_RESULT_REG & ADC_SAR_Seq_1_RESULT_MASK;
 521:.\Generated_Source\PSoC4/ADC_SAR_Seq_1.c ****         #else
 522:.\Generated_Source\PSoC4/ADC_SAR_Seq_1.c ****             result = 0u;
 498              		.loc 1 522 0
 499 0000 0023     		mov	r3, #0
 512:.\Generated_Source\PSoC4/ADC_SAR_Seq_1.c ****     {
 500              		.loc 1 512 0
 501 0002 0428     		cmp	r0, #4
 502 0004 04D8     		bhi	.L48
 514:.\Generated_Source\PSoC4/ADC_SAR_Seq_1.c ****                 ADC_SAR_Seq_1_RESULT_MASK;
 503              		.loc 1 514 0
 504 0006 034B     		ldr	r3, .L50
 505 0008 8000     		lsl	r0, r0, #2
 506              	.LVL27:
 507 000a C018     		add	r0, r0, r3
 508 000c 0368     		ldr	r3, [r0]
 509 000e 9BB2     		uxth	r3, r3
 510              	.LVL28:
 511              	.L48:
 523:.\Generated_Source\PSoC4/ADC_SAR_Seq_1.c ****         #endif /* ADC_SAR_Seq_1_INJ_CHANNEL_ENABLED */
 524:.\Generated_Source\PSoC4/ADC_SAR_Seq_1.c ****     }
 525:.\Generated_Source\PSoC4/ADC_SAR_Seq_1.c **** 
 526:.\Generated_Source\PSoC4/ADC_SAR_Seq_1.c ****     return ( (int16)result );
 512              		.loc 1 526 0
 513 0010 18B2     		sxth	r0, r3
 527:.\Generated_Source\PSoC4/ADC_SAR_Seq_1.c **** }
 514              		.loc 1 527 0
 515              		@ sp needed
 516 0012 7047     		bx	lr
 517              	.L51:
 518              		.align	2
 519              	.L50:
 520 0014 80011A40 		.word	1075446144
 521              		.cfi_endproc
 522              	.LFE7:
ARM GAS  C:\temp\ccUyuQab.s 			page 20


 523              		.size	ADC_SAR_Seq_1_GetResult16, .-ADC_SAR_Seq_1_GetResult16
 524              		.section	.text.ADC_SAR_Seq_1_SetChanMask,"ax",%progbits
 525              		.align	1
 526              		.global	ADC_SAR_Seq_1_SetChanMask
 527              		.code	16
 528              		.thumb_func
 529              		.type	ADC_SAR_Seq_1_SetChanMask, %function
 530              	ADC_SAR_Seq_1_SetChanMask:
 531              	.LFB8:
 528:.\Generated_Source\PSoC4/ADC_SAR_Seq_1.c **** 
 529:.\Generated_Source\PSoC4/ADC_SAR_Seq_1.c **** 
 530:.\Generated_Source\PSoC4/ADC_SAR_Seq_1.c **** /*******************************************************************************
 531:.\Generated_Source\PSoC4/ADC_SAR_Seq_1.c **** * Function Name: ADC_SAR_Seq_1_SetChanMask
 532:.\Generated_Source\PSoC4/ADC_SAR_Seq_1.c **** ********************************************************************************
 533:.\Generated_Source\PSoC4/ADC_SAR_Seq_1.c **** *
 534:.\Generated_Source\PSoC4/ADC_SAR_Seq_1.c **** * Summary:
 535:.\Generated_Source\PSoC4/ADC_SAR_Seq_1.c **** *  Sets the channel enable mask.
 536:.\Generated_Source\PSoC4/ADC_SAR_Seq_1.c **** *
 537:.\Generated_Source\PSoC4/ADC_SAR_Seq_1.c **** * Parameters:
 538:.\Generated_Source\PSoC4/ADC_SAR_Seq_1.c **** *  mask: Sets which channels that will be
 539:.\Generated_Source\PSoC4/ADC_SAR_Seq_1.c **** *  scanned. Setting bits for channels that do not exist will have no
 540:.\Generated_Source\PSoC4/ADC_SAR_Seq_1.c **** *  effect. For example, if only 6 channels were enabled, setting a
 541:.\Generated_Source\PSoC4/ADC_SAR_Seq_1.c **** *  mask of 0x0103 would only enable the last two channels (0 and 1).
 542:.\Generated_Source\PSoC4/ADC_SAR_Seq_1.c **** *  This API will not enable the injection channel.
 543:.\Generated_Source\PSoC4/ADC_SAR_Seq_1.c **** *  Examples: If the component is setup to sequence through 8
 544:.\Generated_Source\PSoC4/ADC_SAR_Seq_1.c **** *  channels, a mask of 0x000F would enable channels 0, 1, 2, and 3.
 545:.\Generated_Source\PSoC4/ADC_SAR_Seq_1.c **** *
 546:.\Generated_Source\PSoC4/ADC_SAR_Seq_1.c **** * Return:
 547:.\Generated_Source\PSoC4/ADC_SAR_Seq_1.c **** *  None.
 548:.\Generated_Source\PSoC4/ADC_SAR_Seq_1.c **** *
 549:.\Generated_Source\PSoC4/ADC_SAR_Seq_1.c **** *******************************************************************************/
 550:.\Generated_Source\PSoC4/ADC_SAR_Seq_1.c **** void ADC_SAR_Seq_1_SetChanMask(uint32 mask)
 551:.\Generated_Source\PSoC4/ADC_SAR_Seq_1.c **** {
 532              		.loc 1 551 0
 533              		.cfi_startproc
 534              	.LVL29:
 552:.\Generated_Source\PSoC4/ADC_SAR_Seq_1.c ****     ADC_SAR_Seq_1_SAR_CHAN_EN_REG = mask & ADC_SAR_Seq_1_MAX_CHANNELS_EN_MASK;
 535              		.loc 1 552 0
 536 0000 1F23     		mov	r3, #31
 537 0002 1840     		and	r0, r3
 538              	.LVL30:
 539 0004 014B     		ldr	r3, .L53
 553:.\Generated_Source\PSoC4/ADC_SAR_Seq_1.c **** }
 540              		.loc 1 553 0
 541              		@ sp needed
 552:.\Generated_Source\PSoC4/ADC_SAR_Seq_1.c ****     ADC_SAR_Seq_1_SAR_CHAN_EN_REG = mask & ADC_SAR_Seq_1_MAX_CHANNELS_EN_MASK;
 542              		.loc 1 552 0
 543 0006 1860     		str	r0, [r3]
 544              		.loc 1 553 0
 545 0008 7047     		bx	lr
 546              	.L54:
 547 000a C046     		.align	2
 548              	.L53:
 549 000c 20001A40 		.word	1075445792
 550              		.cfi_endproc
 551              	.LFE8:
 552              		.size	ADC_SAR_Seq_1_SetChanMask, .-ADC_SAR_Seq_1_SetChanMask
ARM GAS  C:\temp\ccUyuQab.s 			page 21


 553              		.section	.text.ADC_SAR_Seq_1_SetLowLimit,"ax",%progbits
 554              		.align	1
 555              		.global	ADC_SAR_Seq_1_SetLowLimit
 556              		.code	16
 557              		.thumb_func
 558              		.type	ADC_SAR_Seq_1_SetLowLimit, %function
 559              	ADC_SAR_Seq_1_SetLowLimit:
 560              	.LFB9:
 554:.\Generated_Source\PSoC4/ADC_SAR_Seq_1.c **** 
 555:.\Generated_Source\PSoC4/ADC_SAR_Seq_1.c **** #if(ADC_SAR_Seq_1_INJ_CHANNEL_ENABLED)
 556:.\Generated_Source\PSoC4/ADC_SAR_Seq_1.c **** 
 557:.\Generated_Source\PSoC4/ADC_SAR_Seq_1.c **** 
 558:.\Generated_Source\PSoC4/ADC_SAR_Seq_1.c ****     /*******************************************************************************
 559:.\Generated_Source\PSoC4/ADC_SAR_Seq_1.c ****     * Function Name: ADC_SAR_Seq_1_EnableInjection
 560:.\Generated_Source\PSoC4/ADC_SAR_Seq_1.c ****     ********************************************************************************
 561:.\Generated_Source\PSoC4/ADC_SAR_Seq_1.c ****     *
 562:.\Generated_Source\PSoC4/ADC_SAR_Seq_1.c ****     * Summary:
 563:.\Generated_Source\PSoC4/ADC_SAR_Seq_1.c ****     *  Enables the injection channel for the next scan only.
 564:.\Generated_Source\PSoC4/ADC_SAR_Seq_1.c ****     *
 565:.\Generated_Source\PSoC4/ADC_SAR_Seq_1.c ****     * Parameters:
 566:.\Generated_Source\PSoC4/ADC_SAR_Seq_1.c ****     *  None.
 567:.\Generated_Source\PSoC4/ADC_SAR_Seq_1.c ****     *
 568:.\Generated_Source\PSoC4/ADC_SAR_Seq_1.c ****     * Return:
 569:.\Generated_Source\PSoC4/ADC_SAR_Seq_1.c ****     *  None.
 570:.\Generated_Source\PSoC4/ADC_SAR_Seq_1.c ****     *
 571:.\Generated_Source\PSoC4/ADC_SAR_Seq_1.c ****     *******************************************************************************/
 572:.\Generated_Source\PSoC4/ADC_SAR_Seq_1.c ****     void ADC_SAR_Seq_1_EnableInjection(void)
 573:.\Generated_Source\PSoC4/ADC_SAR_Seq_1.c ****     {
 574:.\Generated_Source\PSoC4/ADC_SAR_Seq_1.c ****         ADC_SAR_Seq_1_SAR_INJ_CHAN_CONFIG_REG |= ADC_SAR_Seq_1_INJ_CHAN_EN;
 575:.\Generated_Source\PSoC4/ADC_SAR_Seq_1.c ****     }
 576:.\Generated_Source\PSoC4/ADC_SAR_Seq_1.c **** 
 577:.\Generated_Source\PSoC4/ADC_SAR_Seq_1.c **** #endif /* ADC_SAR_Seq_1_INJ_CHANNEL_ENABLED */
 578:.\Generated_Source\PSoC4/ADC_SAR_Seq_1.c **** 
 579:.\Generated_Source\PSoC4/ADC_SAR_Seq_1.c **** 
 580:.\Generated_Source\PSoC4/ADC_SAR_Seq_1.c **** /*******************************************************************************
 581:.\Generated_Source\PSoC4/ADC_SAR_Seq_1.c **** * Function Name: ADC_SAR_Seq_1_SetLowLimit
 582:.\Generated_Source\PSoC4/ADC_SAR_Seq_1.c **** ********************************************************************************
 583:.\Generated_Source\PSoC4/ADC_SAR_Seq_1.c **** *
 584:.\Generated_Source\PSoC4/ADC_SAR_Seq_1.c **** * Summary:
 585:.\Generated_Source\PSoC4/ADC_SAR_Seq_1.c **** *  Sets the low limit parameter for a limit condition.
 586:.\Generated_Source\PSoC4/ADC_SAR_Seq_1.c **** *
 587:.\Generated_Source\PSoC4/ADC_SAR_Seq_1.c **** * Parameters:
 588:.\Generated_Source\PSoC4/ADC_SAR_Seq_1.c **** *  lowLimit: The low limit for a limit condition.
 589:.\Generated_Source\PSoC4/ADC_SAR_Seq_1.c **** *
 590:.\Generated_Source\PSoC4/ADC_SAR_Seq_1.c **** * Return:
 591:.\Generated_Source\PSoC4/ADC_SAR_Seq_1.c **** *  None.
 592:.\Generated_Source\PSoC4/ADC_SAR_Seq_1.c **** *
 593:.\Generated_Source\PSoC4/ADC_SAR_Seq_1.c **** *******************************************************************************/
 594:.\Generated_Source\PSoC4/ADC_SAR_Seq_1.c **** void ADC_SAR_Seq_1_SetLowLimit(uint32 lowLimit)
 595:.\Generated_Source\PSoC4/ADC_SAR_Seq_1.c **** {
 561              		.loc 1 595 0
 562              		.cfi_startproc
 563              	.LVL31:
 596:.\Generated_Source\PSoC4/ADC_SAR_Seq_1.c ****     ADC_SAR_Seq_1_SAR_RANGE_THRES_REG &= (uint32)(~ADC_SAR_Seq_1_RANGE_LOW_MASK);
 564              		.loc 1 596 0
 565 0000 044A     		ldr	r2, .L56
 597:.\Generated_Source\PSoC4/ADC_SAR_Seq_1.c ****     ADC_SAR_Seq_1_SAR_RANGE_THRES_REG |= lowLimit & ADC_SAR_Seq_1_RANGE_LOW_MASK;
ARM GAS  C:\temp\ccUyuQab.s 			page 22


 566              		.loc 1 597 0
 567 0002 80B2     		uxth	r0, r0
 568              	.LVL32:
 596:.\Generated_Source\PSoC4/ADC_SAR_Seq_1.c ****     ADC_SAR_Seq_1_SAR_RANGE_THRES_REG &= (uint32)(~ADC_SAR_Seq_1_RANGE_LOW_MASK);
 569              		.loc 1 596 0
 570 0004 1368     		ldr	r3, [r2]
 598:.\Generated_Source\PSoC4/ADC_SAR_Seq_1.c **** }
 571              		.loc 1 598 0
 572              		@ sp needed
 596:.\Generated_Source\PSoC4/ADC_SAR_Seq_1.c ****     ADC_SAR_Seq_1_SAR_RANGE_THRES_REG &= (uint32)(~ADC_SAR_Seq_1_RANGE_LOW_MASK);
 573              		.loc 1 596 0
 574 0006 1B0C     		lsr	r3, r3, #16
 575 0008 1B04     		lsl	r3, r3, #16
 576 000a 1360     		str	r3, [r2]
 597:.\Generated_Source\PSoC4/ADC_SAR_Seq_1.c ****     ADC_SAR_Seq_1_SAR_RANGE_THRES_REG |= lowLimit & ADC_SAR_Seq_1_RANGE_LOW_MASK;
 577              		.loc 1 597 0
 578 000c 1368     		ldr	r3, [r2]
 579 000e 1843     		orr	r0, r3
 580 0010 1060     		str	r0, [r2]
 581              		.loc 1 598 0
 582 0012 7047     		bx	lr
 583              	.L57:
 584              		.align	2
 585              	.L56:
 586 0014 18001A40 		.word	1075445784
 587              		.cfi_endproc
 588              	.LFE9:
 589              		.size	ADC_SAR_Seq_1_SetLowLimit, .-ADC_SAR_Seq_1_SetLowLimit
 590              		.section	.text.ADC_SAR_Seq_1_SetHighLimit,"ax",%progbits
 591              		.align	1
 592              		.global	ADC_SAR_Seq_1_SetHighLimit
 593              		.code	16
 594              		.thumb_func
 595              		.type	ADC_SAR_Seq_1_SetHighLimit, %function
 596              	ADC_SAR_Seq_1_SetHighLimit:
 597              	.LFB10:
 599:.\Generated_Source\PSoC4/ADC_SAR_Seq_1.c **** 
 600:.\Generated_Source\PSoC4/ADC_SAR_Seq_1.c **** 
 601:.\Generated_Source\PSoC4/ADC_SAR_Seq_1.c **** /*******************************************************************************
 602:.\Generated_Source\PSoC4/ADC_SAR_Seq_1.c **** * Function Name: ADC_SAR_Seq_1_SetHighLimit
 603:.\Generated_Source\PSoC4/ADC_SAR_Seq_1.c **** ********************************************************************************
 604:.\Generated_Source\PSoC4/ADC_SAR_Seq_1.c **** *
 605:.\Generated_Source\PSoC4/ADC_SAR_Seq_1.c **** * Summary:
 606:.\Generated_Source\PSoC4/ADC_SAR_Seq_1.c **** *  Sets the low limit parameter for a limit condition.
 607:.\Generated_Source\PSoC4/ADC_SAR_Seq_1.c **** *
 608:.\Generated_Source\PSoC4/ADC_SAR_Seq_1.c **** * Parameters:
 609:.\Generated_Source\PSoC4/ADC_SAR_Seq_1.c **** *  highLimit: The high limit for a limit condition.
 610:.\Generated_Source\PSoC4/ADC_SAR_Seq_1.c **** *
 611:.\Generated_Source\PSoC4/ADC_SAR_Seq_1.c **** * Return:
 612:.\Generated_Source\PSoC4/ADC_SAR_Seq_1.c **** *  None.
 613:.\Generated_Source\PSoC4/ADC_SAR_Seq_1.c **** *
 614:.\Generated_Source\PSoC4/ADC_SAR_Seq_1.c **** *******************************************************************************/
 615:.\Generated_Source\PSoC4/ADC_SAR_Seq_1.c **** void ADC_SAR_Seq_1_SetHighLimit(uint32 highLimit)
 616:.\Generated_Source\PSoC4/ADC_SAR_Seq_1.c **** {
 598              		.loc 1 616 0
 599              		.cfi_startproc
 600              	.LVL33:
ARM GAS  C:\temp\ccUyuQab.s 			page 23


 617:.\Generated_Source\PSoC4/ADC_SAR_Seq_1.c ****     ADC_SAR_Seq_1_SAR_RANGE_THRES_REG &= (uint32)(~ADC_SAR_Seq_1_RANGE_HIGH_MASK);
 601              		.loc 1 617 0
 602 0000 044B     		ldr	r3, .L59
 618:.\Generated_Source\PSoC4/ADC_SAR_Seq_1.c ****     ADC_SAR_Seq_1_SAR_RANGE_THRES_REG |= (uint32)(highLimit << ADC_SAR_Seq_1_RANGE_HIGH_OFFSET);
 603              		.loc 1 618 0
 604 0002 0004     		lsl	r0, r0, #16
 605              	.LVL34:
 617:.\Generated_Source\PSoC4/ADC_SAR_Seq_1.c ****     ADC_SAR_Seq_1_SAR_RANGE_THRES_REG &= (uint32)(~ADC_SAR_Seq_1_RANGE_HIGH_MASK);
 606              		.loc 1 617 0
 607 0004 1A68     		ldr	r2, [r3]
 619:.\Generated_Source\PSoC4/ADC_SAR_Seq_1.c **** }
 608              		.loc 1 619 0
 609              		@ sp needed
 617:.\Generated_Source\PSoC4/ADC_SAR_Seq_1.c ****     ADC_SAR_Seq_1_SAR_RANGE_THRES_REG &= (uint32)(~ADC_SAR_Seq_1_RANGE_HIGH_MASK);
 610              		.loc 1 617 0
 611 0006 92B2     		uxth	r2, r2
 612 0008 1A60     		str	r2, [r3]
 618:.\Generated_Source\PSoC4/ADC_SAR_Seq_1.c ****     ADC_SAR_Seq_1_SAR_RANGE_THRES_REG |= (uint32)(highLimit << ADC_SAR_Seq_1_RANGE_HIGH_OFFSET);
 613              		.loc 1 618 0
 614 000a 1A68     		ldr	r2, [r3]
 615 000c 1043     		orr	r0, r2
 616 000e 1860     		str	r0, [r3]
 617              		.loc 1 619 0
 618 0010 7047     		bx	lr
 619              	.L60:
 620 0012 C046     		.align	2
 621              	.L59:
 622 0014 18001A40 		.word	1075445784
 623              		.cfi_endproc
 624              	.LFE10:
 625              		.size	ADC_SAR_Seq_1_SetHighLimit, .-ADC_SAR_Seq_1_SetHighLimit
 626              		.section	.text.ADC_SAR_Seq_1_SetLimitMask,"ax",%progbits
 627              		.align	1
 628              		.global	ADC_SAR_Seq_1_SetLimitMask
 629              		.code	16
 630              		.thumb_func
 631              		.type	ADC_SAR_Seq_1_SetLimitMask, %function
 632              	ADC_SAR_Seq_1_SetLimitMask:
 633              	.LFB11:
 620:.\Generated_Source\PSoC4/ADC_SAR_Seq_1.c **** 
 621:.\Generated_Source\PSoC4/ADC_SAR_Seq_1.c **** 
 622:.\Generated_Source\PSoC4/ADC_SAR_Seq_1.c **** /*******************************************************************************
 623:.\Generated_Source\PSoC4/ADC_SAR_Seq_1.c **** * Function Name: ADC_SAR_Seq_1_SetLimitMask
 624:.\Generated_Source\PSoC4/ADC_SAR_Seq_1.c **** ********************************************************************************
 625:.\Generated_Source\PSoC4/ADC_SAR_Seq_1.c **** *
 626:.\Generated_Source\PSoC4/ADC_SAR_Seq_1.c **** * Summary:
 627:.\Generated_Source\PSoC4/ADC_SAR_Seq_1.c **** *  Sets the channel limit condition mask.
 628:.\Generated_Source\PSoC4/ADC_SAR_Seq_1.c **** *
 629:.\Generated_Source\PSoC4/ADC_SAR_Seq_1.c **** * Parameters:
 630:.\Generated_Source\PSoC4/ADC_SAR_Seq_1.c **** *  mask: Sets which channels that may cause a
 631:.\Generated_Source\PSoC4/ADC_SAR_Seq_1.c **** *  limit condition interrupt. Setting bits for channels that do not exist
 632:.\Generated_Source\PSoC4/ADC_SAR_Seq_1.c **** *  will have no effect. For example, if only 6 channels were enabled,
 633:.\Generated_Source\PSoC4/ADC_SAR_Seq_1.c **** *  setting a mask of 0x0103 would only enable the last two channels (0 and 1).
 634:.\Generated_Source\PSoC4/ADC_SAR_Seq_1.c **** *
 635:.\Generated_Source\PSoC4/ADC_SAR_Seq_1.c **** * Return:
 636:.\Generated_Source\PSoC4/ADC_SAR_Seq_1.c **** *  None.
 637:.\Generated_Source\PSoC4/ADC_SAR_Seq_1.c **** *
ARM GAS  C:\temp\ccUyuQab.s 			page 24


 638:.\Generated_Source\PSoC4/ADC_SAR_Seq_1.c **** *******************************************************************************/
 639:.\Generated_Source\PSoC4/ADC_SAR_Seq_1.c **** void ADC_SAR_Seq_1_SetLimitMask(uint32 mask)
 640:.\Generated_Source\PSoC4/ADC_SAR_Seq_1.c **** {
 634              		.loc 1 640 0
 635              		.cfi_startproc
 636              	.LVL35:
 641:.\Generated_Source\PSoC4/ADC_SAR_Seq_1.c ****     ADC_SAR_Seq_1_SAR_RANGE_INTR_MASK_REG = mask & ADC_SAR_Seq_1_MAX_CHANNELS_EN_MASK;
 637              		.loc 1 641 0
 638 0000 1F23     		mov	r3, #31
 639 0002 1840     		and	r0, r3
 640              	.LVL36:
 641 0004 014B     		ldr	r3, .L62
 642:.\Generated_Source\PSoC4/ADC_SAR_Seq_1.c **** }
 642              		.loc 1 642 0
 643              		@ sp needed
 641:.\Generated_Source\PSoC4/ADC_SAR_Seq_1.c ****     ADC_SAR_Seq_1_SAR_RANGE_INTR_MASK_REG = mask & ADC_SAR_Seq_1_MAX_CHANNELS_EN_MASK;
 644              		.loc 1 641 0
 645 0006 1860     		str	r0, [r3]
 646              		.loc 1 642 0
 647 0008 7047     		bx	lr
 648              	.L63:
 649 000a C046     		.align	2
 650              	.L62:
 651 000c 38021A40 		.word	1075446328
 652              		.cfi_endproc
 653              	.LFE11:
 654              		.size	ADC_SAR_Seq_1_SetLimitMask, .-ADC_SAR_Seq_1_SetLimitMask
 655              		.section	.text.ADC_SAR_Seq_1_SetSatMask,"ax",%progbits
 656              		.align	1
 657              		.global	ADC_SAR_Seq_1_SetSatMask
 658              		.code	16
 659              		.thumb_func
 660              		.type	ADC_SAR_Seq_1_SetSatMask, %function
 661              	ADC_SAR_Seq_1_SetSatMask:
 662              	.LFB12:
 643:.\Generated_Source\PSoC4/ADC_SAR_Seq_1.c **** 
 644:.\Generated_Source\PSoC4/ADC_SAR_Seq_1.c **** 
 645:.\Generated_Source\PSoC4/ADC_SAR_Seq_1.c **** /*******************************************************************************
 646:.\Generated_Source\PSoC4/ADC_SAR_Seq_1.c **** * Function Name: ADC_SAR_Seq_1_SetSatMask
 647:.\Generated_Source\PSoC4/ADC_SAR_Seq_1.c **** ********************************************************************************
 648:.\Generated_Source\PSoC4/ADC_SAR_Seq_1.c **** *
 649:.\Generated_Source\PSoC4/ADC_SAR_Seq_1.c **** * Summary:
 650:.\Generated_Source\PSoC4/ADC_SAR_Seq_1.c **** *  Sets the channel saturation event mask.
 651:.\Generated_Source\PSoC4/ADC_SAR_Seq_1.c **** *
 652:.\Generated_Source\PSoC4/ADC_SAR_Seq_1.c **** * Parameters:
 653:.\Generated_Source\PSoC4/ADC_SAR_Seq_1.c **** *  mask: Sets which channels that may cause a
 654:.\Generated_Source\PSoC4/ADC_SAR_Seq_1.c **** *  saturation event interrupt. Setting bits for channels that do not exist
 655:.\Generated_Source\PSoC4/ADC_SAR_Seq_1.c **** *  will have no effect. For example, if only 8 channels were enabled,
 656:.\Generated_Source\PSoC4/ADC_SAR_Seq_1.c **** *  setting a mask of 0x01C0 would only enable two channels (6 and 7).
 657:.\Generated_Source\PSoC4/ADC_SAR_Seq_1.c **** *
 658:.\Generated_Source\PSoC4/ADC_SAR_Seq_1.c **** * Return:
 659:.\Generated_Source\PSoC4/ADC_SAR_Seq_1.c **** *  None.
 660:.\Generated_Source\PSoC4/ADC_SAR_Seq_1.c **** *
 661:.\Generated_Source\PSoC4/ADC_SAR_Seq_1.c **** *******************************************************************************/
 662:.\Generated_Source\PSoC4/ADC_SAR_Seq_1.c **** void ADC_SAR_Seq_1_SetSatMask(uint32 mask)
 663:.\Generated_Source\PSoC4/ADC_SAR_Seq_1.c **** {
 663              		.loc 1 663 0
ARM GAS  C:\temp\ccUyuQab.s 			page 25


 664              		.cfi_startproc
 665              	.LVL37:
 664:.\Generated_Source\PSoC4/ADC_SAR_Seq_1.c ****     ADC_SAR_Seq_1_SAR_SATURATE_INTR_MASK_REG = mask & ADC_SAR_Seq_1_MAX_CHANNELS_EN_MASK;
 666              		.loc 1 664 0
 667 0000 1F23     		mov	r3, #31
 668 0002 1840     		and	r0, r3
 669              	.LVL38:
 670 0004 014B     		ldr	r3, .L65
 665:.\Generated_Source\PSoC4/ADC_SAR_Seq_1.c **** }
 671              		.loc 1 665 0
 672              		@ sp needed
 664:.\Generated_Source\PSoC4/ADC_SAR_Seq_1.c ****     ADC_SAR_Seq_1_SAR_SATURATE_INTR_MASK_REG = mask & ADC_SAR_Seq_1_MAX_CHANNELS_EN_MASK;
 673              		.loc 1 664 0
 674 0006 1860     		str	r0, [r3]
 675              		.loc 1 665 0
 676 0008 7047     		bx	lr
 677              	.L66:
 678 000a C046     		.align	2
 679              	.L65:
 680 000c 28021A40 		.word	1075446312
 681              		.cfi_endproc
 682              	.LFE12:
 683              		.size	ADC_SAR_Seq_1_SetSatMask, .-ADC_SAR_Seq_1_SetSatMask
 684              		.section	.text.ADC_SAR_Seq_1_SetOffset,"ax",%progbits
 685              		.align	1
 686              		.global	ADC_SAR_Seq_1_SetOffset
 687              		.code	16
 688              		.thumb_func
 689              		.type	ADC_SAR_Seq_1_SetOffset, %function
 690              	ADC_SAR_Seq_1_SetOffset:
 691              	.LFB13:
 666:.\Generated_Source\PSoC4/ADC_SAR_Seq_1.c **** 
 667:.\Generated_Source\PSoC4/ADC_SAR_Seq_1.c **** 
 668:.\Generated_Source\PSoC4/ADC_SAR_Seq_1.c **** /*******************************************************************************
 669:.\Generated_Source\PSoC4/ADC_SAR_Seq_1.c **** * Function Name: ADC_SAR_Seq_1_SetOffset
 670:.\Generated_Source\PSoC4/ADC_SAR_Seq_1.c **** ********************************************************************************
 671:.\Generated_Source\PSoC4/ADC_SAR_Seq_1.c **** *
 672:.\Generated_Source\PSoC4/ADC_SAR_Seq_1.c **** * Summary:
 673:.\Generated_Source\PSoC4/ADC_SAR_Seq_1.c **** *   Description: Sets the ADC offset which is used by the functions
 674:.\Generated_Source\PSoC4/ADC_SAR_Seq_1.c **** *   ADC_CountsTo_uVolts, ADC_CountsTo_mVolts and ADC_CountsTo_Volts
 675:.\Generated_Source\PSoC4/ADC_SAR_Seq_1.c **** *   to substract the offset from the given reading
 676:.\Generated_Source\PSoC4/ADC_SAR_Seq_1.c **** *   before calculating the voltage conversion.
 677:.\Generated_Source\PSoC4/ADC_SAR_Seq_1.c **** *
 678:.\Generated_Source\PSoC4/ADC_SAR_Seq_1.c **** * Parameters:
 679:.\Generated_Source\PSoC4/ADC_SAR_Seq_1.c **** *  chan: ADC channel number.
 680:.\Generated_Source\PSoC4/ADC_SAR_Seq_1.c **** *  offset: This value is a measured value when the
 681:.\Generated_Source\PSoC4/ADC_SAR_Seq_1.c **** *          inputs are shorted or connected to the same input voltage.
 682:.\Generated_Source\PSoC4/ADC_SAR_Seq_1.c **** *
 683:.\Generated_Source\PSoC4/ADC_SAR_Seq_1.c **** * Return:
 684:.\Generated_Source\PSoC4/ADC_SAR_Seq_1.c **** *  None.
 685:.\Generated_Source\PSoC4/ADC_SAR_Seq_1.c **** *
 686:.\Generated_Source\PSoC4/ADC_SAR_Seq_1.c **** * Global variables:
 687:.\Generated_Source\PSoC4/ADC_SAR_Seq_1.c **** *  ADC_SAR_Seq_1_Offset:  Modified to set the user provided offset.
 688:.\Generated_Source\PSoC4/ADC_SAR_Seq_1.c **** *
 689:.\Generated_Source\PSoC4/ADC_SAR_Seq_1.c **** *******************************************************************************/
 690:.\Generated_Source\PSoC4/ADC_SAR_Seq_1.c **** void ADC_SAR_Seq_1_SetOffset(uint32 chan, int16 offset)
 691:.\Generated_Source\PSoC4/ADC_SAR_Seq_1.c **** {
ARM GAS  C:\temp\ccUyuQab.s 			page 26


 692              		.loc 1 691 0
 693              		.cfi_startproc
 694              	.LVL39:
 692:.\Generated_Source\PSoC4/ADC_SAR_Seq_1.c ****     /* Halt CPU in debug mode if channel is out of valid range */
 693:.\Generated_Source\PSoC4/ADC_SAR_Seq_1.c ****     CYASSERT(chan < ADC_SAR_Seq_1_TOTAL_CHANNELS_NUM);
 694:.\Generated_Source\PSoC4/ADC_SAR_Seq_1.c **** 
 695:.\Generated_Source\PSoC4/ADC_SAR_Seq_1.c ****     ADC_SAR_Seq_1_offset[chan] = offset;
 695              		.loc 1 695 0
 696 0000 014B     		ldr	r3, .L68
 697 0002 4000     		lsl	r0, r0, #1
 698              	.LVL40:
 699 0004 C152     		strh	r1, [r0, r3]
 696:.\Generated_Source\PSoC4/ADC_SAR_Seq_1.c **** }
 700              		.loc 1 696 0
 701              		@ sp needed
 702 0006 7047     		bx	lr
 703              	.L69:
 704              		.align	2
 705              	.L68:
 706 0008 00000000 		.word	ADC_SAR_Seq_1_offset
 707              		.cfi_endproc
 708              	.LFE13:
 709              		.size	ADC_SAR_Seq_1_SetOffset, .-ADC_SAR_Seq_1_SetOffset
 710              		.section	.text.ADC_SAR_Seq_1_SetGain,"ax",%progbits
 711              		.align	1
 712              		.global	ADC_SAR_Seq_1_SetGain
 713              		.code	16
 714              		.thumb_func
 715              		.type	ADC_SAR_Seq_1_SetGain, %function
 716              	ADC_SAR_Seq_1_SetGain:
 717              	.LFB14:
 697:.\Generated_Source\PSoC4/ADC_SAR_Seq_1.c **** 
 698:.\Generated_Source\PSoC4/ADC_SAR_Seq_1.c **** 
 699:.\Generated_Source\PSoC4/ADC_SAR_Seq_1.c **** /*******************************************************************************
 700:.\Generated_Source\PSoC4/ADC_SAR_Seq_1.c **** * Function Name: ADC_SAR_Seq_1_SetGain
 701:.\Generated_Source\PSoC4/ADC_SAR_Seq_1.c **** ********************************************************************************
 702:.\Generated_Source\PSoC4/ADC_SAR_Seq_1.c **** *
 703:.\Generated_Source\PSoC4/ADC_SAR_Seq_1.c **** * Summary:
 704:.\Generated_Source\PSoC4/ADC_SAR_Seq_1.c **** *  Description: Sets the ADC gain in counts per 10 volt for the voltage
 705:.\Generated_Source\PSoC4/ADC_SAR_Seq_1.c **** *  conversion functions below. This value is set by default by the
 706:.\Generated_Source\PSoC4/ADC_SAR_Seq_1.c **** *  reference and input range settings. It should only be used to further
 707:.\Generated_Source\PSoC4/ADC_SAR_Seq_1.c **** *  calibrate the ADC with a known input or if an external reference is
 708:.\Generated_Source\PSoC4/ADC_SAR_Seq_1.c **** *  used. Affects the ADC_CountsTo_uVolts, ADC_CountsTo_mVolts
 709:.\Generated_Source\PSoC4/ADC_SAR_Seq_1.c **** *  and ADC_CountsTo_Volts functions by supplying the correct
 710:.\Generated_Source\PSoC4/ADC_SAR_Seq_1.c **** *  conversion between ADC counts and voltage.
 711:.\Generated_Source\PSoC4/ADC_SAR_Seq_1.c **** *
 712:.\Generated_Source\PSoC4/ADC_SAR_Seq_1.c **** * Parameters:
 713:.\Generated_Source\PSoC4/ADC_SAR_Seq_1.c **** *  chan: ADC channel number.
 714:.\Generated_Source\PSoC4/ADC_SAR_Seq_1.c **** *  adcGain: ADC gain in counts per 10 volts.
 715:.\Generated_Source\PSoC4/ADC_SAR_Seq_1.c **** *
 716:.\Generated_Source\PSoC4/ADC_SAR_Seq_1.c **** * Return:
 717:.\Generated_Source\PSoC4/ADC_SAR_Seq_1.c **** *  None.
 718:.\Generated_Source\PSoC4/ADC_SAR_Seq_1.c **** *
 719:.\Generated_Source\PSoC4/ADC_SAR_Seq_1.c **** * Global variables:
 720:.\Generated_Source\PSoC4/ADC_SAR_Seq_1.c **** *  ADC_SAR_Seq_1_CountsPer10Volt:  modified to set the ADC gain in counts
 721:.\Generated_Source\PSoC4/ADC_SAR_Seq_1.c **** *   per 10 volt.
 722:.\Generated_Source\PSoC4/ADC_SAR_Seq_1.c **** *
ARM GAS  C:\temp\ccUyuQab.s 			page 27


 723:.\Generated_Source\PSoC4/ADC_SAR_Seq_1.c **** *******************************************************************************/
 724:.\Generated_Source\PSoC4/ADC_SAR_Seq_1.c **** void ADC_SAR_Seq_1_SetGain(uint32 chan, int32 adcGain)
 725:.\Generated_Source\PSoC4/ADC_SAR_Seq_1.c **** {
 718              		.loc 1 725 0
 719              		.cfi_startproc
 720              	.LVL41:
 726:.\Generated_Source\PSoC4/ADC_SAR_Seq_1.c ****     /* Halt CPU in debug mode if channel is out of valid range */
 727:.\Generated_Source\PSoC4/ADC_SAR_Seq_1.c ****     CYASSERT(chan < ADC_SAR_Seq_1_TOTAL_CHANNELS_NUM);
 728:.\Generated_Source\PSoC4/ADC_SAR_Seq_1.c **** 
 729:.\Generated_Source\PSoC4/ADC_SAR_Seq_1.c ****     ADC_SAR_Seq_1_countsPer10Volt[chan] = adcGain;
 721              		.loc 1 729 0
 722 0000 014B     		ldr	r3, .L71
 723 0002 8000     		lsl	r0, r0, #2
 724              	.LVL42:
 725 0004 C150     		str	r1, [r0, r3]
 730:.\Generated_Source\PSoC4/ADC_SAR_Seq_1.c **** }
 726              		.loc 1 730 0
 727              		@ sp needed
 728 0006 7047     		bx	lr
 729              	.L72:
 730              		.align	2
 731              	.L71:
 732 0008 00000000 		.word	ADC_SAR_Seq_1_countsPer10Volt
 733              		.cfi_endproc
 734              	.LFE14:
 735              		.size	ADC_SAR_Seq_1_SetGain, .-ADC_SAR_Seq_1_SetGain
 736              		.section	.text.ADC_SAR_Seq_1_CountsTo_mVolts,"ax",%progbits
 737              		.align	1
 738              		.global	ADC_SAR_Seq_1_CountsTo_mVolts
 739              		.code	16
 740              		.thumb_func
 741              		.type	ADC_SAR_Seq_1_CountsTo_mVolts, %function
 742              	ADC_SAR_Seq_1_CountsTo_mVolts:
 743              	.LFB15:
 731:.\Generated_Source\PSoC4/ADC_SAR_Seq_1.c **** 
 732:.\Generated_Source\PSoC4/ADC_SAR_Seq_1.c **** 
 733:.\Generated_Source\PSoC4/ADC_SAR_Seq_1.c **** #if(ADC_SAR_Seq_1_DEFAULT_JUSTIFICATION_SEL == ADC_SAR_Seq_1__RIGHT)
 734:.\Generated_Source\PSoC4/ADC_SAR_Seq_1.c **** 
 735:.\Generated_Source\PSoC4/ADC_SAR_Seq_1.c **** 
 736:.\Generated_Source\PSoC4/ADC_SAR_Seq_1.c ****     /*******************************************************************************
 737:.\Generated_Source\PSoC4/ADC_SAR_Seq_1.c ****     * Function Name: ADC_SAR_Seq_1_CountsTo_mVolts
 738:.\Generated_Source\PSoC4/ADC_SAR_Seq_1.c ****     ********************************************************************************
 739:.\Generated_Source\PSoC4/ADC_SAR_Seq_1.c ****     *
 740:.\Generated_Source\PSoC4/ADC_SAR_Seq_1.c ****     * Summary:
 741:.\Generated_Source\PSoC4/ADC_SAR_Seq_1.c ****     *  This function converts ADC counts to mVolts
 742:.\Generated_Source\PSoC4/ADC_SAR_Seq_1.c ****     *  This function is not available when left data format justification selected.
 743:.\Generated_Source\PSoC4/ADC_SAR_Seq_1.c ****     *
 744:.\Generated_Source\PSoC4/ADC_SAR_Seq_1.c ****     * Parameters:
 745:.\Generated_Source\PSoC4/ADC_SAR_Seq_1.c ****     *  chan: The ADC channel number.
 746:.\Generated_Source\PSoC4/ADC_SAR_Seq_1.c ****     *  adcCounts: Result from the ADC conversion
 747:.\Generated_Source\PSoC4/ADC_SAR_Seq_1.c ****     *
 748:.\Generated_Source\PSoC4/ADC_SAR_Seq_1.c ****     * Return:
 749:.\Generated_Source\PSoC4/ADC_SAR_Seq_1.c ****     *  Results in mVolts
 750:.\Generated_Source\PSoC4/ADC_SAR_Seq_1.c ****     *
 751:.\Generated_Source\PSoC4/ADC_SAR_Seq_1.c ****     * Global variables:
 752:.\Generated_Source\PSoC4/ADC_SAR_Seq_1.c ****     *  ADC_SAR_Seq_1_countsPer10Volt:  used to convert ADC counts to mVolts.
 753:.\Generated_Source\PSoC4/ADC_SAR_Seq_1.c ****     *  ADC_SAR_Seq_1_Offset:  Used as the offset while converting ADC counts
ARM GAS  C:\temp\ccUyuQab.s 			page 28


 754:.\Generated_Source\PSoC4/ADC_SAR_Seq_1.c ****     *   to mVolts.
 755:.\Generated_Source\PSoC4/ADC_SAR_Seq_1.c ****     *
 756:.\Generated_Source\PSoC4/ADC_SAR_Seq_1.c ****     *******************************************************************************/
 757:.\Generated_Source\PSoC4/ADC_SAR_Seq_1.c ****     int16 ADC_SAR_Seq_1_CountsTo_mVolts(uint32 chan, int16 adcCounts)
 758:.\Generated_Source\PSoC4/ADC_SAR_Seq_1.c ****     {
 744              		.loc 1 758 0
 745              		.cfi_startproc
 746              	.LVL43:
 747 0000 38B5     		push	{r3, r4, r5, lr}
 748              		.cfi_def_cfa_offset 16
 749              		.cfi_offset 3, -16
 750              		.cfi_offset 4, -12
 751              		.cfi_offset 5, -8
 752              		.cfi_offset 14, -4
 759:.\Generated_Source\PSoC4/ADC_SAR_Seq_1.c ****         int16 mVolts;
 760:.\Generated_Source\PSoC4/ADC_SAR_Seq_1.c **** 
 761:.\Generated_Source\PSoC4/ADC_SAR_Seq_1.c ****         /* Halt CPU in debug mode if channel is out of valid range */
 762:.\Generated_Source\PSoC4/ADC_SAR_Seq_1.c ****         CYASSERT(chan < ADC_SAR_Seq_1_TOTAL_CHANNELS_NUM);
 763:.\Generated_Source\PSoC4/ADC_SAR_Seq_1.c **** 
 764:.\Generated_Source\PSoC4/ADC_SAR_Seq_1.c ****         /* Divide the adcCount when accumulate averaging mode selected */
 765:.\Generated_Source\PSoC4/ADC_SAR_Seq_1.c ****         #if(ADC_SAR_Seq_1_DEFAULT_AVG_MODE == ADC_SAR_Seq_1__ACCUMULATE)
 766:.\Generated_Source\PSoC4/ADC_SAR_Seq_1.c ****             if((ADC_SAR_Seq_1_channelsConfig[chan] & ADC_SAR_Seq_1_AVERAGING_EN) != 0u)
 767:.\Generated_Source\PSoC4/ADC_SAR_Seq_1.c ****             {
 768:.\Generated_Source\PSoC4/ADC_SAR_Seq_1.c ****                 adcCounts /= ADC_SAR_Seq_1_DEFAULT_AVG_SAMPLES_DIV;
 769:.\Generated_Source\PSoC4/ADC_SAR_Seq_1.c ****             }
 770:.\Generated_Source\PSoC4/ADC_SAR_Seq_1.c ****         #endif /* ADC_SAR_Seq_1_DEFAULT_AVG_MODE == ADC_SAR_Seq_1__ACCUMULATE */
 771:.\Generated_Source\PSoC4/ADC_SAR_Seq_1.c **** 
 772:.\Generated_Source\PSoC4/ADC_SAR_Seq_1.c ****         /* Subtract ADC offset */
 773:.\Generated_Source\PSoC4/ADC_SAR_Seq_1.c ****         adcCounts -= ADC_SAR_Seq_1_offset[chan];
 753              		.loc 1 773 0
 754 0002 0C4B     		ldr	r3, .L76
 755 0004 4200     		lsl	r2, r0, #1
 756 0006 D35A     		ldrh	r3, [r2, r3]
 757 0008 0B4D     		ldr	r5, .L76+4
 758 000a 8000     		lsl	r0, r0, #2
 759              	.LVL44:
 760 000c C91A     		sub	r1, r1, r3
 761              	.LVL45:
 774:.\Generated_Source\PSoC4/ADC_SAR_Seq_1.c **** 
 775:.\Generated_Source\PSoC4/ADC_SAR_Seq_1.c ****         mVolts = (int16)((((int32)adcCounts * ADC_SAR_Seq_1_10MV_COUNTS) + ( (adcCounts > 0) ?
 762              		.loc 1 775 0
 763 000e 0B4C     		ldr	r4, .L76+8
 776:.\Generated_Source\PSoC4/ADC_SAR_Seq_1.c ****                  (ADC_SAR_Seq_1_countsPer10Volt[chan] / 2) : (-(ADC_SAR_Seq_1_countsPer10Volt[chan]
 764              		.loc 1 776 0
 765 0010 2A58     		ldr	r2, [r5, r0]
 773:.\Generated_Source\PSoC4/ADC_SAR_Seq_1.c **** 
 766              		.loc 1 773 0
 767 0012 09B2     		sxth	r1, r1
 768              	.LVL46:
 775:.\Generated_Source\PSoC4/ADC_SAR_Seq_1.c ****                  (ADC_SAR_Seq_1_countsPer10Volt[chan] / 2) : (-(ADC_SAR_Seq_1_countsPer10Volt[chan]
 769              		.loc 1 775 0
 770 0014 4C43     		mul	r4, r1
 771              		.loc 1 776 0
 772 0016 D30F     		lsr	r3, r2, #31
 773 0018 0029     		cmp	r1, #0
 774 001a 02DD     		ble	.L74
 775              		.loc 1 776 0 is_stmt 0 discriminator 1
ARM GAS  C:\temp\ccUyuQab.s 			page 29


 776 001c 9B18     		add	r3, r3, r2
 777 001e 5B10     		asr	r3, r3, #1
 778 0020 02E0     		b	.L75
 779              	.L74:
 780              		.loc 1 776 0 discriminator 2
 781 0022 9A18     		add	r2, r3, r2
 782 0024 5210     		asr	r2, r2, #1
 783 0026 5342     		neg	r3, r2
 784              	.L75:
 777:.\Generated_Source\PSoC4/ADC_SAR_Seq_1.c ****                  / ADC_SAR_Seq_1_countsPer10Volt[chan]);
 785              		.loc 1 777 0 is_stmt 1
 786 0028 2958     		ldr	r1, [r5, r0]
 787              	.LVL47:
 775:.\Generated_Source\PSoC4/ADC_SAR_Seq_1.c ****                  (ADC_SAR_Seq_1_countsPer10Volt[chan] / 2) : (-(ADC_SAR_Seq_1_countsPer10Volt[chan]
 788              		.loc 1 775 0
 789 002a E018     		add	r0, r4, r3
 790              		.loc 1 777 0
 791 002c FFF7FEFF 		bl	__aeabi_idiv
 792              	.LVL48:
 778:.\Generated_Source\PSoC4/ADC_SAR_Seq_1.c **** 
 779:.\Generated_Source\PSoC4/ADC_SAR_Seq_1.c ****         return( mVolts );
 780:.\Generated_Source\PSoC4/ADC_SAR_Seq_1.c ****     }
 793              		.loc 1 780 0
 794              		@ sp needed
 779:.\Generated_Source\PSoC4/ADC_SAR_Seq_1.c ****     }
 795              		.loc 1 779 0
 796 0030 00B2     		sxth	r0, r0
 797              		.loc 1 780 0
 798 0032 38BD     		pop	{r3, r4, r5, pc}
 799              	.L77:
 800              		.align	2
 801              	.L76:
 802 0034 00000000 		.word	ADC_SAR_Seq_1_offset
 803 0038 00000000 		.word	ADC_SAR_Seq_1_countsPer10Volt
 804 003c 10270000 		.word	10000
 805              		.cfi_endproc
 806              	.LFE15:
 807              		.size	ADC_SAR_Seq_1_CountsTo_mVolts, .-ADC_SAR_Seq_1_CountsTo_mVolts
 808              		.global	__aeabi_lmul
 809              		.global	__aeabi_ldivmod
 810              		.section	.text.ADC_SAR_Seq_1_CountsTo_uVolts,"ax",%progbits
 811              		.align	1
 812              		.global	ADC_SAR_Seq_1_CountsTo_uVolts
 813              		.code	16
 814              		.thumb_func
 815              		.type	ADC_SAR_Seq_1_CountsTo_uVolts, %function
 816              	ADC_SAR_Seq_1_CountsTo_uVolts:
 817              	.LFB16:
 781:.\Generated_Source\PSoC4/ADC_SAR_Seq_1.c **** 
 782:.\Generated_Source\PSoC4/ADC_SAR_Seq_1.c **** 
 783:.\Generated_Source\PSoC4/ADC_SAR_Seq_1.c ****     /*******************************************************************************
 784:.\Generated_Source\PSoC4/ADC_SAR_Seq_1.c ****     * Function Name: ADC_SAR_Seq_1_CountsTo_uVolts
 785:.\Generated_Source\PSoC4/ADC_SAR_Seq_1.c ****     ********************************************************************************
 786:.\Generated_Source\PSoC4/ADC_SAR_Seq_1.c ****     *
 787:.\Generated_Source\PSoC4/ADC_SAR_Seq_1.c ****     * Summary:
 788:.\Generated_Source\PSoC4/ADC_SAR_Seq_1.c ****     *  This function converts ADC counts to micro Volts
 789:.\Generated_Source\PSoC4/ADC_SAR_Seq_1.c ****     *  This function is not available when left data format justification selected.
ARM GAS  C:\temp\ccUyuQab.s 			page 30


 790:.\Generated_Source\PSoC4/ADC_SAR_Seq_1.c ****     *
 791:.\Generated_Source\PSoC4/ADC_SAR_Seq_1.c ****     * Parameters:
 792:.\Generated_Source\PSoC4/ADC_SAR_Seq_1.c ****     *  chan: The ADC channel number.
 793:.\Generated_Source\PSoC4/ADC_SAR_Seq_1.c ****     *  adcCounts: Result from the ADC conversion
 794:.\Generated_Source\PSoC4/ADC_SAR_Seq_1.c ****     *
 795:.\Generated_Source\PSoC4/ADC_SAR_Seq_1.c ****     * Return:
 796:.\Generated_Source\PSoC4/ADC_SAR_Seq_1.c ****     *  Results in uVolts
 797:.\Generated_Source\PSoC4/ADC_SAR_Seq_1.c ****     *
 798:.\Generated_Source\PSoC4/ADC_SAR_Seq_1.c ****     * Global variables:
 799:.\Generated_Source\PSoC4/ADC_SAR_Seq_1.c ****     *  ADC_SAR_Seq_1_countsPer10Volt:  used to convert ADC counts to uVolts.
 800:.\Generated_Source\PSoC4/ADC_SAR_Seq_1.c ****     *  ADC_SAR_Seq_1_Offset:  Used as the offset while converting ADC counts
 801:.\Generated_Source\PSoC4/ADC_SAR_Seq_1.c ****     *   to mVolts.
 802:.\Generated_Source\PSoC4/ADC_SAR_Seq_1.c ****     *
 803:.\Generated_Source\PSoC4/ADC_SAR_Seq_1.c ****     * Theory:
 804:.\Generated_Source\PSoC4/ADC_SAR_Seq_1.c ****     *  Care must be taken to not exceed the maximum value for a 31 bit signed
 805:.\Generated_Source\PSoC4/ADC_SAR_Seq_1.c ****     *  number in the conversion to uVolts and at the same time not loose
 806:.\Generated_Source\PSoC4/ADC_SAR_Seq_1.c ****     *  resolution.
 807:.\Generated_Source\PSoC4/ADC_SAR_Seq_1.c ****     *  To convert adcCounts to microVolts it is required to be multiplied
 808:.\Generated_Source\PSoC4/ADC_SAR_Seq_1.c ****     *  on 10 million and later divide on gain in counts per 10V.
 809:.\Generated_Source\PSoC4/ADC_SAR_Seq_1.c ****     *
 810:.\Generated_Source\PSoC4/ADC_SAR_Seq_1.c ****     *******************************************************************************/
 811:.\Generated_Source\PSoC4/ADC_SAR_Seq_1.c ****     int32 ADC_SAR_Seq_1_CountsTo_uVolts(uint32 chan, int16 adcCounts)
 812:.\Generated_Source\PSoC4/ADC_SAR_Seq_1.c ****     {
 818              		.loc 1 812 0
 819              		.cfi_startproc
 820              	.LVL49:
 813:.\Generated_Source\PSoC4/ADC_SAR_Seq_1.c ****         int64 uVolts;
 814:.\Generated_Source\PSoC4/ADC_SAR_Seq_1.c **** 
 815:.\Generated_Source\PSoC4/ADC_SAR_Seq_1.c ****         /* Halt CPU in debug mode if channel is out of valid range */
 816:.\Generated_Source\PSoC4/ADC_SAR_Seq_1.c ****         CYASSERT(chan < ADC_SAR_Seq_1_TOTAL_CHANNELS_NUM);
 817:.\Generated_Source\PSoC4/ADC_SAR_Seq_1.c **** 
 818:.\Generated_Source\PSoC4/ADC_SAR_Seq_1.c ****         /* Divide the adcCount when accumulate averaging mode selected */
 819:.\Generated_Source\PSoC4/ADC_SAR_Seq_1.c ****         #if(ADC_SAR_Seq_1_DEFAULT_AVG_MODE == ADC_SAR_Seq_1__ACCUMULATE)
 820:.\Generated_Source\PSoC4/ADC_SAR_Seq_1.c ****             if((ADC_SAR_Seq_1_channelsConfig[chan] & ADC_SAR_Seq_1_AVERAGING_EN) != 0u)
 821:.\Generated_Source\PSoC4/ADC_SAR_Seq_1.c ****             {
 822:.\Generated_Source\PSoC4/ADC_SAR_Seq_1.c ****                 adcCounts /= ADC_SAR_Seq_1_DEFAULT_AVG_SAMPLES_DIV;
 823:.\Generated_Source\PSoC4/ADC_SAR_Seq_1.c ****             }
 824:.\Generated_Source\PSoC4/ADC_SAR_Seq_1.c ****         #endif /* ADC_SAR_Seq_1_DEFAULT_AVG_MODE == ADC_SAR_Seq_1__ACCUMULATE */
 825:.\Generated_Source\PSoC4/ADC_SAR_Seq_1.c **** 
 826:.\Generated_Source\PSoC4/ADC_SAR_Seq_1.c ****         /* Subtract ADC offset */
 827:.\Generated_Source\PSoC4/ADC_SAR_Seq_1.c ****         adcCounts -= ADC_SAR_Seq_1_offset[chan];
 821              		.loc 1 827 0
 822 0000 094B     		ldr	r3, .L79
 823 0002 4200     		lsl	r2, r0, #1
 824 0004 D35A     		ldrh	r3, [r2, r3]
 812:.\Generated_Source\PSoC4/ADC_SAR_Seq_1.c ****         int64 uVolts;
 825              		.loc 1 812 0
 826 0006 10B5     		push	{r4, lr}
 827              		.cfi_def_cfa_offset 8
 828              		.cfi_offset 4, -8
 829              		.cfi_offset 14, -4
 830              		.loc 1 827 0
 831 0008 C91A     		sub	r1, r1, r3
 832              	.LVL50:
 828:.\Generated_Source\PSoC4/ADC_SAR_Seq_1.c **** 
 829:.\Generated_Source\PSoC4/ADC_SAR_Seq_1.c ****         uVolts = ((int64)adcCounts * ADC_SAR_Seq_1_10UV_COUNTS) / ADC_SAR_Seq_1_countsPer10Volt[cha
 833              		.loc 1 829 0
ARM GAS  C:\temp\ccUyuQab.s 			page 31


 834 000a 084B     		ldr	r3, .L79+4
 835 000c 8000     		lsl	r0, r0, #2
 836              	.LVL51:
 837 000e C458     		ldr	r4, [r0, r3]
 838              	.LVL52:
 839 0010 08B2     		sxth	r0, r1
 840 0012 074A     		ldr	r2, .L79+8
 841 0014 0023     		mov	r3, #0
 842 0016 C117     		asr	r1, r0, #31
 843              	.LVL53:
 844 0018 FFF7FEFF 		bl	__aeabi_lmul
 845              	.LVL54:
 846 001c E317     		asr	r3, r4, #31
 847 001e 221C     		mov	r2, r4
 848 0020 FFF7FEFF 		bl	__aeabi_ldivmod
 849              	.LVL55:
 830:.\Generated_Source\PSoC4/ADC_SAR_Seq_1.c **** 
 831:.\Generated_Source\PSoC4/ADC_SAR_Seq_1.c ****         return( (int32)uVolts );
 832:.\Generated_Source\PSoC4/ADC_SAR_Seq_1.c ****     }
 850              		.loc 1 832 0
 851              		@ sp needed
 852 0024 10BD     		pop	{r4, pc}
 853              	.L80:
 854 0026 C046     		.align	2
 855              	.L79:
 856 0028 00000000 		.word	ADC_SAR_Seq_1_offset
 857 002c 00000000 		.word	ADC_SAR_Seq_1_countsPer10Volt
 858 0030 80969800 		.word	10000000
 859              		.cfi_endproc
 860              	.LFE16:
 861              		.size	ADC_SAR_Seq_1_CountsTo_uVolts, .-ADC_SAR_Seq_1_CountsTo_uVolts
 862              		.global	__aeabi_i2f
 863              		.global	__aeabi_fmul
 864              		.global	__aeabi_fdiv
 865              		.section	.text.ADC_SAR_Seq_1_CountsTo_Volts,"ax",%progbits
 866              		.align	1
 867              		.global	ADC_SAR_Seq_1_CountsTo_Volts
 868              		.code	16
 869              		.thumb_func
 870              		.type	ADC_SAR_Seq_1_CountsTo_Volts, %function
 871              	ADC_SAR_Seq_1_CountsTo_Volts:
 872              	.LFB17:
 833:.\Generated_Source\PSoC4/ADC_SAR_Seq_1.c **** 
 834:.\Generated_Source\PSoC4/ADC_SAR_Seq_1.c **** 
 835:.\Generated_Source\PSoC4/ADC_SAR_Seq_1.c ****     /*******************************************************************************
 836:.\Generated_Source\PSoC4/ADC_SAR_Seq_1.c ****     * Function Name: ADC_SAR_Seq_1_CountsTo_Volts
 837:.\Generated_Source\PSoC4/ADC_SAR_Seq_1.c ****     ********************************************************************************
 838:.\Generated_Source\PSoC4/ADC_SAR_Seq_1.c ****     *
 839:.\Generated_Source\PSoC4/ADC_SAR_Seq_1.c ****     * Summary:
 840:.\Generated_Source\PSoC4/ADC_SAR_Seq_1.c ****     *  Converts the ADC output to Volts as a floating point number.
 841:.\Generated_Source\PSoC4/ADC_SAR_Seq_1.c ****     *  This function is not available when left data format justification selected.
 842:.\Generated_Source\PSoC4/ADC_SAR_Seq_1.c ****     *
 843:.\Generated_Source\PSoC4/ADC_SAR_Seq_1.c ****     * Parameters:
 844:.\Generated_Source\PSoC4/ADC_SAR_Seq_1.c ****     *  chan: The ADC channel number.
 845:.\Generated_Source\PSoC4/ADC_SAR_Seq_1.c ****     *  Result from the ADC conversion
 846:.\Generated_Source\PSoC4/ADC_SAR_Seq_1.c ****     *
 847:.\Generated_Source\PSoC4/ADC_SAR_Seq_1.c ****     * Return:
ARM GAS  C:\temp\ccUyuQab.s 			page 32


 848:.\Generated_Source\PSoC4/ADC_SAR_Seq_1.c ****     *  Results in Volts
 849:.\Generated_Source\PSoC4/ADC_SAR_Seq_1.c ****     *
 850:.\Generated_Source\PSoC4/ADC_SAR_Seq_1.c ****     * Global variables:
 851:.\Generated_Source\PSoC4/ADC_SAR_Seq_1.c ****     *  ADC_SAR_Seq_1_countsPer10Volt:  used to convert ADC counts to Volts.
 852:.\Generated_Source\PSoC4/ADC_SAR_Seq_1.c ****     *  ADC_SAR_Seq_1_Offset:  Used as the offset while converting ADC counts
 853:.\Generated_Source\PSoC4/ADC_SAR_Seq_1.c ****     *   to mVolts.
 854:.\Generated_Source\PSoC4/ADC_SAR_Seq_1.c ****     *
 855:.\Generated_Source\PSoC4/ADC_SAR_Seq_1.c ****     *******************************************************************************/
 856:.\Generated_Source\PSoC4/ADC_SAR_Seq_1.c ****     float32 ADC_SAR_Seq_1_CountsTo_Volts(uint32 chan, int16 adcCounts)
 857:.\Generated_Source\PSoC4/ADC_SAR_Seq_1.c ****     {
 873              		.loc 1 857 0
 874              		.cfi_startproc
 875              	.LVL56:
 876 0000 38B5     		push	{r3, r4, r5, lr}
 877              		.cfi_def_cfa_offset 16
 878              		.cfi_offset 3, -16
 879              		.cfi_offset 4, -12
 880              		.cfi_offset 5, -8
 881              		.cfi_offset 14, -4
 858:.\Generated_Source\PSoC4/ADC_SAR_Seq_1.c ****         float32 volts;
 859:.\Generated_Source\PSoC4/ADC_SAR_Seq_1.c **** 
 860:.\Generated_Source\PSoC4/ADC_SAR_Seq_1.c ****         /* Halt CPU in debug mode if channel is out of valid range */
 861:.\Generated_Source\PSoC4/ADC_SAR_Seq_1.c ****         CYASSERT(chan < ADC_SAR_Seq_1_TOTAL_CHANNELS_NUM);
 862:.\Generated_Source\PSoC4/ADC_SAR_Seq_1.c **** 
 863:.\Generated_Source\PSoC4/ADC_SAR_Seq_1.c ****         /* Divide the adcCount when accumulate averaging mode selected */
 864:.\Generated_Source\PSoC4/ADC_SAR_Seq_1.c ****         #if(ADC_SAR_Seq_1_DEFAULT_AVG_MODE == ADC_SAR_Seq_1__ACCUMULATE)
 865:.\Generated_Source\PSoC4/ADC_SAR_Seq_1.c ****             if((ADC_SAR_Seq_1_channelsConfig[chan] & ADC_SAR_Seq_1_AVERAGING_EN) != 0u)
 866:.\Generated_Source\PSoC4/ADC_SAR_Seq_1.c ****             {
 867:.\Generated_Source\PSoC4/ADC_SAR_Seq_1.c ****                 adcCounts /= ADC_SAR_Seq_1_DEFAULT_AVG_SAMPLES_DIV;
 868:.\Generated_Source\PSoC4/ADC_SAR_Seq_1.c ****             }
 869:.\Generated_Source\PSoC4/ADC_SAR_Seq_1.c ****         #endif /* ADC_SAR_Seq_1_DEFAULT_AVG_MODE == ADC_SAR_Seq_1__ACCUMULATE */
 870:.\Generated_Source\PSoC4/ADC_SAR_Seq_1.c **** 
 871:.\Generated_Source\PSoC4/ADC_SAR_Seq_1.c ****         /* Subtract ADC offset */
 872:.\Generated_Source\PSoC4/ADC_SAR_Seq_1.c ****         adcCounts -= ADC_SAR_Seq_1_offset[chan];
 882              		.loc 1 872 0
 883 0002 0B4B     		ldr	r3, .L82
 884 0004 4200     		lsl	r2, r0, #1
 885 0006 D35A     		ldrh	r3, [r2, r3]
 873:.\Generated_Source\PSoC4/ADC_SAR_Seq_1.c **** 
 874:.\Generated_Source\PSoC4/ADC_SAR_Seq_1.c ****         volts = ((float32)adcCounts * ADC_SAR_Seq_1_10V_COUNTS) / (float32)ADC_SAR_Seq_1_countsPer1
 886              		.loc 1 874 0
 887 0008 8000     		lsl	r0, r0, #2
 888              	.LVL57:
 872:.\Generated_Source\PSoC4/ADC_SAR_Seq_1.c **** 
 889              		.loc 1 872 0
 890 000a C91A     		sub	r1, r1, r3
 891              	.LVL58:
 892              		.loc 1 874 0
 893 000c 094B     		ldr	r3, .L82+4
 875:.\Generated_Source\PSoC4/ADC_SAR_Seq_1.c **** 
 876:.\Generated_Source\PSoC4/ADC_SAR_Seq_1.c ****         return( volts );
 877:.\Generated_Source\PSoC4/ADC_SAR_Seq_1.c ****     }
 894              		.loc 1 877 0
 895              		@ sp needed
 874:.\Generated_Source\PSoC4/ADC_SAR_Seq_1.c **** 
 896              		.loc 1 874 0
 897 000e C558     		ldr	r5, [r0, r3]
ARM GAS  C:\temp\ccUyuQab.s 			page 33


 898              	.LVL59:
 899 0010 08B2     		sxth	r0, r1
 900 0012 FFF7FEFF 		bl	__aeabi_i2f
 901              	.LVL60:
 902 0016 0849     		ldr	r1, .L82+8
 903 0018 FFF7FEFF 		bl	__aeabi_fmul
 904              	.LVL61:
 905 001c 041C     		add	r4, r0, #0
 906 001e 281C     		mov	r0, r5
 907 0020 FFF7FEFF 		bl	__aeabi_i2f
 908              	.LVL62:
 909 0024 011C     		add	r1, r0, #0
 910 0026 201C     		add	r0, r4, #0
 911 0028 FFF7FEFF 		bl	__aeabi_fdiv
 912              	.LVL63:
 913              		.loc 1 877 0
 914 002c 38BD     		pop	{r3, r4, r5, pc}
 915              	.L83:
 916 002e C046     		.align	2
 917              	.L82:
 918 0030 00000000 		.word	ADC_SAR_Seq_1_offset
 919 0034 00000000 		.word	ADC_SAR_Seq_1_countsPer10Volt
 920 0038 00002041 		.word	1092616192
 921              		.cfi_endproc
 922              	.LFE17:
 923              		.size	ADC_SAR_Seq_1_CountsTo_Volts, .-ADC_SAR_Seq_1_CountsTo_Volts
 924              		.comm	ADC_SAR_Seq_1_countsPer10Volt,20,4
 925              		.comm	ADC_SAR_Seq_1_offset,10,2
 926              		.global	ADC_SAR_Seq_1_initVar
 927              		.section	.rodata
 928              		.align	2
 929              		.set	.LANCHOR0,. + 0
 930              		.type	ADC_SAR_Seq_1_channelsConfig, %object
 931              		.size	ADC_SAR_Seq_1_channelsConfig, 20
 932              	ADC_SAR_Seq_1_channelsConfig:
 933 0000 00000000 		.space	20
 933      00000000 
 933      00000000 
 933      00000000 
 933      00000000 
 934              		.type	ADC_SAR_Seq_1_InputsPlacement.4740, %object
 935              		.size	ADC_SAR_Seq_1_InputsPlacement.4740, 5
 936              	ADC_SAR_Seq_1_InputsPlacement.4740:
 937 0014 00       		.byte	0
 938 0015 07       		.byte	7
 939 0016 04       		.byte	4
 940 0017 06       		.byte	6
 941 0018 05       		.byte	5
 942 0019 000000   		.bss
 943              		.set	.LANCHOR1,. + 0
 944              		.type	ADC_SAR_Seq_1_initVar, %object
 945              		.size	ADC_SAR_Seq_1_initVar, 1
 946              	ADC_SAR_Seq_1_initVar:
 947 0000 00       		.space	1
 948              		.text
 949              	.Letext0:
 950              		.file 2 ".\\Generated_Source\\PSoC4\\cytypes.h"
ARM GAS  C:\temp\ccUyuQab.s 			page 34


 951              		.file 3 ".\\Generated_Source\\PSoC4\\CyLib.h"