ARM GAS  C:\temp\ccuGPhU9.s 			page 1


   1              		.cpu cortex-m0
   2              		.fpu softvfp
   3              		.eabi_attribute 20, 1
   4              		.eabi_attribute 21, 1
   5              		.eabi_attribute 23, 3
   6              		.eabi_attribute 24, 1
   7              		.eabi_attribute 25, 1
   8              		.eabi_attribute 26, 1
   9              		.eabi_attribute 30, 4
  10              		.eabi_attribute 34, 0
  11              		.eabi_attribute 18, 4
  12              		.code	16
  13              		.file	"Plantcontrol.c"
  14              		.text
  15              	.Ltext0:
  16              		.cfi_sections	.debug_frame
  17              		.section	.text.updateSensors,"ax",%progbits
  18              		.align	1
  19              		.global	updateSensors
  20              		.code	16
  21              		.thumb_func
  22              		.type	updateSensors, %function
  23              	updateSensors:
  24              	.LFB33:
  25              		.file 1 ".\\Plantcontrol.c"
   1:.\Plantcontrol.c **** /* ========================================
   2:.\Plantcontrol.c ****  *
   3:.\Plantcontrol.c ****  * Copyright YOUR COMPANY, THE YEAR
   4:.\Plantcontrol.c ****  * All Rights Reserved
   5:.\Plantcontrol.c ****  * UNPUBLISHED, LICENSED SOFTWARE.
   6:.\Plantcontrol.c ****  *
   7:.\Plantcontrol.c ****  * CONFIDENTIAL AND PROPRIETARY INFORMATION
   8:.\Plantcontrol.c ****  * WHICH IS THE PROPERTY OF your company.
   9:.\Plantcontrol.c ****  *
  10:.\Plantcontrol.c ****  * ========================================
  11:.\Plantcontrol.c **** */
  12:.\Plantcontrol.c **** #include <Plantcontrol.h>
  13:.\Plantcontrol.c **** 
  14:.\Plantcontrol.c **** uint8 count = 6;
  15:.\Plantcontrol.c **** 
  16:.\Plantcontrol.c **** void updateSensors()
  17:.\Plantcontrol.c **** {
  26              		.loc 1 17 0
  27              		.cfi_startproc
  28 0000 10B5     		push	{r4, lr}
  29              		.cfi_def_cfa_offset 8
  30              		.cfi_offset 4, -8
  31              		.cfi_offset 14, -4
  18:.\Plantcontrol.c **** //    struct updateParameters sensor;
  19:.\Plantcontrol.c **** //    struct updateParameters *updatePtr;
  20:.\Plantcontrol.c **** //    updatePtr =&sensor;
  21:.\Plantcontrol.c **** //    
  22:.\Plantcontrol.c ****     // get funktioner skal hentes en gang før disse data læses (nødvendigt da dette data kan væ
  23:.\Plantcontrol.c ****     get_batterylevel();
  32              		.loc 1 23 0
  33 0002 FFF7FEFF 		bl	get_batterylevel
  34              	.LVL0:
ARM GAS  C:\temp\ccuGPhU9.s 			page 2


  24:.\Plantcontrol.c ****     get_lightlevel();
  35              		.loc 1 24 0
  36 0006 FFF7FEFF 		bl	get_lightlevel
  37              	.LVL1:
  25:.\Plantcontrol.c ****     get_moisture();
  38              		.loc 1 25 0
  39 000a FFF7FEFF 		bl	get_moisture
  40              	.LVL2:
  26:.\Plantcontrol.c ****     get_temp();
  41              		.loc 1 26 0
  42 000e FFF7FEFF 		bl	get_temp
  43              	.LVL3:
  27:.\Plantcontrol.c ****     get_waterlevel();
  44              		.loc 1 27 0
  45 0012 FFF7FEFF 		bl	get_waterlevel
  46              	.LVL4:
  28:.\Plantcontrol.c ****     // Data hentes
  29:.\Plantcontrol.c **** 
  30:.\Plantcontrol.c ****     sensors_.currentMoisture=get_moisture();
  47              		.loc 1 30 0
  48 0016 FFF7FEFF 		bl	get_moisture
  49              	.LVL5:
  50 001a 094C     		ldr	r4, .L2
  31:.\Plantcontrol.c ****     sensors_.currentLight=get_lightlevel();
  32:.\Plantcontrol.c ****     sensors_.currentBattery=get_batterylevel();
  33:.\Plantcontrol.c ****     sensors_.currentLight=get_lightlevel();
  34:.\Plantcontrol.c ****     sensors_.currentTemperature=get_temp();
  35:.\Plantcontrol.c ****     sensors_.currentWater=get_waterlevel();
  36:.\Plantcontrol.c **** }
  51              		.loc 1 36 0
  52              		@ sp needed
  30:.\Plantcontrol.c ****     sensors_.currentLight=get_lightlevel();
  53              		.loc 1 30 0
  54 001c 2080     		strh	r0, [r4]
  31:.\Plantcontrol.c ****     sensors_.currentLight=get_lightlevel();
  55              		.loc 1 31 0
  56 001e FFF7FEFF 		bl	get_lightlevel
  57              	.LVL6:
  58 0022 E080     		strh	r0, [r4, #6]
  32:.\Plantcontrol.c ****     sensors_.currentLight=get_lightlevel();
  59              		.loc 1 32 0
  60 0024 FFF7FEFF 		bl	get_batterylevel
  61              	.LVL7:
  62 0028 6080     		strh	r0, [r4, #2]
  33:.\Plantcontrol.c ****     sensors_.currentTemperature=get_temp();
  63              		.loc 1 33 0
  64 002a FFF7FEFF 		bl	get_lightlevel
  65              	.LVL8:
  66 002e E080     		strh	r0, [r4, #6]
  34:.\Plantcontrol.c ****     sensors_.currentWater=get_waterlevel();
  67              		.loc 1 34 0
  68 0030 FFF7FEFF 		bl	get_temp
  69              	.LVL9:
  70 0034 2081     		strh	r0, [r4, #8]
  35:.\Plantcontrol.c **** }
  71              		.loc 1 35 0
  72 0036 FFF7FEFF 		bl	get_waterlevel
ARM GAS  C:\temp\ccuGPhU9.s 			page 3


  73              	.LVL10:
  74 003a A080     		strh	r0, [r4, #4]
  75              		.loc 1 36 0
  76 003c 10BD     		pop	{r4, pc}
  77              	.L3:
  78 003e C046     		.align	2
  79              	.L2:
  80 0040 00000000 		.word	sensors_
  81              		.cfi_endproc
  82              	.LFE33:
  83              		.size	updateSensors, .-updateSensors
  84              		.section	.text.run,"ax",%progbits
  85              		.align	1
  86              		.global	run
  87              		.code	16
  88              		.thumb_func
  89              		.type	run, %function
  90              	run:
  91              	.LFB34:
  37:.\Plantcontrol.c **** 
  38:.\Plantcontrol.c **** void run()
  39:.\Plantcontrol.c **** {
  92              		.loc 1 39 0
  93              		.cfi_startproc
  94 0000 38B5     		push	{r3, r4, r5, lr}
  95              		.cfi_def_cfa_offset 16
  96              		.cfi_offset 3, -16
  97              		.cfi_offset 4, -12
  98              		.cfi_offset 5, -8
  99              		.cfi_offset 14, -4
  40:.\Plantcontrol.c ****     updateSensors();
 100              		.loc 1 40 0
 101 0002 FFF7FEFF 		bl	updateSensors
 102              	.LVL11:
  41:.\Plantcontrol.c ****     CyDelay(50);
 103              		.loc 1 41 0
 104 0006 3220     		mov	r0, #50
 105 0008 FFF7FEFF 		bl	CyDelay
 106              	.LVL12:
  42:.\Plantcontrol.c ****     
  43:.\Plantcontrol.c ****     if(count == 6)
 107              		.loc 1 43 0
 108 000c 114C     		ldr	r4, .L7
 109 000e 2378     		ldrb	r3, [r4]
 110 0010 062B     		cmp	r3, #6
 111 0012 0DD1     		bne	.L5
  44:.\Plantcontrol.c ****     {      
  45:.\Plantcontrol.c ****         sendSensorData(sensors_);
 112              		.loc 1 45 0
 113 0014 104B     		ldr	r3, .L7+4
 114 0016 5888     		ldrh	r0, [r3, #2]
 115 0018 1A88     		ldrh	r2, [r3]
 116 001a D988     		ldrh	r1, [r3, #6]
 117 001c 0004     		lsl	r0, r0, #16
 118 001e 1043     		orr	r0, r2
 119 0020 9A88     		ldrh	r2, [r3, #4]
 120 0022 0904     		lsl	r1, r1, #16
ARM GAS  C:\temp\ccuGPhU9.s 			page 4


 121 0024 1143     		orr	r1, r2
 122 0026 1A89     		ldrh	r2, [r3, #8]
 123 0028 FFF7FEFF 		bl	sendSensorData
 124              	.LVL13:
  46:.\Plantcontrol.c ****         count = 0;
 125              		.loc 1 46 0
 126 002c 0023     		mov	r3, #0
 127 002e 2370     		strb	r3, [r4]
 128              	.L5:
  47:.\Plantcontrol.c ****     }
  48:.\Plantcontrol.c ****     
  49:.\Plantcontrol.c ****     //Rotere
  50:.\Plantcontrol.c ****     rotate(wantedRotate);
 129              		.loc 1 50 0
 130 0030 0020     		mov	r0, #0
 131 0032 0A4D     		ldr	r5, .L7+8
  51:.\Plantcontrol.c ****     wantedRotate = 0;
  52:.\Plantcontrol.c ****     start();
  53:.\Plantcontrol.c ****     stop();
  54:.\Plantcontrol.c ****     //Pumpe
  55:.\Plantcontrol.c ****     if(wantedMoisture >= sensors_.currentMoisture)  //hvis den værdi devkit sender er større end 
  56:.\Plantcontrol.c ****     {
  57:.\Plantcontrol.c **** //       start();
  58:.\Plantcontrol.c **** //        CyDelay(1000);
  59:.\Plantcontrol.c **** //       stop();
  60:.\Plantcontrol.c ****     }
  61:.\Plantcontrol.c ****     
  62:.\Plantcontrol.c ****     count++;
  63:.\Plantcontrol.c ****     CyDelay(60000);
  64:.\Plantcontrol.c **** }
 132              		.loc 1 64 0
 133              		@ sp needed
  50:.\Plantcontrol.c ****     wantedRotate = 0;
 134              		.loc 1 50 0
 135 0034 2856     		ldrsb	r0, [r5, r0]
 136 0036 FFF7FEFF 		bl	rotate
 137              	.LVL14:
  51:.\Plantcontrol.c ****     wantedRotate = 0;
 138              		.loc 1 51 0
 139 003a 0023     		mov	r3, #0
 140 003c 2B70     		strb	r3, [r5]
  52:.\Plantcontrol.c ****     stop();
 141              		.loc 1 52 0
 142 003e FFF7FEFF 		bl	start
 143              	.LVL15:
  53:.\Plantcontrol.c ****     //Pumpe
 144              		.loc 1 53 0
 145 0042 FFF7FEFF 		bl	stop
 146              	.LVL16:
  62:.\Plantcontrol.c ****     CyDelay(60000);
 147              		.loc 1 62 0
 148 0046 2378     		ldrb	r3, [r4]
  63:.\Plantcontrol.c **** }
 149              		.loc 1 63 0
 150 0048 0548     		ldr	r0, .L7+12
  62:.\Plantcontrol.c ****     CyDelay(60000);
 151              		.loc 1 62 0
ARM GAS  C:\temp\ccuGPhU9.s 			page 5


 152 004a 0133     		add	r3, r3, #1
 153 004c 2370     		strb	r3, [r4]
  63:.\Plantcontrol.c **** }
 154              		.loc 1 63 0
 155 004e FFF7FEFF 		bl	CyDelay
 156              	.LVL17:
 157              		.loc 1 64 0
 158 0052 38BD     		pop	{r3, r4, r5, pc}
 159              	.L8:
 160              		.align	2
 161              	.L7:
 162 0054 00000000 		.word	.LANCHOR0
 163 0058 00000000 		.word	sensors_
 164 005c 00000000 		.word	wantedRotate
 165 0060 60EA0000 		.word	60000
 166              		.cfi_endproc
 167              	.LFE34:
 168              		.size	run, .-run
 169              		.global	count
 170              		.comm	sensors_,10,2
 171              		.comm	wantedRotate,1,1
 172              		.comm	water,1,1
 173              		.comm	battery,1,1
 174              		.comm	light,1,1
 175              		.comm	maxTemperature,1,1
 176              		.comm	wantedMoisture,1,1
 177              		.comm	ID,1,1
 178              		.comm	indexnummer1,2,2
 179              		.comm	lightlevel,16,2
 180              		.comm	batterylevel,16,2
 181              		.comm	temperature,16,2
 182              		.comm	waterlevel,100,2
 183              		.comm	moisture,100,2
 184              		.data
 185              		.set	.LANCHOR0,. + 0
 186              		.type	count, %object
 187              		.size	count, 1
 188              	count:
 189 0000 06       		.byte	6
 190              		.text
 191              	.Letext0:
 192              		.file 2 "Generated_Source\\PSoC4/cytypes.h"
 193              		.file 3 "./Plantcontrol.h"
 194              		.file 4 "./sensors.h"
 195              		.file 5 "./motor.h"
 196              		.file 6 "Generated_Source\\PSoC4/CyLib.h"
 197              		.file 7 "./wifi.h"
 198              		.file 8 "./pump.h"