ARM GAS  C:\temp\ccZXt7Ts.s 			page 1


   1              		.cpu cortex-m0
   2              		.fpu softvfp
   3              		.eabi_attribute 20, 1
   4              		.eabi_attribute 21, 1
   5              		.eabi_attribute 23, 3
   6              		.eabi_attribute 24, 1
   7              		.eabi_attribute 25, 1
   8              		.eabi_attribute 26, 1
   9              		.eabi_attribute 30, 4
  10              		.eabi_attribute 34, 0
  11              		.eabi_attribute 18, 4
  12              		.code	16
  13              		.file	"sensors.c"
  14              		.text
  15              	.Ltext0:
  16              		.cfi_sections	.debug_frame
  17              		.section	.text.isr_EOC_vec,"ax",%progbits
  18              		.align	1
  19              		.global	isr_EOC_vec
  20              		.code	16
  21              		.thumb_func
  22              		.type	isr_EOC_vec, %function
  23              	isr_EOC_vec:
  24              	.LFB33:
  25              		.file 1 ".\\sensors.c"
   1:.\sensors.c   **** /* ========================================
   2:.\sensors.c   ****  *
   3:.\sensors.c   ****  * Copyright YOUR COMPANY, THE YEAR
   4:.\sensors.c   ****  * All Rights Reserved
   5:.\sensors.c   ****  * UNPUBLISHED, LICENSED SOFTWARE.
   6:.\sensors.c   ****  *
   7:.\sensors.c   ****  * CONFIDENTIAL AND PROPRIETARY INFORMATION
   8:.\sensors.c   ****  * WHICH IS THE PROPERTY OF your company.
   9:.\sensors.c   ****  *
  10:.\sensors.c   ****  * ========================================
  11:.\sensors.c   **** */
  12:.\sensors.c   **** #include <sensors.h>
  13:.\sensors.c   **** 
  14:.\sensors.c   **** uint8 moisture_ptr = 0;
  15:.\sensors.c   **** uint8 waterlevel_ptr=0;
  16:.\sensors.c   **** uint8 temperature_ptr=0;
  17:.\sensors.c   **** uint8 batterylevel_ptr=0;
  18:.\sensors.c   **** uint8 lightlevel_ptr=0;
  19:.\sensors.c   **** 
  20:.\sensors.c   **** CY_ISR(isr_EOC_vec)
  21:.\sensors.c   **** {
  26              		.loc 1 21 0
  27              		.cfi_startproc
  28 0000 38B5     		push	{r3, r4, r5, lr}
  29              		.cfi_def_cfa_offset 16
  30              		.cfi_offset 3, -16
  31              		.cfi_offset 4, -12
  32              		.cfi_offset 5, -8
  33              		.cfi_offset 14, -4
  22:.\sensors.c   ****     if(moisture_ptr < 50u)
  34              		.loc 1 22 0
  35 0002 254C     		ldr	r4, .L8
ARM GAS  C:\temp\ccZXt7Ts.s 			page 2


  36 0004 2578     		ldrb	r5, [r4]
  37 0006 312D     		cmp	r5, #49
  38 0008 08D8     		bhi	.L2
  23:.\sensors.c   ****     {
  24:.\sensors.c   ****         moisture[moisture_ptr]=ADC_SAR_Seq_1_GetResult16(0);
  39              		.loc 1 24 0
  40 000a 0020     		mov	r0, #0
  41 000c FFF7FEFF 		bl	ADC_SAR_Seq_1_GetResult16
  42              	.LVL0:
  43 0010 224B     		ldr	r3, .L8+4
  44 0012 6D00     		lsl	r5, r5, #1
  45 0014 E852     		strh	r0, [r5, r3]
  25:.\sensors.c   ****         moisture_ptr++; 
  46              		.loc 1 25 0
  47 0016 2378     		ldrb	r3, [r4]
  48 0018 0133     		add	r3, r3, #1
  49 001a 2370     		strb	r3, [r4]
  50              	.L2:
  26:.\sensors.c   ****     }
  27:.\sensors.c   ****     if(waterlevel_ptr<50u)
  51              		.loc 1 27 0
  52 001c 6578     		ldrb	r5, [r4, #1]
  53 001e 312D     		cmp	r5, #49
  54 0020 08D8     		bhi	.L3
  28:.\sensors.c   ****     {
  29:.\sensors.c   ****         waterlevel[waterlevel_ptr]=ADC_SAR_Seq_1_GetResult16(3);
  55              		.loc 1 29 0
  56 0022 0320     		mov	r0, #3
  57 0024 FFF7FEFF 		bl	ADC_SAR_Seq_1_GetResult16
  58              	.LVL1:
  59 0028 1D4B     		ldr	r3, .L8+8
  60 002a 6D00     		lsl	r5, r5, #1
  61 002c E852     		strh	r0, [r5, r3]
  30:.\sensors.c   ****         waterlevel_ptr++;
  62              		.loc 1 30 0
  63 002e 6378     		ldrb	r3, [r4, #1]
  64 0030 0133     		add	r3, r3, #1
  65 0032 6370     		strb	r3, [r4, #1]
  66              	.L3:
  31:.\sensors.c   ****     }
  32:.\sensors.c   ****    if(temperature_ptr < 8u )
  67              		.loc 1 32 0
  68 0034 A578     		ldrb	r5, [r4, #2]
  69 0036 072D     		cmp	r5, #7
  70 0038 0CD8     		bhi	.L4
  33:.\sensors.c   ****     {
  34:.\sensors.c   ****         temperature[temperature_ptr]=ADC_SAR_Seq_1_CountsTo_mVolts(2u,ADC_SAR_Seq_1_GetResult16(2))
  71              		.loc 1 34 0
  72 003a 0220     		mov	r0, #2
  73 003c FFF7FEFF 		bl	ADC_SAR_Seq_1_GetResult16
  74              	.LVL2:
  75 0040 011C     		mov	r1, r0
  76 0042 0220     		mov	r0, #2
  77 0044 FFF7FEFF 		bl	ADC_SAR_Seq_1_CountsTo_mVolts
  78              	.LVL3:
  79 0048 164B     		ldr	r3, .L8+12
  80 004a 6D00     		lsl	r5, r5, #1
ARM GAS  C:\temp\ccZXt7Ts.s 			page 3


  81 004c E852     		strh	r0, [r5, r3]
  35:.\sensors.c   ****         temperature_ptr++;  
  82              		.loc 1 35 0
  83 004e A378     		ldrb	r3, [r4, #2]
  84 0050 0133     		add	r3, r3, #1
  85 0052 A370     		strb	r3, [r4, #2]
  86              	.L4:
  36:.\sensors.c   ****     }
  37:.\sensors.c   ****     if(batterylevel_ptr< 8u)
  87              		.loc 1 37 0
  88 0054 E578     		ldrb	r5, [r4, #3]
  89 0056 072D     		cmp	r5, #7
  90 0058 0CD8     		bhi	.L5
  38:.\sensors.c   ****     {
  39:.\sensors.c   ****         batterylevel[batterylevel_ptr]=ADC_SAR_Seq_1_CountsTo_mVolts(2u,ADC_SAR_Seq_1_GetResult16(1
  91              		.loc 1 39 0
  92 005a 0120     		mov	r0, #1
  93 005c FFF7FEFF 		bl	ADC_SAR_Seq_1_GetResult16
  94              	.LVL4:
  95 0060 011C     		mov	r1, r0
  96 0062 0220     		mov	r0, #2
  97 0064 FFF7FEFF 		bl	ADC_SAR_Seq_1_CountsTo_mVolts
  98              	.LVL5:
  99 0068 0F4B     		ldr	r3, .L8+16
 100 006a 6D00     		lsl	r5, r5, #1
 101 006c E852     		strh	r0, [r5, r3]
  40:.\sensors.c   ****         batterylevel_ptr++;
 102              		.loc 1 40 0
 103 006e E378     		ldrb	r3, [r4, #3]
 104 0070 0133     		add	r3, r3, #1
 105 0072 E370     		strb	r3, [r4, #3]
 106              	.L5:
  41:.\sensors.c   ****     }
  42:.\sensors.c   ****     if(lightlevel_ptr< 8u)
 107              		.loc 1 42 0
 108 0074 2579     		ldrb	r5, [r4, #4]
 109 0076 072D     		cmp	r5, #7
 110 0078 0CD8     		bhi	.L1
  43:.\sensors.c   ****     {
  44:.\sensors.c   ****         lightlevel[lightlevel_ptr]=ADC_SAR_Seq_1_CountsTo_mVolts(2u,ADC_SAR_Seq_1_GetResult16(4));
 111              		.loc 1 44 0
 112 007a 0420     		mov	r0, #4
 113 007c FFF7FEFF 		bl	ADC_SAR_Seq_1_GetResult16
 114              	.LVL6:
 115 0080 011C     		mov	r1, r0
 116 0082 0220     		mov	r0, #2
 117 0084 FFF7FEFF 		bl	ADC_SAR_Seq_1_CountsTo_mVolts
 118              	.LVL7:
 119 0088 084B     		ldr	r3, .L8+20
 120 008a 6D00     		lsl	r5, r5, #1
 121 008c E852     		strh	r0, [r5, r3]
  45:.\sensors.c   ****         lightlevel_ptr++;
 122              		.loc 1 45 0
 123 008e 2379     		ldrb	r3, [r4, #4]
 124 0090 0133     		add	r3, r3, #1
 125 0092 2371     		strb	r3, [r4, #4]
 126              	.L1:
ARM GAS  C:\temp\ccZXt7Ts.s 			page 4


  46:.\sensors.c   ****     }
  47:.\sensors.c   ****     
  48:.\sensors.c   **** }
 127              		.loc 1 48 0
 128              		@ sp needed
 129 0094 38BD     		pop	{r3, r4, r5, pc}
 130              	.L9:
 131 0096 C046     		.align	2
 132              	.L8:
 133 0098 00000000 		.word	.LANCHOR0
 134 009c 00000000 		.word	moisture
 135 00a0 00000000 		.word	waterlevel
 136 00a4 00000000 		.word	temperature
 137 00a8 00000000 		.word	batterylevel
 138 00ac 00000000 		.word	lightlevel
 139              		.cfi_endproc
 140              	.LFE33:
 141              		.size	isr_EOC_vec, .-isr_EOC_vec
 142              		.global	__aeabi_idiv
 143              		.global	__aeabi_i2d
 144              		.global	__aeabi_ddiv
 145              		.global	__aeabi_dmul
 146              		.global	__aeabi_dadd
 147              		.global	__aeabi_dcmplt
 148              		.global	__aeabi_dcmpgt
 149              		.global	__aeabi_d2iz
 150              		.section	.text.get_moisture,"ax",%progbits
 151              		.align	1
 152              		.global	get_moisture
 153              		.code	16
 154              		.thumb_func
 155              		.type	get_moisture, %function
 156              	get_moisture:
 157              	.LFB34:
  49:.\sensors.c   **** 
  50:.\sensors.c   **** int16 procent_moisture = 0;
  51:.\sensors.c   **** int16 get_moisture(void)
  52:.\sensors.c   **** {
 158              		.loc 1 52 0
 159              		.cfi_startproc
 160 0000 F8B5     		push	{r3, r4, r5, r6, r7, lr}
 161              		.cfi_def_cfa_offset 24
 162              		.cfi_offset 3, -24
 163              		.cfi_offset 4, -20
 164              		.cfi_offset 5, -16
 165              		.cfi_offset 6, -12
 166              		.cfi_offset 7, -8
 167              		.cfi_offset 14, -4
  53:.\sensors.c   ****      if(moisture_ptr == 50)
 168              		.loc 1 53 0
 169 0002 314C     		ldr	r4, .L23
 170 0004 2378     		ldrb	r3, [r4]
 171 0006 322B     		cmp	r3, #50
 172 0008 5BD1     		bne	.L11
 173              	.LBB2:
  54:.\sensors.c   ****         {
  55:.\sensors.c   ****             int16 min=moisture[0];
ARM GAS  C:\temp\ccZXt7Ts.s 			page 5


 174              		.loc 1 55 0
 175 000a 304D     		ldr	r5, .L23+4
  56:.\sensors.c   ****             int16 max=moisture[0];
  57:.\sensors.c   ****             
  58:.\sensors.c   ****             int i;
  59:.\sensors.c   ****             for(i = 1; i < 50; i++)
 176              		.loc 1 59 0
 177 000c 0121     		mov	r1, #1
  55:.\sensors.c   ****             int16 max=moisture[0];
 178              		.loc 1 55 0
 179 000e 2888     		ldrh	r0, [r5]
 180              	.LVL8:
  56:.\sensors.c   ****             int16 max=moisture[0];
 181              		.loc 1 56 0
 182 0010 031C     		mov	r3, r0
 183              	.LVL9:
 184              	.L14:
 185 0012 4A00     		lsl	r2, r1, #1
  60:.\sensors.c   ****             {
  61:.\sensors.c   ****                 if(min > moisture[i])
 186              		.loc 1 61 0
 187 0014 AA5A     		ldrh	r2, [r5, r2]
 188 0016 06B2     		sxth	r6, r0
 189 0018 17B2     		sxth	r7, r2
 190 001a BE42     		cmp	r6, r7
 191 001c 05DC     		bgt	.L19
 192 001e 1EB2     		sxth	r6, r3
 193 0020 B742     		cmp	r7, r6
 194 0022 00DA     		bge	.L13
 195 0024 1A1C     		add	r2, r3, #0
 196              	.L13:
 197 0026 93B2     		uxth	r3, r2
 198              	.LVL10:
 199 0028 00E0     		b	.L12
 200              	.LVL11:
 201              	.L19:
 202 002a 101C     		mov	r0, r2
 203              	.LVL12:
 204              	.L12:
  59:.\sensors.c   ****             {
 205              		.loc 1 59 0 discriminator 2
 206 002c 0131     		add	r1, r1, #1
 207              	.LVL13:
 208 002e 3229     		cmp	r1, #50
 209 0030 EFD1     		bne	.L14
  62:.\sensors.c   ****                 {
  63:.\sensors.c   ****                     min = moisture[i];   
  64:.\sensors.c   ****                 }
  65:.\sensors.c   ****                 else if(max < moisture[i])
  66:.\sensors.c   ****                 {
  67:.\sensors.c   ****                     max = moisture[i];   
  68:.\sensors.c   ****                 }
  69:.\sensors.c   ****             }
  70:.\sensors.c   ****             
  71:.\sensors.c   ****             int16 pp = ((max - min)*806)/1000;
 210              		.loc 1 71 0
 211 0032 FA21     		mov	r1, #250
ARM GAS  C:\temp\ccZXt7Ts.s 			page 6


 212              	.LVL14:
 213 0034 00B2     		sxth	r0, r0
 214 0036 1BB2     		sxth	r3, r3
 215 0038 1B1A     		sub	r3, r3, r0
 216              	.LVL15:
 217 003a 2548     		ldr	r0, .L23+8
 218              	.LVL16:
 219 003c 8900     		lsl	r1, r1, #2
 220 003e 5843     		mul	r0, r3
 221 0040 FFF7FEFF 		bl	__aeabi_idiv
 222              	.LVL17:
  72:.\sensors.c   ****             
  73:.\sensors.c   ****             double procent_d;
  74:.\sensors.c   ****             
  75:.\sensors.c   ****             if(pp>= 1117)
 223              		.loc 1 75 0
 224 0044 234B     		ldr	r3, .L23+12
 225 0046 00B2     		sxth	r0, r0
 226 0048 9842     		cmp	r0, r3
 227 004a 0CDD     		ble	.L15
  76:.\sensors.c   ****             {
  77:.\sensors.c   ****                   procent_d = (-0.223834*((double)pp/1000)+0.583310)*100;
 228              		.loc 1 77 0
 229 004c FFF7FEFF 		bl	__aeabi_i2d
 230              	.LVL18:
 231 0050 0022     		mov	r2, #0
 232 0052 214B     		ldr	r3, .L23+16
 233 0054 FFF7FEFF 		bl	__aeabi_ddiv
 234              	.LVL19:
 235 0058 204A     		ldr	r2, .L23+20
 236 005a 214B     		ldr	r3, .L23+24
 237 005c FFF7FEFF 		bl	__aeabi_dmul
 238              	.LVL20:
 239 0060 204A     		ldr	r2, .L23+28
 240 0062 214B     		ldr	r3, .L23+32
 241 0064 0BE0     		b	.L22
 242              	.LVL21:
 243              	.L15:
  78:.\sensors.c   ****             }else
  79:.\sensors.c   ****             {
  80:.\sensors.c   ****                   procent_d = (-1.08366*((double)pp/1000)+1.54356)*100; 
 244              		.loc 1 80 0
 245 0066 FFF7FEFF 		bl	__aeabi_i2d
 246              	.LVL22:
 247 006a 0022     		mov	r2, #0
 248 006c 1A4B     		ldr	r3, .L23+16
 249 006e FFF7FEFF 		bl	__aeabi_ddiv
 250              	.LVL23:
 251 0072 1E4A     		ldr	r2, .L23+36
 252 0074 1E4B     		ldr	r3, .L23+40
 253 0076 FFF7FEFF 		bl	__aeabi_dmul
 254              	.LVL24:
 255 007a 1E4A     		ldr	r2, .L23+44
 256 007c 1E4B     		ldr	r3, .L23+48
 257              	.L22:
 258 007e FFF7FEFF 		bl	__aeabi_dadd
 259              	.LVL25:
ARM GAS  C:\temp\ccZXt7Ts.s 			page 7


 260 0082 0022     		mov	r2, #0
 261 0084 1D4B     		ldr	r3, .L23+52
 262 0086 FFF7FEFF 		bl	__aeabi_dmul
 263              	.LVL26:
  81:.\sensors.c   ****             }
  82:.\sensors.c   ****             if(procent_d < 0)
 264              		.loc 1 82 0
 265 008a 0022     		mov	r2, #0
 266 008c 0023     		mov	r3, #0
  80:.\sensors.c   ****             }
 267              		.loc 1 80 0
 268 008e 061C     		mov	r6, r0
 269 0090 0F1C     		mov	r7, r1
 270              	.LVL27:
 271              		.loc 1 82 0
 272 0092 FFF7FEFF 		bl	__aeabi_dcmplt
 273              	.LVL28:
 274 0096 0028     		cmp	r0, #0
 275 0098 0AD1     		bne	.L20
  83:.\sensors.c   ****             {
  84:.\sensors.c   ****                 procent_d = 0;   
  85:.\sensors.c   ****             }
  86:.\sensors.c   ****             else if(procent_d > 100)
 276              		.loc 1 86 0
 277 009a 301C     		mov	r0, r6
 278 009c 391C     		mov	r1, r7
 279 009e 0022     		mov	r2, #0
 280 00a0 164B     		ldr	r3, .L23+52
 281 00a2 FFF7FEFF 		bl	__aeabi_dcmpgt
 282              	.LVL29:
 283 00a6 0028     		cmp	r0, #0
 284 00a8 04D0     		beq	.L17
  87:.\sensors.c   ****             {
  88:.\sensors.c   ****                 procent_d = 100;   
 285              		.loc 1 88 0
 286 00aa 0026     		mov	r6, #0
 287              	.LVL30:
 288 00ac 134F     		ldr	r7, .L23+52
 289 00ae 01E0     		b	.L17
 290              	.LVL31:
 291              	.L20:
  84:.\sensors.c   ****             }
 292              		.loc 1 84 0
 293 00b0 0026     		mov	r6, #0
 294              	.LVL32:
 295 00b2 0027     		mov	r7, #0
 296              	.L17:
 297              	.LVL33:
  89:.\sensors.c   ****             }
  90:.\sensors.c   ****             
  91:.\sensors.c   ****             int16 procent = (int16)procent_d;
  92:.\sensors.c   ****             //char bufchar[50];
  93:.\sensors.c   ****             
  94:.\sensors.c   ****             /*sprintf(bufchar, "max = %d\n\rmin = %d\n\rpp = %d mV\n\rprocent = %d %%\n\n\r", max, 
  95:.\sensors.c   ****             
  96:.\sensors.c   ****             UART_1_UartPutString(bufchar);
  97:.\sensors.c   ****             CyDelay(1000);*/
ARM GAS  C:\temp\ccZXt7Ts.s 			page 8


  98:.\sensors.c   ****             moisture_ptr=0;
 298              		.loc 1 98 0
 299 00b4 0023     		mov	r3, #0
  91:.\sensors.c   ****             //char bufchar[50];
 300              		.loc 1 91 0
 301 00b6 301C     		mov	r0, r6
 302              		.loc 1 98 0
 303 00b8 2370     		strb	r3, [r4]
  91:.\sensors.c   ****             //char bufchar[50];
 304              		.loc 1 91 0
 305 00ba 391C     		mov	r1, r7
 306 00bc FFF7FEFF 		bl	__aeabi_d2iz
 307              	.LVL34:
 308 00c0 E080     		strh	r0, [r4, #6]
 309              	.LVL35:
 310              	.L11:
 311              	.LBE2:
  99:.\sensors.c   ****             
 100:.\sensors.c   ****             procent_moisture = procent;
 101:.\sensors.c   ****                         
 102:.\sensors.c   ****         }
 103:.\sensors.c   ****         
 104:.\sensors.c   ****     return procent_moisture;
 312              		.loc 1 104 0
 313 00c2 0623     		mov	r3, #6
 314 00c4 E05E     		ldrsh	r0, [r4, r3]
 105:.\sensors.c   **** }
 315              		.loc 1 105 0
 316              		@ sp needed
 317 00c6 F8BD     		pop	{r3, r4, r5, r6, r7, pc}
 318              	.L24:
 319              		.align	2
 320              	.L23:
 321 00c8 00000000 		.word	.LANCHOR0
 322 00cc 00000000 		.word	moisture
 323 00d0 26030000 		.word	806
 324 00d4 5C040000 		.word	1116
 325 00d8 00408F40 		.word	1083129856
 326 00dc 7DCEDDAE 		.word	-1361195395
 327 00e0 97A6CCBF 		.word	-1077107049
 328 00e4 98C0ADBB 		.word	-1146240872
 329 00e8 79AAE23F 		.word	1071819385
 330 00ec D8BB3FDE 		.word	-566248488
 331 00f0 AB56F1BF 		.word	-1074702677
 332 00f4 C39E76F8 		.word	-126443837
 333 00f8 6BB2F83F 		.word	1073263211
 334 00fc 00005940 		.word	1079574528
 335              		.cfi_endproc
 336              	.LFE34:
 337              		.size	get_moisture, .-get_moisture
 338              		.section	.text.get_waterlevel,"ax",%progbits
 339              		.align	1
 340              		.global	get_waterlevel
 341              		.code	16
 342              		.thumb_func
 343              		.type	get_waterlevel, %function
 344              	get_waterlevel:
ARM GAS  C:\temp\ccZXt7Ts.s 			page 9


 345              	.LFB35:
 106:.\sensors.c   **** 
 107:.\sensors.c   **** int16 procent_waterlevel = 0;
 108:.\sensors.c   **** 
 109:.\sensors.c   **** int16 get_waterlevel(void)
 110:.\sensors.c   **** {
 346              		.loc 1 110 0
 347              		.cfi_startproc
 348 0000 F8B5     		push	{r3, r4, r5, r6, r7, lr}
 349              		.cfi_def_cfa_offset 24
 350              		.cfi_offset 3, -24
 351              		.cfi_offset 4, -20
 352              		.cfi_offset 5, -16
 353              		.cfi_offset 6, -12
 354              		.cfi_offset 7, -8
 355              		.cfi_offset 14, -4
 111:.\sensors.c   ****     if(waterlevel_ptr == 50)
 356              		.loc 1 111 0
 357 0002 314C     		ldr	r4, .L38
 358 0004 6378     		ldrb	r3, [r4, #1]
 359 0006 322B     		cmp	r3, #50
 360 0008 5BD1     		bne	.L26
 361              	.LBB3:
 112:.\sensors.c   ****         {
 113:.\sensors.c   ****             int16 min=waterlevel[0];
 362              		.loc 1 113 0
 363 000a 304D     		ldr	r5, .L38+4
 114:.\sensors.c   ****             int16 max=waterlevel[0];
 115:.\sensors.c   ****             
 116:.\sensors.c   ****             int i;
 117:.\sensors.c   ****             for(i = 1; i < 50; i++)
 364              		.loc 1 117 0
 365 000c 0121     		mov	r1, #1
 113:.\sensors.c   ****             int16 max=waterlevel[0];
 366              		.loc 1 113 0
 367 000e 2888     		ldrh	r0, [r5]
 368              	.LVL36:
 114:.\sensors.c   ****             int16 max=waterlevel[0];
 369              		.loc 1 114 0
 370 0010 031C     		mov	r3, r0
 371              	.LVL37:
 372              	.L29:
 373 0012 4A00     		lsl	r2, r1, #1
 118:.\sensors.c   ****             {
 119:.\sensors.c   ****                 if(min > waterlevel[i])
 374              		.loc 1 119 0
 375 0014 AA5A     		ldrh	r2, [r5, r2]
 376 0016 06B2     		sxth	r6, r0
 377 0018 17B2     		sxth	r7, r2
 378 001a BE42     		cmp	r6, r7
 379 001c 05DC     		bgt	.L34
 380 001e 1EB2     		sxth	r6, r3
 381 0020 B742     		cmp	r7, r6
 382 0022 00DA     		bge	.L28
 383 0024 1A1C     		add	r2, r3, #0
 384              	.L28:
 385 0026 93B2     		uxth	r3, r2
ARM GAS  C:\temp\ccZXt7Ts.s 			page 10


 386              	.LVL38:
 387 0028 00E0     		b	.L27
 388              	.LVL39:
 389              	.L34:
 390 002a 101C     		mov	r0, r2
 391              	.LVL40:
 392              	.L27:
 117:.\sensors.c   ****             {
 393              		.loc 1 117 0 discriminator 2
 394 002c 0131     		add	r1, r1, #1
 395              	.LVL41:
 396 002e 3229     		cmp	r1, #50
 397 0030 EFD1     		bne	.L29
 120:.\sensors.c   ****                 {
 121:.\sensors.c   ****                     min = waterlevel[i];   
 122:.\sensors.c   ****                 }
 123:.\sensors.c   ****                 else if(max < waterlevel[i])
 124:.\sensors.c   ****                 {
 125:.\sensors.c   ****                     max = waterlevel[i];   
 126:.\sensors.c   ****                 }
 127:.\sensors.c   ****             }
 128:.\sensors.c   ****             char bufchar[50];
 129:.\sensors.c   ****             
 130:.\sensors.c   ****             int16 pp = ((max - min)*806)/1000;
 398              		.loc 1 130 0
 399 0032 FA21     		mov	r1, #250
 400              	.LVL42:
 401 0034 00B2     		sxth	r0, r0
 402 0036 1BB2     		sxth	r3, r3
 403 0038 1B1A     		sub	r3, r3, r0
 404              	.LVL43:
 405 003a 2548     		ldr	r0, .L38+8
 406              	.LVL44:
 407 003c 8900     		lsl	r1, r1, #2
 408 003e 5843     		mul	r0, r3
 409 0040 FFF7FEFF 		bl	__aeabi_idiv
 410              	.LVL45:
 131:.\sensors.c   ****             
 132:.\sensors.c   ****             double procent_d;
 133:.\sensors.c   ****             
 134:.\sensors.c   ****             if(pp>= 1117)
 411              		.loc 1 134 0
 412 0044 234B     		ldr	r3, .L38+12
 413 0046 00B2     		sxth	r0, r0
 414 0048 9842     		cmp	r0, r3
 415 004a 0CDD     		ble	.L30
 135:.\sensors.c   ****             {
 136:.\sensors.c   ****                   procent_d = (-0.223834*((double)pp/1000)+0.583310)*100;
 416              		.loc 1 136 0
 417 004c FFF7FEFF 		bl	__aeabi_i2d
 418              	.LVL46:
 419 0050 0022     		mov	r2, #0
 420 0052 214B     		ldr	r3, .L38+16
 421 0054 FFF7FEFF 		bl	__aeabi_ddiv
 422              	.LVL47:
 423 0058 204A     		ldr	r2, .L38+20
 424 005a 214B     		ldr	r3, .L38+24
ARM GAS  C:\temp\ccZXt7Ts.s 			page 11


 425 005c FFF7FEFF 		bl	__aeabi_dmul
 426              	.LVL48:
 427 0060 204A     		ldr	r2, .L38+28
 428 0062 214B     		ldr	r3, .L38+32
 429 0064 0BE0     		b	.L37
 430              	.LVL49:
 431              	.L30:
 137:.\sensors.c   ****             }else
 138:.\sensors.c   ****             {
 139:.\sensors.c   ****                   procent_d = (-1.08366*((double)pp/1000)+1.54356)*100; 
 432              		.loc 1 139 0
 433 0066 FFF7FEFF 		bl	__aeabi_i2d
 434              	.LVL50:
 435 006a 0022     		mov	r2, #0
 436 006c 1A4B     		ldr	r3, .L38+16
 437 006e FFF7FEFF 		bl	__aeabi_ddiv
 438              	.LVL51:
 439 0072 1E4A     		ldr	r2, .L38+36
 440 0074 1E4B     		ldr	r3, .L38+40
 441 0076 FFF7FEFF 		bl	__aeabi_dmul
 442              	.LVL52:
 443 007a 1E4A     		ldr	r2, .L38+44
 444 007c 1E4B     		ldr	r3, .L38+48
 445              	.L37:
 446 007e FFF7FEFF 		bl	__aeabi_dadd
 447              	.LVL53:
 448 0082 0022     		mov	r2, #0
 449 0084 1D4B     		ldr	r3, .L38+52
 450 0086 FFF7FEFF 		bl	__aeabi_dmul
 451              	.LVL54:
 140:.\sensors.c   ****             }
 141:.\sensors.c   ****             if(procent_d < 0)
 452              		.loc 1 141 0
 453 008a 0022     		mov	r2, #0
 454 008c 0023     		mov	r3, #0
 139:.\sensors.c   ****             }
 455              		.loc 1 139 0
 456 008e 061C     		mov	r6, r0
 457 0090 0F1C     		mov	r7, r1
 458              	.LVL55:
 459              		.loc 1 141 0
 460 0092 FFF7FEFF 		bl	__aeabi_dcmplt
 461              	.LVL56:
 462 0096 0028     		cmp	r0, #0
 463 0098 0AD1     		bne	.L35
 142:.\sensors.c   ****             {
 143:.\sensors.c   ****                 procent_d = 0;   
 144:.\sensors.c   ****             }
 145:.\sensors.c   ****             else if(procent_d > 100)
 464              		.loc 1 145 0
 465 009a 301C     		mov	r0, r6
 466 009c 391C     		mov	r1, r7
 467 009e 0022     		mov	r2, #0
 468 00a0 164B     		ldr	r3, .L38+52
 469 00a2 FFF7FEFF 		bl	__aeabi_dcmpgt
 470              	.LVL57:
 471 00a6 0028     		cmp	r0, #0
ARM GAS  C:\temp\ccZXt7Ts.s 			page 12


 472 00a8 04D0     		beq	.L32
 146:.\sensors.c   ****             {
 147:.\sensors.c   ****                 procent_d = 100;   
 473              		.loc 1 147 0
 474 00aa 0026     		mov	r6, #0
 475              	.LVL58:
 476 00ac 134F     		ldr	r7, .L38+52
 477 00ae 01E0     		b	.L32
 478              	.LVL59:
 479              	.L35:
 143:.\sensors.c   ****             }
 480              		.loc 1 143 0
 481 00b0 0026     		mov	r6, #0
 482              	.LVL60:
 483 00b2 0027     		mov	r7, #0
 484              	.L32:
 485              	.LVL61:
 148:.\sensors.c   ****             }
 149:.\sensors.c   ****             
 150:.\sensors.c   ****             int16 procent = (int16)procent_d;
 151:.\sensors.c   ****             
 152:.\sensors.c   ****             /*sprintf(bufchar, "max = %d\n\rmin = %d\n\rpp = %d mV\n\rprocent = %d %%\n\n\r", max, 
 153:.\sensors.c   ****             
 154:.\sensors.c   ****             UART_1_UartPutString(bufchar);
 155:.\sensors.c   ****             CyDelay(1000);*/
 156:.\sensors.c   ****             waterlevel_ptr=0;
 486              		.loc 1 156 0
 487 00b4 0023     		mov	r3, #0
 150:.\sensors.c   ****             
 488              		.loc 1 150 0
 489 00b6 301C     		mov	r0, r6
 490              		.loc 1 156 0
 491 00b8 6370     		strb	r3, [r4, #1]
 150:.\sensors.c   ****             
 492              		.loc 1 150 0
 493 00ba 391C     		mov	r1, r7
 494 00bc FFF7FEFF 		bl	__aeabi_d2iz
 495              	.LVL62:
 496 00c0 2081     		strh	r0, [r4, #8]
 497              	.LVL63:
 498              	.L26:
 499              	.LBE3:
 157:.\sensors.c   ****             
 158:.\sensors.c   ****             procent_waterlevel = procent;
 159:.\sensors.c   ****                         
 160:.\sensors.c   ****         }
 161:.\sensors.c   ****         
 162:.\sensors.c   ****     return procent_waterlevel;
 500              		.loc 1 162 0
 501 00c2 0823     		mov	r3, #8
 502 00c4 E05E     		ldrsh	r0, [r4, r3]
 163:.\sensors.c   **** }
 503              		.loc 1 163 0
 504              		@ sp needed
 505 00c6 F8BD     		pop	{r3, r4, r5, r6, r7, pc}
 506              	.L39:
 507              		.align	2
ARM GAS  C:\temp\ccZXt7Ts.s 			page 13


 508              	.L38:
 509 00c8 00000000 		.word	.LANCHOR0
 510 00cc 00000000 		.word	waterlevel
 511 00d0 26030000 		.word	806
 512 00d4 5C040000 		.word	1116
 513 00d8 00408F40 		.word	1083129856
 514 00dc 7DCEDDAE 		.word	-1361195395
 515 00e0 97A6CCBF 		.word	-1077107049
 516 00e4 98C0ADBB 		.word	-1146240872
 517 00e8 79AAE23F 		.word	1071819385
 518 00ec D8BB3FDE 		.word	-566248488
 519 00f0 AB56F1BF 		.word	-1074702677
 520 00f4 C39E76F8 		.word	-126443837
 521 00f8 6BB2F83F 		.word	1073263211
 522 00fc 00005940 		.word	1079574528
 523              		.cfi_endproc
 524              	.LFE35:
 525              		.size	get_waterlevel, .-get_waterlevel
 526              		.section	.text.get_temp,"ax",%progbits
 527              		.align	1
 528              		.global	get_temp
 529              		.code	16
 530              		.thumb_func
 531              		.type	get_temp, %function
 532              	get_temp:
 533              	.LFB36:
 164:.\sensors.c   **** 
 165:.\sensors.c   **** int16 get_temp(void)
 166:.\sensors.c   **** {
 534              		.loc 1 166 0
 535              		.cfi_startproc
 536 0000 10B5     		push	{r4, lr}
 537              		.cfi_def_cfa_offset 8
 538              		.cfi_offset 4, -8
 539              		.cfi_offset 14, -4
 167:.\sensors.c   ****     if(temperature_ptr == 8u)
 540              		.loc 1 167 0
 541 0002 114C     		ldr	r4, .L45
 168:.\sensors.c   ****         {
 169:.\sensors.c   ****             
 170:.\sensors.c   ****             int16 temp_avg=0;
 171:.\sensors.c   ****             int i;
 172:.\sensors.c   ****             for(i = 0; i < 8; i++)
 173:.\sensors.c   ****             {
 174:.\sensors.c   ****                  temp_avg=temp_avg+temperature[i];
 175:.\sensors.c   ****             }
 176:.\sensors.c   ****             
 177:.\sensors.c   ****             temp_avg=(temp_avg>>3u);
 178:.\sensors.c   ****             
 179:.\sensors.c   ****             char temp_data[50];
 180:.\sensors.c   ****             
 181:.\sensors.c   ****             // omregning af temperatur. 
 182:.\sensors.c   ****             temp_avg=(temp_avg-1650)*0.014;
 183:.\sensors.c   ****             // 1.65V som svare til 0 grader trækkes fra og forstærkning gange på for at få temp
 184:.\sensors.c   ****         
 185:.\sensors.c   ****             /* //til test af sensorer
 186:.\sensors.c   ****             sprintf(temp_data, "temperature = %d \n\r",temp_avg);
ARM GAS  C:\temp\ccZXt7Ts.s 			page 14


 187:.\sensors.c   ****             UART_1_UartPutString(temp_data);
 188:.\sensors.c   ****             CyDelay(1000);
 189:.\sensors.c   ****             */
 190:.\sensors.c   ****             
 191:.\sensors.c   ****             temperature_ptr=0u;
 192:.\sensors.c   ****             
 193:.\sensors.c   ****             if(temp_avg < 0)
 194:.\sensors.c   ****                 temp_avg = 0;
 195:.\sensors.c   ****             
 196:.\sensors.c   ****             return temp_avg;
 197:.\sensors.c   ****             
 198:.\sensors.c   ****         }
 199:.\sensors.c   ****         return 0; 
 542              		.loc 1 199 0
 543 0004 0020     		mov	r0, #0
 167:.\sensors.c   ****     if(temperature_ptr == 8u)
 544              		.loc 1 167 0
 545 0006 A378     		ldrb	r3, [r4, #2]
 546 0008 082B     		cmp	r3, #8
 547 000a 1AD1     		bne	.L41
 548 000c 031C     		mov	r3, r0
 549              	.L42:
 550              	.LVL64:
 551              	.LBB4:
 174:.\sensors.c   ****             }
 552              		.loc 1 174 0 discriminator 3
 553 000e 0F4A     		ldr	r2, .L45+4
 554 0010 125A     		ldrh	r2, [r2, r0]
 555 0012 0230     		add	r0, r0, #2
 556 0014 D318     		add	r3, r2, r3
 557              	.LVL65:
 558 0016 9BB2     		uxth	r3, r3
 559              	.LVL66:
 172:.\sensors.c   ****             {
 560              		.loc 1 172 0 discriminator 3
 561 0018 1028     		cmp	r0, #16
 562 001a F8D1     		bne	.L42
 563              	.LVL67:
 182:.\sensors.c   ****             // 1.65V som svare til 0 grader trækkes fra og forstærkning gange på for at få temp
 564              		.loc 1 182 0
 565 001c 0C4A     		ldr	r2, .L45+8
 177:.\sensors.c   ****             
 566              		.loc 1 177 0
 567 001e 18B2     		sxth	r0, r3
 182:.\sensors.c   ****             // 1.65V som svare til 0 grader trækkes fra og forstærkning gange på for at få temp
 568              		.loc 1 182 0
 569 0020 C310     		asr	r3, r0, #3
 570              	.LVL68:
 571 0022 9818     		add	r0, r3, r2
 572              	.LVL69:
 573 0024 FFF7FEFF 		bl	__aeabi_i2d
 574              	.LVL70:
 575 0028 0A4A     		ldr	r2, .L45+12
 576 002a 0B4B     		ldr	r3, .L45+16
 577 002c FFF7FEFF 		bl	__aeabi_dmul
 578              	.LVL71:
 191:.\sensors.c   ****             
ARM GAS  C:\temp\ccZXt7Ts.s 			page 15


 579              		.loc 1 191 0
 580 0030 0023     		mov	r3, #0
 581 0032 A370     		strb	r3, [r4, #2]
 182:.\sensors.c   ****             // 1.65V som svare til 0 grader trækkes fra og forstærkning gange på for at få temp
 582              		.loc 1 182 0
 583 0034 FFF7FEFF 		bl	__aeabi_d2iz
 584              	.LVL72:
 585 0038 03B2     		sxth	r3, r0
 586 003a DB43     		mvn	r3, r3
 587 003c DB17     		asr	r3, r3, #31
 588 003e 1840     		and	r0, r3
 589 0040 80B2     		uxth	r0, r0
 590              	.L41:
 591 0042 00B2     		sxth	r0, r0
 592              	.LBE4:
 200:.\sensors.c   **** }
 593              		.loc 1 200 0 discriminator 1
 594              		@ sp needed
 595 0044 10BD     		pop	{r4, pc}
 596              	.L46:
 597 0046 C046     		.align	2
 598              	.L45:
 599 0048 00000000 		.word	.LANCHOR0
 600 004c 00000000 		.word	temperature
 601 0050 8EF9FFFF 		.word	-1650
 602 0054 79E92631 		.word	824633721
 603 0058 08AC8C3F 		.word	1066183688
 604              		.cfi_endproc
 605              	.LFE36:
 606              		.size	get_temp, .-get_temp
 607              		.section	.text.get_batterylevel,"ax",%progbits
 608              		.align	1
 609              		.global	get_batterylevel
 610              		.code	16
 611              		.thumb_func
 612              		.type	get_batterylevel, %function
 613              	get_batterylevel:
 614              	.LFB37:
 201:.\sensors.c   **** 
 202:.\sensors.c   **** int16   get_batterylevel(void)
 203:.\sensors.c   **** {
 615              		.loc 1 203 0
 616              		.cfi_startproc
 617 0000 10B5     		push	{r4, lr}
 618              		.cfi_def_cfa_offset 8
 619              		.cfi_offset 4, -8
 620              		.cfi_offset 14, -4
 204:.\sensors.c   ****      if(batterylevel_ptr == 8u)
 621              		.loc 1 204 0
 622 0002 204B     		ldr	r3, .L62
 205:.\sensors.c   ****         {
 206:.\sensors.c   ****    
 207:.\sensors.c   ****             int16 battery_avg=0;
 208:.\sensors.c   ****             int i;
 209:.\sensors.c   ****             for(i = 1; i < 8; i++)
 210:.\sensors.c   ****             {
 211:.\sensors.c   ****                  battery_avg=battery_avg+batterylevel[i];
ARM GAS  C:\temp\ccZXt7Ts.s 			page 16


 212:.\sensors.c   ****             }
 213:.\sensors.c   ****             
 214:.\sensors.c   ****             battery_avg=(battery_avg>>3u);
 215:.\sensors.c   ****           
 216:.\sensors.c   ****         
 217:.\sensors.c   ****             char battery_data[50];
 218:.\sensors.c   ****             
 219:.\sensors.c   ****            
 220:.\sensors.c   ****             //batteri styringen går fra 3.3V ved fuld opladt batteri til 2.7 diff 600mV
 221:.\sensors.c   ****             int16 battery_pro=0;
 222:.\sensors.c   ****             battery_avg=battery_avg+1970;
 223:.\sensors.c   ****          
 224:.\sensors.c   ****             
 225:.\sensors.c   ****             if(battery_avg > 3300)
 226:.\sensors.c   ****             {
 227:.\sensors.c   ****                 battery_pro=100;
 228:.\sensors.c   ****             }
 229:.\sensors.c   ****             else if(battery_avg > 3240)
 230:.\sensors.c   ****             {
 231:.\sensors.c   ****                 battery_pro=90;
 232:.\sensors.c   ****             }
 233:.\sensors.c   ****             else if(battery_avg > 3180)
 234:.\sensors.c   ****             {
 235:.\sensors.c   ****                 battery_pro=80;
 236:.\sensors.c   ****             }
 237:.\sensors.c   ****             else if(battery_avg > 3120)
 238:.\sensors.c   ****             {
 239:.\sensors.c   ****                 battery_pro=70;
 240:.\sensors.c   ****             }
 241:.\sensors.c   ****             else if(battery_avg > 3060)
 242:.\sensors.c   ****             {
 243:.\sensors.c   ****                 battery_pro=60;
 244:.\sensors.c   ****             }
 245:.\sensors.c   ****             else if(battery_avg > 3000)
 246:.\sensors.c   ****             {
 247:.\sensors.c   ****                 battery_pro=50;
 248:.\sensors.c   ****             }
 249:.\sensors.c   ****             else if(battery_avg > 2940)
 250:.\sensors.c   ****             {
 251:.\sensors.c   ****                 battery_pro=40;
 252:.\sensors.c   ****             }
 253:.\sensors.c   ****             else if(battery_avg > 2880)
 254:.\sensors.c   ****             {
 255:.\sensors.c   ****                 battery_pro=30;
 256:.\sensors.c   ****             }
 257:.\sensors.c   ****             else if(battery_avg > 2820)
 258:.\sensors.c   ****             {
 259:.\sensors.c   ****                 battery_pro=20;
 260:.\sensors.c   ****             }
 261:.\sensors.c   ****             else if(battery_avg > 2760)
 262:.\sensors.c   ****             {
 263:.\sensors.c   ****                 battery_pro=10;
 264:.\sensors.c   ****             }
 265:.\sensors.c   ****             else
 266:.\sensors.c   ****             {
 267:.\sensors.c   ****                 battery_pro=5;
 268:.\sensors.c   ****             }
ARM GAS  C:\temp\ccZXt7Ts.s 			page 17


 269:.\sensors.c   ****            
 270:.\sensors.c   ****           
 271:.\sensors.c   ****             /* //til test af sensorer
 272:.\sensors.c   ****             sprintf(battery_data, "batteri niveau = %d\n\r", battery_pro);
 273:.\sensors.c   ****             UART_1_UartPutString(battery_data);
 274:.\sensors.c   ****             CyDelay(1000);
 275:.\sensors.c   ****             */
 276:.\sensors.c   ****             
 277:.\sensors.c   ****             batterylevel_ptr=0;
 278:.\sensors.c   ****             return battery_pro;
 279:.\sensors.c   ****             
 280:.\sensors.c   ****         }
 281:.\sensors.c   ****         return 0; 
 623              		.loc 1 281 0
 624 0004 0020     		mov	r0, #0
 204:.\sensors.c   ****      if(batterylevel_ptr == 8u)
 625              		.loc 1 204 0
 626 0006 D978     		ldrb	r1, [r3, #3]
 627 0008 1A1C     		mov	r2, r3
 628 000a 0829     		cmp	r1, #8
 629 000c 37D1     		bne	.L48
 630 000e 0123     		mov	r3, #1
 631              	.L49:
 632              	.LVL73:
 633              	.LBB5:
 211:.\sensors.c   ****             }
 634              		.loc 1 211 0 discriminator 3
 635 0010 1D4C     		ldr	r4, .L62+4
 636 0012 5900     		lsl	r1, r3, #1
 637 0014 615A     		ldrh	r1, [r4, r1]
 209:.\sensors.c   ****             {
 638              		.loc 1 209 0 discriminator 3
 639 0016 0133     		add	r3, r3, #1
 640              	.LVL74:
 211:.\sensors.c   ****             }
 641              		.loc 1 211 0 discriminator 3
 642 0018 0818     		add	r0, r1, r0
 643              	.LVL75:
 644 001a 80B2     		uxth	r0, r0
 645              	.LVL76:
 209:.\sensors.c   ****             {
 646              		.loc 1 209 0 discriminator 3
 647 001c 082B     		cmp	r3, #8
 648 001e F7D1     		bne	.L49
 649              	.LVL77:
 214:.\sensors.c   ****           
 650              		.loc 1 214 0
 651 0020 00B2     		sxth	r0, r0
 225:.\sensors.c   ****             {
 652              		.loc 1 225 0
 653 0022 1A4B     		ldr	r3, .L62+8
 654              	.LVL78:
 214:.\sensors.c   ****           
 655              		.loc 1 214 0
 656 0024 C010     		asr	r0, r0, #3
 657              	.LVL79:
 225:.\sensors.c   ****             {
ARM GAS  C:\temp\ccZXt7Ts.s 			page 18


 658              		.loc 1 225 0
 659 0026 1A49     		ldr	r1, .L62+12
 660 0028 C318     		add	r3, r0, r3
 227:.\sensors.c   ****             }
 661              		.loc 1 227 0
 662 002a 6420     		mov	r0, #100
 663              	.LVL80:
 225:.\sensors.c   ****             {
 664              		.loc 1 225 0
 665 002c 8B42     		cmp	r3, r1
 666 002e 24DC     		bgt	.L50
 229:.\sensors.c   ****             {
 667              		.loc 1 229 0
 668 0030 1849     		ldr	r1, .L62+16
 231:.\sensors.c   ****             }
 669              		.loc 1 231 0
 670 0032 0A38     		sub	r0, r0, #10
 229:.\sensors.c   ****             {
 671              		.loc 1 229 0
 672 0034 8B42     		cmp	r3, r1
 673 0036 20DC     		bgt	.L50
 233:.\sensors.c   ****             {
 674              		.loc 1 233 0
 675 0038 1749     		ldr	r1, .L62+20
 235:.\sensors.c   ****             }
 676              		.loc 1 235 0
 677 003a 0A38     		sub	r0, r0, #10
 233:.\sensors.c   ****             {
 678              		.loc 1 233 0
 679 003c 8B42     		cmp	r3, r1
 680 003e 1CDC     		bgt	.L50
 237:.\sensors.c   ****             {
 681              		.loc 1 237 0
 682 0040 3C39     		sub	r1, r1, #60
 239:.\sensors.c   ****             }
 683              		.loc 1 239 0
 684 0042 0A38     		sub	r0, r0, #10
 237:.\sensors.c   ****             {
 685              		.loc 1 237 0
 686 0044 8B42     		cmp	r3, r1
 687 0046 18DC     		bgt	.L50
 241:.\sensors.c   ****             {
 688              		.loc 1 241 0
 689 0048 1449     		ldr	r1, .L62+24
 243:.\sensors.c   ****             }
 690              		.loc 1 243 0
 691 004a 0A38     		sub	r0, r0, #10
 241:.\sensors.c   ****             {
 692              		.loc 1 241 0
 693 004c 8B42     		cmp	r3, r1
 694 004e 14DC     		bgt	.L50
 245:.\sensors.c   ****             {
 695              		.loc 1 245 0
 696 0050 1349     		ldr	r1, .L62+28
 247:.\sensors.c   ****             }
 697              		.loc 1 247 0
 698 0052 0A38     		sub	r0, r0, #10
ARM GAS  C:\temp\ccZXt7Ts.s 			page 19


 245:.\sensors.c   ****             {
 699              		.loc 1 245 0
 700 0054 8B42     		cmp	r3, r1
 701 0056 10DC     		bgt	.L50
 249:.\sensors.c   ****             {
 702              		.loc 1 249 0
 703 0058 1249     		ldr	r1, .L62+32
 251:.\sensors.c   ****             }
 704              		.loc 1 251 0
 705 005a 0A38     		sub	r0, r0, #10
 249:.\sensors.c   ****             {
 706              		.loc 1 249 0
 707 005c 8B42     		cmp	r3, r1
 708 005e 0CDC     		bgt	.L50
 253:.\sensors.c   ****             {
 709              		.loc 1 253 0
 710 0060 3C39     		sub	r1, r1, #60
 255:.\sensors.c   ****             }
 711              		.loc 1 255 0
 712 0062 0A38     		sub	r0, r0, #10
 253:.\sensors.c   ****             {
 713              		.loc 1 253 0
 714 0064 8B42     		cmp	r3, r1
 715 0066 08DC     		bgt	.L50
 257:.\sensors.c   ****             {
 716              		.loc 1 257 0
 717 0068 0F49     		ldr	r1, .L62+36
 259:.\sensors.c   ****             }
 718              		.loc 1 259 0
 719 006a 0A38     		sub	r0, r0, #10
 257:.\sensors.c   ****             {
 720              		.loc 1 257 0
 721 006c 8B42     		cmp	r3, r1
 722 006e 04DC     		bgt	.L50
 261:.\sensors.c   ****             {
 723              		.loc 1 261 0
 724 0070 0E49     		ldr	r1, .L62+40
 263:.\sensors.c   ****             }
 725              		.loc 1 263 0
 726 0072 0A38     		sub	r0, r0, #10
 261:.\sensors.c   ****             {
 727              		.loc 1 261 0
 728 0074 8B42     		cmp	r3, r1
 729 0076 00DC     		bgt	.L50
 267:.\sensors.c   ****             }
 730              		.loc 1 267 0
 731 0078 0538     		sub	r0, r0, #5
 732              	.L50:
 733              	.LVL81:
 277:.\sensors.c   ****             return battery_pro;
 734              		.loc 1 277 0
 735 007a 0023     		mov	r3, #0
 736              	.LVL82:
 737 007c D370     		strb	r3, [r2, #3]
 738              	.LVL83:
 739              	.L48:
 740 007e 00B2     		sxth	r0, r0
ARM GAS  C:\temp\ccZXt7Ts.s 			page 20


 741              	.LBE5:
 282:.\sensors.c   **** 
 283:.\sensors.c   **** 
 284:.\sensors.c   **** }
 742              		.loc 1 284 0 discriminator 1
 743              		@ sp needed
 744 0080 10BD     		pop	{r4, pc}
 745              	.L63:
 746 0082 C046     		.align	2
 747              	.L62:
 748 0084 00000000 		.word	.LANCHOR0
 749 0088 00000000 		.word	batterylevel
 750 008c B2070000 		.word	1970
 751 0090 E40C0000 		.word	3300
 752 0094 A80C0000 		.word	3240
 753 0098 6C0C0000 		.word	3180
 754 009c F40B0000 		.word	3060
 755 00a0 B80B0000 		.word	3000
 756 00a4 7C0B0000 		.word	2940
 757 00a8 040B0000 		.word	2820
 758 00ac C80A0000 		.word	2760
 759              		.cfi_endproc
 760              	.LFE37:
 761              		.size	get_batterylevel, .-get_batterylevel
 762              		.section	.text.get_lightlevel,"ax",%progbits
 763              		.align	1
 764              		.global	get_lightlevel
 765              		.code	16
 766              		.thumb_func
 767              		.type	get_lightlevel, %function
 768              	get_lightlevel:
 769              	.LFB38:
 285:.\sensors.c   **** 
 286:.\sensors.c   **** int16 get_lightlevel(void)
 287:.\sensors.c   **** {
 770              		.loc 1 287 0
 771              		.cfi_startproc
 288:.\sensors.c   ****     if(lightlevel_ptr == 8u)
 772              		.loc 1 288 0
 773 0000 2B4B     		ldr	r3, .L85
 289:.\sensors.c   ****         {
 290:.\sensors.c   ****             int16 light_avg=0;
 291:.\sensors.c   ****             int i;
 292:.\sensors.c   ****             for(i = 0; i < 8; i++)
 293:.\sensors.c   ****             {
 294:.\sensors.c   ****                  light_avg=light_avg+lightlevel[i];
 295:.\sensors.c   ****             }
 296:.\sensors.c   ****             
 297:.\sensors.c   ****             light_avg=(light_avg>>3u);
 298:.\sensors.c   ****           
 299:.\sensors.c   ****             //Lys level går fra 3.3V ved 10000 Lux til 0 ved under 200mV. 
 300:.\sensors.c   ****             int16 lightLux = 0;
 301:.\sensors.c   ****             
 302:.\sensors.c   ****             //ref modstand 500Ohm.
 303:.\sensors.c   ****             if(light_avg <= 0)
 304:.\sensors.c   ****                 lightLux = 0;
 305:.\sensors.c   ****             else if(light_avg <= 228)
ARM GAS  C:\temp\ccZXt7Ts.s 			page 21


 306:.\sensors.c   ****                 lightLux = 1;
 307:.\sensors.c   ****             else if(light_avg <= 723)
 308:.\sensors.c   ****                 lightLux = 5;
 309:.\sensors.c   ****             else if(light_avg <= 1096)
 310:.\sensors.c   ****                 lightLux = 10;
 311:.\sensors.c   ****             else if(light_avg <= 2153)
 312:.\sensors.c   ****                 lightLux = 50;
 313:.\sensors.c   ****             else if(light_avg <= 2535)
 314:.\sensors.c   ****                 lightLux = 100;
 315:.\sensors.c   ****             else if(light_avg <= 2716)
 316:.\sensors.c   ****                 lightLux = 150;
 317:.\sensors.c   ****             else if(light_avg <= 2822)
 318:.\sensors.c   ****                 lightLux = 200;
 319:.\sensors.c   ****             else if(light_avg <= 2892)
 320:.\sensors.c   ****                 lightLux = 250;
 321:.\sensors.c   ****             else if(light_avg <= 2942)
 322:.\sensors.c   ****                 lightLux = 300;
 323:.\sensors.c   ****             else if(light_avg <= 3011)
 324:.\sensors.c   ****                 lightLux = 400;
 325:.\sensors.c   ****             else if(light_avg <= 3057)
 326:.\sensors.c   ****                 lightLux = 500;
 327:.\sensors.c   ****             else if(light_avg <= 3089)
 328:.\sensors.c   ****                 lightLux = 600;
 329:.\sensors.c   ****             else if(light_avg <= 3122)
 330:.\sensors.c   ****                 lightLux = 750;
 331:.\sensors.c   ****             else if(light_avg <= 3300)
 332:.\sensors.c   ****                 lightLux = 999;
 333:.\sensors.c   ****             
 334:.\sensors.c   ****             
 335:.\sensors.c   ****             // Behandling af målt avg til et lys niveau eller spænding
 336:.\sensors.c   **** 
 337:.\sensors.c   ****             /* //til test af sensorer
 338:.\sensors.c   ****             sprintf(light_data, "lys niveau i volt = %d\n\r", light_avg);
 339:.\sensors.c   ****             UART_1_UartPutString(light_data);
 340:.\sensors.c   ****             CyDelay(1000);
 341:.\sensors.c   ****             */
 342:.\sensors.c   ****             
 343:.\sensors.c   ****             lightlevel_ptr=0;
 344:.\sensors.c   ****             return lightLux;
 345:.\sensors.c   ****         }
 346:.\sensors.c   ****         return 0; 
 774              		.loc 1 346 0
 775 0002 0020     		mov	r0, #0
 288:.\sensors.c   ****     if(lightlevel_ptr == 8u)
 776              		.loc 1 288 0
 777 0004 1979     		ldrb	r1, [r3, #4]
 778 0006 1A1C     		mov	r2, r3
 779 0008 0829     		cmp	r1, #8
 780 000a 4ED1     		bne	.L65
 781 000c 031C     		mov	r3, r0
 782              	.L66:
 783              	.LVL84:
 784              	.LBB6:
 294:.\sensors.c   ****             }
 785              		.loc 1 294 0 discriminator 3
 786 000e 2949     		ldr	r1, .L85+4
 787 0010 095A     		ldrh	r1, [r1, r0]
ARM GAS  C:\temp\ccZXt7Ts.s 			page 22


 788 0012 0230     		add	r0, r0, #2
 789 0014 CB18     		add	r3, r1, r3
 790              	.LVL85:
 791 0016 9BB2     		uxth	r3, r3
 792              	.LVL86:
 292:.\sensors.c   ****             {
 793              		.loc 1 292 0 discriminator 3
 794 0018 1028     		cmp	r0, #16
 795 001a F8D1     		bne	.L66
 304:.\sensors.c   ****             else if(light_avg <= 228)
 796              		.loc 1 304 0
 797 001c 0020     		mov	r0, #0
 297:.\sensors.c   ****           
 798              		.loc 1 297 0
 799 001e 1BB2     		sxth	r3, r3
 800              	.LVL87:
 303:.\sensors.c   ****                 lightLux = 0;
 801              		.loc 1 303 0
 802 0020 DB10     		asr	r3, r3, #3
 803              	.LVL88:
 804 0022 8342     		cmp	r3, r0
 805 0024 3FDD     		ble	.L67
 306:.\sensors.c   ****             else if(light_avg <= 723)
 806              		.loc 1 306 0
 807 0026 0130     		add	r0, r0, #1
 305:.\sensors.c   ****                 lightLux = 1;
 808              		.loc 1 305 0
 809 0028 E42B     		cmp	r3, #228
 810 002a 3CDD     		ble	.L67
 307:.\sensors.c   ****                 lightLux = 5;
 811              		.loc 1 307 0
 812 002c 2249     		ldr	r1, .L85+8
 308:.\sensors.c   ****             else if(light_avg <= 1096)
 813              		.loc 1 308 0
 814 002e 0430     		add	r0, r0, #4
 307:.\sensors.c   ****                 lightLux = 5;
 815              		.loc 1 307 0
 816 0030 8B42     		cmp	r3, r1
 817 0032 38DD     		ble	.L67
 309:.\sensors.c   ****                 lightLux = 10;
 818              		.loc 1 309 0
 819 0034 7631     		add	r1, r1, #118
 820 0036 FF31     		add	r1, r1, #255
 310:.\sensors.c   ****             else if(light_avg <= 2153)
 821              		.loc 1 310 0
 822 0038 0530     		add	r0, r0, #5
 309:.\sensors.c   ****                 lightLux = 10;
 823              		.loc 1 309 0
 824 003a 8B42     		cmp	r3, r1
 825 003c 33DD     		ble	.L67
 311:.\sensors.c   ****                 lightLux = 50;
 826              		.loc 1 311 0
 827 003e 1F49     		ldr	r1, .L85+12
 312:.\sensors.c   ****             else if(light_avg <= 2535)
 828              		.loc 1 312 0
 829 0040 2830     		add	r0, r0, #40
 311:.\sensors.c   ****                 lightLux = 50;
ARM GAS  C:\temp\ccZXt7Ts.s 			page 23


 830              		.loc 1 311 0
 831 0042 8B42     		cmp	r3, r1
 832 0044 2FDD     		ble	.L67
 313:.\sensors.c   ****                 lightLux = 100;
 833              		.loc 1 313 0
 834 0046 1E49     		ldr	r1, .L85+16
 314:.\sensors.c   ****             else if(light_avg <= 2716)
 835              		.loc 1 314 0
 836 0048 3230     		add	r0, r0, #50
 313:.\sensors.c   ****                 lightLux = 100;
 837              		.loc 1 313 0
 838 004a 8B42     		cmp	r3, r1
 839 004c 2BDD     		ble	.L67
 315:.\sensors.c   ****                 lightLux = 150;
 840              		.loc 1 315 0
 841 004e 1D49     		ldr	r1, .L85+20
 316:.\sensors.c   ****             else if(light_avg <= 2822)
 842              		.loc 1 316 0
 843 0050 3230     		add	r0, r0, #50
 315:.\sensors.c   ****                 lightLux = 150;
 844              		.loc 1 315 0
 845 0052 8B42     		cmp	r3, r1
 846 0054 27DD     		ble	.L67
 317:.\sensors.c   ****                 lightLux = 200;
 847              		.loc 1 317 0
 848 0056 1C49     		ldr	r1, .L85+24
 318:.\sensors.c   ****             else if(light_avg <= 2892)
 849              		.loc 1 318 0
 850 0058 3230     		add	r0, r0, #50
 317:.\sensors.c   ****                 lightLux = 200;
 851              		.loc 1 317 0
 852 005a 8B42     		cmp	r3, r1
 853 005c 23DD     		ble	.L67
 319:.\sensors.c   ****                 lightLux = 250;
 854              		.loc 1 319 0
 855 005e 1B49     		ldr	r1, .L85+28
 320:.\sensors.c   ****             else if(light_avg <= 2942)
 856              		.loc 1 320 0
 857 0060 3230     		add	r0, r0, #50
 319:.\sensors.c   ****                 lightLux = 250;
 858              		.loc 1 319 0
 859 0062 8B42     		cmp	r3, r1
 860 0064 1FDD     		ble	.L67
 321:.\sensors.c   ****                 lightLux = 300;
 861              		.loc 1 321 0
 862 0066 1A49     		ldr	r1, .L85+32
 863 0068 8B42     		cmp	r3, r1
 864 006a 11DD     		ble	.L78
 323:.\sensors.c   ****                 lightLux = 400;
 865              		.loc 1 323 0
 866 006c 1949     		ldr	r1, .L85+36
 867 006e 8B42     		cmp	r3, r1
 868 0070 10DD     		ble	.L79
 325:.\sensors.c   ****                 lightLux = 500;
 869              		.loc 1 325 0
 870 0072 1949     		ldr	r1, .L85+40
 871 0074 8B42     		cmp	r3, r1
ARM GAS  C:\temp\ccZXt7Ts.s 			page 24


 872 0076 10DD     		ble	.L80
 327:.\sensors.c   ****                 lightLux = 600;
 873              		.loc 1 327 0
 874 0078 1849     		ldr	r1, .L85+44
 875 007a 8B42     		cmp	r3, r1
 876 007c 0FDD     		ble	.L81
 329:.\sensors.c   ****                 lightLux = 750;
 877              		.loc 1 329 0
 878 007e 1849     		ldr	r1, .L85+48
 879 0080 8B42     		cmp	r3, r1
 880 0082 0FDD     		ble	.L82
 331:.\sensors.c   ****                 lightLux = 999;
 881              		.loc 1 331 0
 882 0084 1749     		ldr	r1, .L85+52
 300:.\sensors.c   ****             
 883              		.loc 1 300 0
 884 0086 0020     		mov	r0, #0
 331:.\sensors.c   ****                 lightLux = 999;
 885              		.loc 1 331 0
 886 0088 8B42     		cmp	r3, r1
 887 008a 0CDC     		bgt	.L67
 332:.\sensors.c   ****             
 888              		.loc 1 332 0
 889 008c 1648     		ldr	r0, .L85+56
 890 008e 0AE0     		b	.L67
 891              	.L78:
 322:.\sensors.c   ****             else if(light_avg <= 3011)
 892              		.loc 1 322 0
 893 0090 9620     		mov	r0, #150
 894 0092 00E0     		b	.L84
 895              	.L79:
 324:.\sensors.c   ****             else if(light_avg <= 3057)
 896              		.loc 1 324 0
 897 0094 C820     		mov	r0, #200
 898              	.L84:
 899 0096 4000     		lsl	r0, r0, #1
 900 0098 05E0     		b	.L67
 901              	.L80:
 326:.\sensors.c   ****             else if(light_avg <= 3089)
 902              		.loc 1 326 0
 903 009a FA20     		mov	r0, #250
 904 009c FBE7     		b	.L84
 905              	.L81:
 328:.\sensors.c   ****             else if(light_avg <= 3122)
 906              		.loc 1 328 0
 907 009e 9620     		mov	r0, #150
 908 00a0 8000     		lsl	r0, r0, #2
 909 00a2 00E0     		b	.L67
 910              	.L82:
 330:.\sensors.c   ****             else if(light_avg <= 3300)
 911              		.loc 1 330 0
 912 00a4 1148     		ldr	r0, .L85+60
 913              	.L67:
 914              	.LVL89:
 343:.\sensors.c   ****             return lightLux;
 915              		.loc 1 343 0
 916 00a6 0023     		mov	r3, #0
ARM GAS  C:\temp\ccZXt7Ts.s 			page 25


 917 00a8 1371     		strb	r3, [r2, #4]
 918              	.LVL90:
 919              	.L65:
 920 00aa 00B2     		sxth	r0, r0
 921              	.LBE6:
 347:.\sensors.c   **** 
 348:.\sensors.c   **** }
 922              		.loc 1 348 0
 923              		@ sp needed
 924 00ac 7047     		bx	lr
 925              	.L86:
 926 00ae C046     		.align	2
 927              	.L85:
 928 00b0 00000000 		.word	.LANCHOR0
 929 00b4 00000000 		.word	lightlevel
 930 00b8 D3020000 		.word	723
 931 00bc 69080000 		.word	2153
 932 00c0 E7090000 		.word	2535
 933 00c4 9C0A0000 		.word	2716
 934 00c8 060B0000 		.word	2822
 935 00cc 4C0B0000 		.word	2892
 936 00d0 7E0B0000 		.word	2942
 937 00d4 C30B0000 		.word	3011
 938 00d8 F10B0000 		.word	3057
 939 00dc 110C0000 		.word	3089
 940 00e0 320C0000 		.word	3122
 941 00e4 E40C0000 		.word	3300
 942 00e8 E7030000 		.word	999
 943 00ec EE020000 		.word	750
 944              		.cfi_endproc
 945              	.LFE38:
 946              		.size	get_lightlevel, .-get_lightlevel
 947              		.global	procent_waterlevel
 948              		.global	procent_moisture
 949              		.global	lightlevel_ptr
 950              		.global	batterylevel_ptr
 951              		.global	temperature_ptr
 952              		.global	waterlevel_ptr
 953              		.global	moisture_ptr
 954              		.comm	lightlevel,16,2
 955              		.comm	batterylevel,16,2
 956              		.comm	temperature,16,2
 957              		.comm	waterlevel,100,2
 958              		.comm	moisture,100,2
 959              		.bss
 960              		.align	1
 961              		.set	.LANCHOR0,. + 0
 962              		.type	moisture_ptr, %object
 963              		.size	moisture_ptr, 1
 964              	moisture_ptr:
 965 0000 00       		.space	1
 966              		.type	waterlevel_ptr, %object
 967              		.size	waterlevel_ptr, 1
 968              	waterlevel_ptr:
 969 0001 00       		.space	1
 970              		.type	temperature_ptr, %object
 971              		.size	temperature_ptr, 1
ARM GAS  C:\temp\ccZXt7Ts.s 			page 26


 972              	temperature_ptr:
 973 0002 00       		.space	1
 974              		.type	batterylevel_ptr, %object
 975              		.size	batterylevel_ptr, 1
 976              	batterylevel_ptr:
 977 0003 00       		.space	1
 978              		.type	lightlevel_ptr, %object
 979              		.size	lightlevel_ptr, 1
 980              	lightlevel_ptr:
 981 0004 00       		.space	1
 982 0005 00       		.space	1
 983              		.type	procent_moisture, %object
 984              		.size	procent_moisture, 2
 985              	procent_moisture:
 986 0006 0000     		.space	2
 987              		.type	procent_waterlevel, %object
 988              		.size	procent_waterlevel, 2
 989              	procent_waterlevel:
 990 0008 0000     		.space	2
 991              		.text
 992              	.Letext0:
 993              		.file 2 "Generated_Source\\PSoC4/cytypes.h"
 994              		.file 3 "./sensors.h"
 995              		.file 4 "Generated_Source\\PSoC4/ADC_SAR_Seq_1.h"