ARM GAS  C:\temp\ccVDdllL.s 			page 1


   1              		.cpu cortex-m0
   2              		.fpu softvfp
   3              		.eabi_attribute 20, 1
   4              		.eabi_attribute 21, 1
   5              		.eabi_attribute 23, 3
   6              		.eabi_attribute 24, 1
   7              		.eabi_attribute 25, 1
   8              		.eabi_attribute 26, 1
   9              		.eabi_attribute 30, 4
  10              		.eabi_attribute 34, 0
  11              		.eabi_attribute 18, 4
  12              		.code	16
  13              		.file	"wifi.c"
  14              		.text
  15              	.Ltext0:
  16              		.cfi_sections	.debug_frame
  17              		.section	.text.updateBuf,"ax",%progbits
  18              		.align	1
  19              		.global	updateBuf
  20              		.code	16
  21              		.thumb_func
  22              		.type	updateBuf, %function
  23              	updateBuf:
  24              	.LFB34:
  25              		.file 1 ".\\wifi.c"
   1:.\wifi.c      **** ///* ========================================
   2:.\wifi.c      **** // *
   3:.\wifi.c      **** // * Copyright YOUR COMPANY, THE YEAR
   4:.\wifi.c      **** // * All Rights Reserved
   5:.\wifi.c      **** // * UNPUBLISHED, LICENSED SOFTWARE.
   6:.\wifi.c      **** // *
   7:.\wifi.c      **** // * CONFIDENTIAL AND PROPRIETARY INFORMATION
   8:.\wifi.c      **** // * WHICH IS THE PROPERTY OF your company.
   9:.\wifi.c      **** // *
  10:.\wifi.c      **** // * ========================================
  11:.\wifi.c      **** //*/
  12:.\wifi.c      **** 
  13:.\wifi.c      **** #include <stdio.h>
  14:.\wifi.c      **** #include <stdlib.h>
  15:.\wifi.c      **** #include <wifi.h>
  16:.\wifi.c      **** 
  17:.\wifi.c      **** /***********************************DIVERSE GLOBALE VARIABLER********************************/
  18:.\wifi.c      **** uint8 RXnewData;                            //Benyttes til ISR - '1' hvis der er data i RX bufferen
  19:.\wifi.c      **** uint8 stringRX_len = 0;                     //Længde af RX buffer
  20:.\wifi.c      **** char stringRX[255] = {0};                   //RX buffer til interrupts
  21:.\wifi.c      **** char uartString[255] = {0};                 //string som UARTen benytter til at modtage / har modta
  22:.\wifi.c      **** uint8 plantID = '-';                        //Pottens ID / PSoC ID - Sættes til '-' for at teste o
  23:.\wifi.c      **** 
  24:.\wifi.c      **** CY_ISR(UART_ISR)
  25:.\wifi.c      **** {
  26:.\wifi.c      ****     updateBuf();
  27:.\wifi.c      **** }
  28:.\wifi.c      **** 
  29:.\wifi.c      **** void updateBuf()
  30:.\wifi.c      **** {
  26              		.loc 1 30 0
  27              		.cfi_startproc
ARM GAS  C:\temp\ccVDdllL.s 			page 2


  28 0000 70B5     		push	{r4, r5, r6, lr}
  29              		.cfi_def_cfa_offset 16
  30              		.cfi_offset 4, -16
  31              		.cfi_offset 5, -12
  32              		.cfi_offset 6, -8
  33              		.cfi_offset 14, -4
  31:.\wifi.c      ****     if(RXnewData)
  34              		.loc 1 31 0
  35 0002 114D     		ldr	r5, .L19
  36 0004 2C78     		ldrb	r4, [r5]
  37 0006 002C     		cmp	r4, #0
  38 0008 1DD1     		bne	.L1
  32:.\wifi.c      ****         return;
  33:.\wifi.c      ****     uint8 size = UART_GetRxBufferSize();
  39              		.loc 1 33 0
  40 000a FFF7FEFF 		bl	UART_GetRxBufferSize
  41              	.LVL0:
  42 000e 061C     		mov	r6, r0
  43              	.LVL1:
  44              	.L4:
  34:.\wifi.c      ****     int i;
  35:.\wifi.c      ****     for(i = 0; i < size + 1; i++)
  45              		.loc 1 35 0 discriminator 1
  46 0010 A642     		cmp	r6, r4
  47 0012 18DB     		blt	.L1
  48              	.LBB7:
  36:.\wifi.c      ****     {
  37:.\wifi.c      ****         char rxdata = (char)UART_ReadRxData();      //læser data fra uarten
  49              		.loc 1 37 0
  50 0014 FFF7FEFF 		bl	UART_ReadRxData
  51              	.LVL2:
  52 0018 0C4B     		ldr	r3, .L19+4
  38:.\wifi.c      **** 
  39:.\wifi.c      ****         if(rxdata == 0 || rxdata == '\n' || rxdata == '\r' || stringRX_len == 255)   //hvis der ikk
  53              		.loc 1 39 0
  54 001a 0028     		cmp	r0, #0
  55 001c 06D0     		beq	.L5
  56              		.loc 1 39 0 is_stmt 0 discriminator 1
  57 001e 0A28     		cmp	r0, #10
  58 0020 04D0     		beq	.L5
  59              		.loc 1 39 0 discriminator 2
  60 0022 0D28     		cmp	r0, #13
  61 0024 02D0     		beq	.L5
  62              		.loc 1 39 0 discriminator 3
  63 0026 1A78     		ldrb	r2, [r3]
  64 0028 FF2A     		cmp	r2, #255
  65 002a 06D1     		bne	.L6
  66              	.L5:
  67              	.LBE7:
  68              	.LBB8:
  69              	.LBB9:
  70              	.LBB10:
  40:.\wifi.c      ****         {
  41:.\wifi.c      ****             stringRX[stringRX_len] = 0;     //buffer sættes til 0 på index stringRX_len
  71              		.loc 1 41 0 is_stmt 1
  72 002c 0021     		mov	r1, #0
  73 002e 5A1C     		add	r2, r3, #1
ARM GAS  C:\temp\ccVDdllL.s 			page 3


  74 0030 1B78     		ldrb	r3, [r3]
  75 0032 D154     		strb	r1, [r2, r3]
  42:.\wifi.c      ****             RXnewData = 1;                  //RXnewData sættes til 1 for at enable interrupt
  76              		.loc 1 42 0
  77 0034 0123     		mov	r3, #1
  78 0036 2B70     		strb	r3, [r5]
  79 0038 05E0     		b	.L1
  80              	.L6:
  81              	.LBE10:
  82              	.LBE9:
  83              	.LBE8:
  84              	.LBB11:
  43:.\wifi.c      ****             return;
  44:.\wifi.c      ****         }
  45:.\wifi.c      ****         
  46:.\wifi.c      ****         stringRX[stringRX_len] = rxdata;    //data fra uarten skrives ind i stringRX med index stri
  85              		.loc 1 46 0 discriminator 2
  86 003a 591C     		add	r1, r3, #1
  87 003c 8854     		strb	r0, [r1, r2]
  47:.\wifi.c      ****         stringRX_len++;  
  88              		.loc 1 47 0 discriminator 2
  89 003e 0132     		add	r2, r2, #1
  90 0040 1A70     		strb	r2, [r3]
  91              	.LBE11:
  35:.\wifi.c      ****     {
  92              		.loc 1 35 0 discriminator 2
  93 0042 0134     		add	r4, r4, #1
  94              	.LVL3:
  95 0044 E4E7     		b	.L4
  96              	.LVL4:
  97              	.L1:
  48:.\wifi.c      ****     }
  49:.\wifi.c      **** }
  98              		.loc 1 49 0
  99              		@ sp needed
 100 0046 70BD     		pop	{r4, r5, r6, pc}
 101              	.L20:
 102              		.align	2
 103              	.L19:
 104 0048 00000000 		.word	RXnewData
 105 004c 00000000 		.word	.LANCHOR0
 106              		.cfi_endproc
 107              	.LFE34:
 108              		.size	updateBuf, .-updateBuf
 109              		.section	.text.UART_ISR,"ax",%progbits
 110              		.align	1
 111              		.global	UART_ISR
 112              		.code	16
 113              		.thumb_func
 114              		.type	UART_ISR, %function
 115              	UART_ISR:
 116              	.LFB33:
  25:.\wifi.c      ****     updateBuf();
 117              		.loc 1 25 0
 118              		.cfi_startproc
 119 0000 08B5     		push	{r3, lr}
 120              		.cfi_def_cfa_offset 8
ARM GAS  C:\temp\ccVDdllL.s 			page 4


 121              		.cfi_offset 3, -8
 122              		.cfi_offset 14, -4
  26:.\wifi.c      **** }
 123              		.loc 1 26 0
 124 0002 FFF7FEFF 		bl	updateBuf
 125              	.LVL5:
  27:.\wifi.c      **** 
 126              		.loc 1 27 0
 127              		@ sp needed
 128 0006 08BD     		pop	{r3, pc}
 129              		.cfi_endproc
 130              	.LFE33:
 131              		.size	UART_ISR, .-UART_ISR
 132              		.section	.text.getStringFromUart,"ax",%progbits
 133              		.align	1
 134              		.global	getStringFromUart
 135              		.code	16
 136              		.thumb_func
 137              		.type	getStringFromUart, %function
 138              	getStringFromUart:
 139              	.LFB35:
  50:.\wifi.c      **** 
  51:.\wifi.c      **** char getStringFromUart(char *data)
  52:.\wifi.c      **** {
 140              		.loc 1 52 0
 141              		.cfi_startproc
 142              	.LVL6:
 143 0000 70B5     		push	{r4, r5, r6, lr}
 144              		.cfi_def_cfa_offset 16
 145              		.cfi_offset 4, -16
 146              		.cfi_offset 5, -12
 147              		.cfi_offset 6, -8
 148              		.cfi_offset 14, -4
  53:.\wifi.c      ****     uint8 i;
  54:.\wifi.c      ****     
  55:.\wifi.c      ****     if(!RXnewData)
  56:.\wifi.c      ****         return 0;
 149              		.loc 1 56 0
 150 0002 0024     		mov	r4, #0
  55:.\wifi.c      ****         return 0;
 151              		.loc 1 55 0
 152 0004 0E4E     		ldr	r6, .L29
 153 0006 3378     		ldrb	r3, [r6]
 154 0008 A342     		cmp	r3, r4
 155 000a 16D0     		beq	.L23
 156 000c 051C     		mov	r5, r0
 157              	.LVL7:
 158              	.LBB14:
 159              	.LBB15:
  57:.\wifi.c      ****     
  58:.\wifi.c      ****     updateBuf();
 160              		.loc 1 58 0
 161 000e FFF7FEFF 		bl	updateBuf
 162              	.LVL8:
  59:.\wifi.c      ****         
  60:.\wifi.c      ****     for(i = 0; i<stringRX_len; i++)     //string fra uarten skrives ind i data
 163              		.loc 1 60 0
ARM GAS  C:\temp\ccVDdllL.s 			page 5


 164 0012 231C     		mov	r3, r4
 165              	.LVL9:
 166              	.L24:
 167 0014 0B4A     		ldr	r2, .L29+4
 168 0016 0021     		mov	r1, #0
 169 0018 1078     		ldrb	r0, [r2]
 170 001a 8342     		cmp	r3, r0
 171 001c 06D2     		bcs	.L28
  61:.\wifi.c      ****     {
  62:.\wifi.c      ****         data[i] = stringRX[i];  
 172              		.loc 1 62 0
 173 001e 0132     		add	r2, r2, #1
 174 0020 D05C     		ldrb	r0, [r2, r3]
 175 0022 E854     		strb	r0, [r5, r3]
  63:.\wifi.c      ****         stringRX[i] = 0;
 176              		.loc 1 63 0
 177 0024 D154     		strb	r1, [r2, r3]
  60:.\wifi.c      ****     {
 178              		.loc 1 60 0
 179 0026 0133     		add	r3, r3, #1
 180              	.LVL10:
 181 0028 DBB2     		uxtb	r3, r3
 182              	.LVL11:
 183 002a F3E7     		b	.L24
 184              	.L28:
  64:.\wifi.c      ****     }
  65:.\wifi.c      ****     data[stringRX_len] = 0;
 185              		.loc 1 65 0
 186 002c 2954     		strb	r1, [r5, r0]
  66:.\wifi.c      ****     stringRX_len = 0;
  67:.\wifi.c      ****     RXnewData = 0;                      //interrupt resettes
  68:.\wifi.c      ****     
  69:.\wifi.c      ****     return strlen(data);
 187              		.loc 1 69 0
 188 002e 281C     		mov	r0, r5
  66:.\wifi.c      ****     stringRX_len = 0;
 189              		.loc 1 66 0
 190 0030 1170     		strb	r1, [r2]
  67:.\wifi.c      ****     
 191              		.loc 1 67 0
 192 0032 3170     		strb	r1, [r6]
 193              		.loc 1 69 0
 194 0034 FFF7FEFF 		bl	strlen
 195              	.LVL12:
 196 0038 C4B2     		uxtb	r4, r0
 197              	.LVL13:
 198              	.L23:
 199              	.LBE15:
 200              	.LBE14:
  70:.\wifi.c      **** }
 201              		.loc 1 70 0
 202 003a 201C     		mov	r0, r4
 203              		@ sp needed
 204 003c 70BD     		pop	{r4, r5, r6, pc}
 205              	.L30:
 206 003e C046     		.align	2
 207              	.L29:
ARM GAS  C:\temp\ccVDdllL.s 			page 6


 208 0040 00000000 		.word	RXnewData
 209 0044 00000000 		.word	.LANCHOR0
 210              		.cfi_endproc
 211              	.LFE35:
 212              		.size	getStringFromUart, .-getStringFromUart
 213              		.section	.text.findResponse,"ax",%progbits
 214              		.align	1
 215              		.global	findResponse
 216              		.code	16
 217              		.thumb_func
 218              		.type	findResponse, %function
 219              	findResponse:
 220              	.LFB36:
  71:.\wifi.c      **** 
  72:.\wifi.c      **** uint8 findResponse(char *textToFind)
  73:.\wifi.c      **** {
 221              		.loc 1 73 0
 222              		.cfi_startproc
 223              	.LVL14:
 224 0000 70B5     		push	{r4, r5, r6, lr}
 225              		.cfi_def_cfa_offset 16
 226              		.cfi_offset 4, -16
 227              		.cfi_offset 5, -12
 228              		.cfi_offset 6, -8
 229              		.cfi_offset 14, -4
 230              		.loc 1 73 0
 231 0002 061C     		mov	r6, r0
  74:.\wifi.c      ****     uint8 textToFindLength = strlen(textToFind);    //finder længden af den text man gerne vil fin
 232              		.loc 1 74 0
 233 0004 FFF7FEFF 		bl	strlen
 234              	.LVL15:
 235 0008 C5B2     		uxtb	r5, r0
 236              	.LVL16:
 237              	.L36:
  75:.\wifi.c      ****     uint8 index = 0;
  76:.\wifi.c      ****     char currentChar;
  77:.\wifi.c      ****     
  78:.\wifi.c      ****     while((currentChar = UART_GetChar()) != 0)      //læser data fra uarten
  79:.\wifi.c      ****     {
  80:.\wifi.c      ****         if(currentChar == textToFind[index])        //Hvis den currentChar matcher én char fra uar
  81:.\wifi.c      ****         {
  82:.\wifi.c      ****             if(++index >= textToFindLength)         //så incrementeres index for at læse næste p
  83:.\wifi.c      ****                 return 1;                           //og der ses om index er større eller lig med 
  84:.\wifi.c      ****         }
  85:.\wifi.c      ****         else
  86:.\wifi.c      ****             index = 0;                              //hvis den char man ser på ikke er lig med den
 238              		.loc 1 86 0
 239 000a 0024     		mov	r4, #0
 240              	.L32:
 241              	.LVL17:
  78:.\wifi.c      ****     {
 242              		.loc 1 78 0
 243 000c FFF7FEFF 		bl	UART_GetChar
 244              	.LVL18:
 245 0010 0028     		cmp	r0, #0
 246 0012 07D0     		beq	.L34
  80:.\wifi.c      ****         {
ARM GAS  C:\temp\ccVDdllL.s 			page 7


 247              		.loc 1 80 0
 248 0014 335D     		ldrb	r3, [r6, r4]
 249 0016 8342     		cmp	r3, r0
 250 0018 F7D1     		bne	.L36
  82:.\wifi.c      ****                 return 1;                           //og der ses om index er større eller lig med 
 251              		.loc 1 82 0
 252 001a 0134     		add	r4, r4, #1
 253              	.LVL19:
 254 001c E4B2     		uxtb	r4, r4
 255              	.LVL20:
 256 001e AC42     		cmp	r4, r5
 257 0020 F4D3     		bcc	.L32
  83:.\wifi.c      ****         }
 258              		.loc 1 83 0
 259 0022 0120     		mov	r0, #1
 260              	.LVL21:
 261              	.L34:
  87:.\wifi.c      ****     }
  88:.\wifi.c      ****     return 0;                                       //hvis ingen text findes returneres false
  89:.\wifi.c      **** }
 262              		.loc 1 89 0
 263              		@ sp needed
 264              	.LVL22:
 265              	.LVL23:
 266              	.LVL24:
 267 0024 70BD     		pop	{r4, r5, r6, pc}
 268              		.cfi_endproc
 269              	.LFE36:
 270              		.size	findResponse, .-findResponse
 271              		.section	.text.receiveDataDevKit,"ax",%progbits
 272              		.align	1
 273              		.global	receiveDataDevKit
 274              		.code	16
 275              		.thumb_func
 276              		.type	receiveDataDevKit, %function
 277              	receiveDataDevKit:
 278              	.LFB37:
  90:.\wifi.c      **** 
  91:.\wifi.c      **** uint8 receiveDataDevKit(char *inputString, char *data)
  92:.\wifi.c      **** {
 279              		.loc 1 92 0
 280              		.cfi_startproc
 281              	.LVL25:
 282 0000 F0B5     		push	{r4, r5, r6, r7, lr}
 283              		.cfi_def_cfa_offset 20
 284              		.cfi_offset 4, -20
 285              		.cfi_offset 5, -16
 286              		.cfi_offset 6, -12
 287              		.cfi_offset 7, -8
 288              		.cfi_offset 14, -4
 289 0002 85B0     		sub	sp, sp, #20
 290              		.cfi_def_cfa_offset 40
  93:.\wifi.c      ****     getStringFromUart(inputString);
  94:.\wifi.c      ****     //Tjekker om starten af den modtagende string starter med +IPD
  95:.\wifi.c      ****     char IPD[] = "+IPD";
 291              		.loc 1 95 0
 292 0004 02AC     		add	r4, sp, #8
ARM GAS  C:\temp\ccVDdllL.s 			page 8


  92:.\wifi.c      ****     getStringFromUart(inputString);
 293              		.loc 1 92 0
 294 0006 0F1C     		mov	r7, r1
 295 0008 061C     		mov	r6, r0
  93:.\wifi.c      ****     getStringFromUart(inputString);
 296              		.loc 1 93 0
 297 000a FFF7FEFF 		bl	getStringFromUart
 298              	.LVL26:
 299              		.loc 1 95 0
 300 000e 201C     		mov	r0, r4
 301 0010 1749     		ldr	r1, .L50
 302 0012 0522     		mov	r2, #5
 303 0014 FFF7FEFF 		bl	memcpy
 304              	.LVL27:
 305 0018 0023     		mov	r3, #0
 306              	.LVL28:
 307              	.L41:
  96:.\wifi.c      ****     uint8 i;
  97:.\wifi.c      ****     for(i= 0; i<4; i++)
  98:.\wifi.c      ****     {
  99:.\wifi.c      ****         if(IPD[i] != inputString[i])
 308              		.loc 1 99 0
 309 001a E15C     		ldrb	r1, [r4, r3]
 310 001c F25C     		ldrb	r2, [r6, r3]
 311 001e 9142     		cmp	r1, r2
 312 0020 01D0     		beq	.L39
 313              	.LVL29:
 314              	.L44:
 100:.\wifi.c      ****             return 0;
 315              		.loc 1 100 0
 316 0022 0020     		mov	r0, #0
 317 0024 21E0     		b	.L40
 318              	.LVL30:
 319              	.L39:
 320 0026 0133     		add	r3, r3, #1
 321              	.LVL31:
  97:.\wifi.c      ****     {
 322              		.loc 1 97 0 discriminator 2
 323 0028 042B     		cmp	r3, #4
 324 002a F6D1     		bne	.L41
 325 002c 0024     		mov	r4, #0
 326              	.L42:
 327              	.LVL32:
 101:.\wifi.c      ****     }
 102:.\wifi.c      **** 
 103:.\wifi.c      ****     //Så længde man ikke mødder ":" i inputString læses dataene over i bytesLength_char så der
 104:.\wifi.c      ****     char bytesLength_char[4];
 105:.\wifi.c      ****     uint8 len = 0;
 106:.\wifi.c      ****     uint8 bytesPos = 0;
 107:.\wifi.c      ****     uint8 dataPos = 0;
 108:.\wifi.c      ****     while(inputString[(bytesPos + 5)]!=':')
 328              		.loc 1 108 0
 329 002e 3319     		add	r3, r6, r4
 330 0030 5B79     		ldrb	r3, [r3, #5]
 331 0032 01A8     		add	r0, sp, #4
 332 0034 3A2B     		cmp	r3, #58
 333 0036 03D0     		beq	.L49
ARM GAS  C:\temp\ccVDdllL.s 			page 9


 109:.\wifi.c      ****     {
 110:.\wifi.c      ****         bytesLength_char[bytesPos] = inputString[bytesPos+5];
 334              		.loc 1 110 0
 335 0038 0355     		strb	r3, [r0, r4]
 111:.\wifi.c      ****         bytesPos++;
 336              		.loc 1 111 0
 337 003a 0134     		add	r4, r4, #1
 338              	.LVL33:
 339 003c E4B2     		uxtb	r4, r4
 340              	.LVL34:
 341 003e F6E7     		b	.L42
 342              	.L49:
 112:.\wifi.c      ****     }
 113:.\wifi.c      ****     bytesLength_char[bytesPos] = 0;
 343              		.loc 1 113 0
 344 0040 0025     		mov	r5, #0
 345 0042 0555     		strb	r5, [r0, r4]
 114:.\wifi.c      **** 
 115:.\wifi.c      ****     //mængde data aflæses og gemmes i len
 116:.\wifi.c      ****     len = atoi(bytesLength_char);
 346              		.loc 1 116 0
 347 0044 FFF7FEFF 		bl	atoi
 348              	.LVL35:
 349 0048 C3B2     		uxtb	r3, r0
 350              	.LVL36:
 117:.\wifi.c      ****     if(len <= 0)
 351              		.loc 1 117 0
 352 004a AB42     		cmp	r3, r5
 353 004c E9D0     		beq	.L44
 354              	.LVL37:
 118:.\wifi.c      ****         return 0;
 119:.\wifi.c      ****     
 120:.\wifi.c      ****     //data overføres fra den modtagne string og over i 
 121:.\wifi.c      ****     bytesPos++;
 122:.\wifi.c      ****     dataPos = bytesPos + 5;
 355              		.loc 1 122 0
 356 004e 0634     		add	r4, r4, #6
 357              	.LVL38:
 358 0050 E4B2     		uxtb	r4, r4
 359              	.LVL39:
 360              	.L45:
 361 0052 3219     		add	r2, r6, r4
 123:.\wifi.c      ****     for(i=0; i<len; i++)        //f.eks. +IPD,8:Hello123   --> len = 8.                  
 124:.\wifi.c      ****     {
 125:.\wifi.c      ****            data[i] = inputString[(i+dataPos)];
 362              		.loc 1 125 0 discriminator 3
 363 0054 525D     		ldrb	r2, [r2, r5]
 364 0056 7A55     		strb	r2, [r7, r5]
 365              	.LVL40:
 366 0058 0135     		add	r5, r5, #1
 367              	.LVL41:
 123:.\wifi.c      ****     for(i=0; i<len; i++)        //f.eks. +IPD,8:Hello123   --> len = 8.                  
 368              		.loc 1 123 0 discriminator 3
 369 005a EAB2     		uxtb	r2, r5
 370 005c 9A42     		cmp	r2, r3
 371 005e F8D3     		bcc	.L45
 126:.\wifi.c      ****     }
ARM GAS  C:\temp\ccVDdllL.s 			page 10


 127:.\wifi.c      ****     
 128:.\wifi.c      ****     data[dataPos + len] = 0;        //afslutter arrayet ved pladsen efter det sidst modtagne data.
 372              		.loc 1 128 0
 373 0060 0022     		mov	r2, #0
 374 0062 C0B2     		uxtb	r0, r0
 375 0064 3C19     		add	r4, r7, r4
 376              	.LVL42:
 377 0066 2254     		strb	r2, [r4, r0]
 129:.\wifi.c      ****     
 130:.\wifi.c      ****     return len;
 378              		.loc 1 130 0
 379 0068 181C     		mov	r0, r3
 380              	.LVL43:
 381              	.L40:
 131:.\wifi.c      **** }
 382              		.loc 1 131 0
 383 006a 05B0     		add	sp, sp, #20
 384              		@ sp needed
 385              	.LVL44:
 386              	.LVL45:
 387 006c F0BD     		pop	{r4, r5, r6, r7, pc}
 388              	.L51:
 389 006e C046     		.align	2
 390              	.L50:
 391 0070 00000000 		.word	.LC8
 392              		.cfi_endproc
 393              	.LFE37:
 394              		.size	receiveDataDevKit, .-receiveDataDevKit
 395              		.section	.text.updatePlantData,"ax",%progbits
 396              		.align	1
 397              		.global	updatePlantData
 398              		.code	16
 399              		.thumb_func
 400              		.type	updatePlantData, %function
 401              	updatePlantData:
 402              	.LFB38:
 132:.\wifi.c      **** 
 133:.\wifi.c      **** void updatePlantData(char* inputString)      //det er kun Moisture og Rotate der kan sættes, reste
 134:.\wifi.c      **** {
 403              		.loc 1 134 0
 404              		.cfi_startproc
 405              	.LVL46:
 406 0000 F0B5     		push	{r4, r5, r6, r7, lr}
 407              		.cfi_def_cfa_offset 20
 408              		.cfi_offset 4, -20
 409              		.cfi_offset 5, -16
 410              		.cfi_offset 6, -12
 411              		.cfi_offset 7, -8
 412              		.cfi_offset 14, -4
 413 0002 051C     		mov	r5, r0
 414              	.LVL47:
 415 0004 C5B0     		sub	sp, sp, #276
 416              		.cfi_def_cfa_offset 296
 417              	.LVL48:
 418              	.L53:
 135:.\wifi.c      ****     int i = 0;
 136:.\wifi.c      ****     char plantMoist[4];
ARM GAS  C:\temp\ccVDdllL.s 			page 11


 137:.\wifi.c      ****     char plantRotate[4];
 138:.\wifi.c      ****     char dataBuf[255];  ///string med data modtaget fra DevKittet
 139:.\wifi.c      ****     char value_char[8];
 140:.\wifi.c      ****     uint8 plantIDLocal;
 141:.\wifi.c      ****     uint8 valueMoist = 0;
 142:.\wifi.c      ****     uint8 valueRotate = 0;
 143:.\wifi.c      **** 
 144:.\wifi.c      ****     while(receiveDataDevKit(inputString,dataBuf) == 0u);
 419              		.loc 1 144 0 discriminator 1
 420 0006 04AC     		add	r4, sp, #16
 421 0008 281C     		mov	r0, r5
 422 000a 211C     		mov	r1, r4
 423 000c FFF7FEFF 		bl	receiveDataDevKit
 424              	.LVL49:
 425 0010 0028     		cmp	r0, #0
 426 0012 F8D0     		beq	.L53
 145:.\wifi.c      ****     //M1065R1099  -- Protokollen kan opdateres og gøres mere effectiv, evt. blot sende chars over 
 146:.\wifi.c      ****     plantIDLocal = dataBuf[1];  //værdien på index 1 modtaget fra devkit gemmes som plantens ID. 
 427              		.loc 1 146 0
 428 0014 6778     		ldrb	r7, [r4, #1]
 429              	.LVL50:
 147:.\wifi.c      **** 
 148:.\wifi.c      ****     for(i=0;i<3;i++)
 149:.\wifi.c      ****         value_char[i] = dataBuf[i+2];   //Tager moist value
 430              		.loc 1 149 0
 431 0016 A678     		ldrb	r6, [r4, #2]
 432              	.LVL51:
 433 0018 E078     		ldrb	r0, [r4, #3]
 434              	.LVL52:
 435 001a 2279     		ldrb	r2, [r4, #4]
 436              	.LVL53:
 150:.\wifi.c      ****     for(i=0;i<3;i++)
 151:.\wifi.c      ****         value_char[i+3] = dataBuf[i+7]; //tager rotate value
 437              		.loc 1 151 0
 438 001c E579     		ldrb	r5, [r4, #7]
 439              	.LVL54:
 440 001e 217A     		ldrb	r1, [r4, #8]
 441              	.LVL55:
 442 0020 637A     		ldrb	r3, [r4, #9]
 443              	.LVL56:
 152:.\wifi.c      ****         
 153:.\wifi.c      ****     value_char[6] = 0;
 154:.\wifi.c      ****     
 155:.\wifi.c      ****     if (plantIDLocal >= 0 || plantID == '-') //plante IDen valideres
 156:.\wifi.c      ****     {
 157:.\wifi.c      ****         plantID = plantIDLocal;
 444              		.loc 1 157 0
 445 0022 114C     		ldr	r4, .L57
 446 0024 2770     		strb	r7, [r4]
 447              	.LVL57:
 158:.\wifi.c      ****         
 159:.\wifi.c      ****         for(i=0;i<3;i++)
 160:.\wifi.c      ****         {
 161:.\wifi.c      ****             plantMoist[i] = value_char[i];
 448              		.loc 1 161 0
 449 0026 6C46     		mov	r4, sp
 450 0028 2670     		strb	r6, [r4]
ARM GAS  C:\temp\ccVDdllL.s 			page 12


 162:.\wifi.c      ****             plantRotate[i] = value_char[i+3];
 451              		.loc 1 162 0
 452 002a 01AC     		add	r4, sp, #4
 453 002c 2570     		strb	r5, [r4]
 454              	.LVL58:
 161:.\wifi.c      ****             plantRotate[i] = value_char[i+3];
 455              		.loc 1 161 0
 456 002e 6D46     		mov	r5, sp
 457              		.loc 1 162 0
 458 0030 A370     		strb	r3, [r4, #2]
 163:.\wifi.c      ****         }
 164:.\wifi.c      **** 
 165:.\wifi.c      ****         plantMoist[3] = 0;
 459              		.loc 1 165 0
 460 0032 0023     		mov	r3, #0
 161:.\wifi.c      ****             plantRotate[i] = value_char[i+3];
 461              		.loc 1 161 0
 462 0034 6870     		strb	r0, [r5, #1]
 166:.\wifi.c      ****         plantRotate[3] = 0;
 167:.\wifi.c      **** 
 168:.\wifi.c      ****         valueMoist = atoi(plantMoist);       //data fra dataBuf læses fra pladserne [2-4] hvor der
 463              		.loc 1 168 0
 464 0036 6846     		mov	r0, sp
 161:.\wifi.c      ****             plantRotate[i] = value_char[i+3];
 465              		.loc 1 161 0
 466 0038 AA70     		strb	r2, [r5, #2]
 165:.\wifi.c      ****         plantRotate[3] = 0;
 467              		.loc 1 165 0
 468 003a EB70     		strb	r3, [r5, #3]
 166:.\wifi.c      ****         plantRotate[3] = 0;
 469              		.loc 1 166 0
 470 003c E370     		strb	r3, [r4, #3]
 162:.\wifi.c      ****         }
 471              		.loc 1 162 0
 472 003e 6170     		strb	r1, [r4, #1]
 473              	.LVL59:
 474              		.loc 1 168 0
 475 0040 FFF7FEFF 		bl	atoi
 476              	.LVL60:
 477 0044 051C     		mov	r5, r0
 478              	.LVL61:
 169:.\wifi.c      ****         valueRotate = atoi(plantRotate);     
 479              		.loc 1 169 0
 480 0046 201C     		mov	r0, r4
 481 0048 FFF7FEFF 		bl	atoi
 482              	.LVL62:
 170:.\wifi.c      ****     
 171:.\wifi.c      ****         if(valueMoist >=10 && valueMoist <=100)             //moisture samt rotate validering
 483              		.loc 1 171 0
 484 004c 2B1C     		mov	r3, r5
 485 004e 0A3B     		sub	r3, r3, #10
 486 0050 DBB2     		uxtb	r3, r3
 169:.\wifi.c      ****         valueRotate = atoi(plantRotate);     
 487              		.loc 1 169 0
 488 0052 C2B2     		uxtb	r2, r0
 489              	.LVL63:
 490              		.loc 1 171 0
ARM GAS  C:\temp\ccVDdllL.s 			page 13


 491 0054 5A2B     		cmp	r3, #90
 492 0056 01D8     		bhi	.L54
 172:.\wifi.c      ****             wantedMoisture = valueMoist;
 493              		.loc 1 172 0
 494 0058 044B     		ldr	r3, .L57+4
 495 005a 1D70     		strb	r5, [r3]
 496              	.L54:
 173:.\wifi.c      **** 
 174:.\wifi.c      ****         if(valueRotate >=0 && valueRotate <= 200)
 497              		.loc 1 174 0
 498 005c C82A     		cmp	r2, #200
 499 005e 01D8     		bhi	.L52
 175:.\wifi.c      ****             wantedRotate = valueRotate;
 500              		.loc 1 175 0
 501 0060 034B     		ldr	r3, .L57+8
 502 0062 1870     		strb	r0, [r3]
 503              	.L52:
 176:.\wifi.c      ****     }
 177:.\wifi.c      ****     else
 178:.\wifi.c      ****         return;
 179:.\wifi.c      **** }
 504              		.loc 1 179 0
 505 0064 45B0     		add	sp, sp, #276
 506              		@ sp needed
 507              	.LVL64:
 508              	.LVL65:
 509 0066 F0BD     		pop	{r4, r5, r6, r7, pc}
 510              	.L58:
 511              		.align	2
 512              	.L57:
 513 0068 00000000 		.word	.LANCHOR1
 514 006c 00000000 		.word	wantedMoisture
 515 0070 00000000 		.word	wantedRotate
 516              		.cfi_endproc
 517              	.LFE38:
 518              		.size	updatePlantData, .-updatePlantData
 519              		.section	.text.sendSensorData,"ax",%progbits
 520              		.align	1
 521              		.global	sendSensorData
 522              		.code	16
 523              		.thumb_func
 524              		.type	sendSensorData, %function
 525              	sendSensorData:
 526              	.LFB39:
 180:.\wifi.c      **** 
 181:.\wifi.c      **** void sendSensorData(struct updateParameters sensors) // OBS der er tilføjes et mellemrum " " i slu
 182:.\wifi.c      **** {
 527              		.loc 1 182 0
 528              		.cfi_startproc
 529 0000 F0B5     		push	{r4, r5, r6, r7, lr}
 530              		.cfi_def_cfa_offset 20
 531              		.cfi_offset 4, -20
 532              		.cfi_offset 5, -16
 533              		.cfi_offset 6, -12
 534              		.cfi_offset 7, -8
 535              		.cfi_offset 14, -4
 536 0002 141C     		add	r4, r2, #0
ARM GAS  C:\temp\ccVDdllL.s 			page 14


 537 0004 82B2     		uxth	r2, r0
 538              	.LVL66:
 183:.\wifi.c      ****     uint16 length=0;
 184:.\wifi.c      ****     char WiFiString[128]; //lokal string til behandling af sprintf
 185:.\wifi.c      ****     char sendString[128];
 186:.\wifi.c      ****     //Sender alt i 1 lang string
 187:.\wifi.c      ****     char moistureString[16];
 188:.\wifi.c      ****     char waterString[16];
 189:.\wifi.c      ****     char lightString[16];
 190:.\wifi.c      ****     char batteryString[16];
 191:.\wifi.c      ****     char temperatureString[16];
 192:.\wifi.c      ****     
 193:.\wifi.c      ****     //Moisture fejlhåndtering
 194:.\wifi.c      ****     if(sensors.currentMoisture > 99)
 539              		.loc 1 194 0
 540 0006 13B2     		sxth	r3, r2
 182:.\wifi.c      ****     uint16 length=0;
 541              		.loc 1 182 0
 542 0008 DDB0     		sub	sp, sp, #372
 543              		.cfi_def_cfa_offset 392
 544 000a 050C     		lsr	r5, r0, #16
 545              	.LVL67:
 546 000c 8FB2     		uxth	r7, r1
 547              	.LVL68:
 548 000e 0E0C     		lsr	r6, r1, #16
 549              	.LVL69:
 550 0010 A4B2     		uxth	r4, r4
 551              	.LVL70:
 552              		.loc 1 194 0
 553 0012 632B     		cmp	r3, #99
 554 0014 04DD     		ble	.L60
 195:.\wifi.c      ****         sprintf(moistureString,"M%c%d",plantID,sensors.currentMoisture);
 555              		.loc 1 195 0
 556 0016 6C4A     		ldr	r2, .L83
 557              	.LVL71:
 558 0018 08A8     		add	r0, sp, #32
 559 001a 1278     		ldrb	r2, [r2]
 560 001c 6B49     		ldr	r1, .L83+4
 561 001e 0FE0     		b	.L78
 562              	.LVL72:
 563              	.L60:
 196:.\wifi.c      ****     else if(sensors.currentMoisture <= 99 && sensors.currentMoisture >= 10)
 564              		.loc 1 196 0
 565 0020 90B2     		uxth	r0, r2
 566 0022 021C     		mov	r2, r0
 567              	.LVL73:
 568 0024 0A3A     		sub	r2, r2, #10
 569 0026 592A     		cmp	r2, #89
 570 0028 04D8     		bhi	.L62
 197:.\wifi.c      ****         sprintf(moistureString,"M%c0%d",plantID,sensors.currentMoisture);
 571              		.loc 1 197 0
 572 002a 674A     		ldr	r2, .L83
 573 002c 08A8     		add	r0, sp, #32
 574              	.LVL74:
 575 002e 1278     		ldrb	r2, [r2]
 576 0030 6749     		ldr	r1, .L83+8
 577 0032 05E0     		b	.L78
ARM GAS  C:\temp\ccVDdllL.s 			page 15


 578              	.L62:
 198:.\wifi.c      ****     else if(sensors.currentMoisture < 10 && sensors.currentMoisture >=0)
 579              		.loc 1 198 0
 580 0034 0928     		cmp	r0, #9
 581 0036 05D8     		bhi	.L61
 199:.\wifi.c      ****         sprintf(moistureString,"M%c00%d",plantID,sensors.currentMoisture);
 582              		.loc 1 199 0
 583 0038 634A     		ldr	r2, .L83
 584 003a 6649     		ldr	r1, .L83+12
 585 003c 1278     		ldrb	r2, [r2]
 586 003e 08A8     		add	r0, sp, #32
 587              	.L78:
 588 0040 FFF7FEFF 		bl	sprintf
 589              	.LVL75:
 590              	.L61:
 200:.\wifi.c      ****         
 201:.\wifi.c      ****     //Water fejlhåndtering    
 202:.\wifi.c      ****     if(sensors.currentWater > 99)
 591              		.loc 1 202 0
 592 0044 3BB2     		sxth	r3, r7
 593 0046 632B     		cmp	r3, #99
 594 0048 04DD     		ble	.L63
 203:.\wifi.c      ****         sprintf(waterString,"W%c%d",plantID,sensors.currentWater);
 595              		.loc 1 203 0
 596 004a 5F4A     		ldr	r2, .L83
 597 004c 0CA8     		add	r0, sp, #48
 598 004e 1278     		ldrb	r2, [r2]
 599 0050 6149     		ldr	r1, .L83+16
 600 0052 0FE0     		b	.L79
 601              	.L63:
 204:.\wifi.c      ****     else if(sensors.currentWater <= 99 && sensors.currentWater >= 10)
 602              		.loc 1 204 0
 603 0054 BFB2     		uxth	r7, r7
 604              	.LVL76:
 605 0056 3A1C     		mov	r2, r7
 606 0058 0A3A     		sub	r2, r2, #10
 607 005a 592A     		cmp	r2, #89
 608 005c 04D8     		bhi	.L65
 205:.\wifi.c      ****         sprintf(waterString,"W%c0%d",plantID,sensors.currentWater);
 609              		.loc 1 205 0
 610 005e 5A4A     		ldr	r2, .L83
 611 0060 0CA8     		add	r0, sp, #48
 612 0062 1278     		ldrb	r2, [r2]
 613 0064 5D49     		ldr	r1, .L83+20
 614 0066 05E0     		b	.L79
 615              	.L65:
 206:.\wifi.c      ****     else if(sensors.currentWater < 10 && sensors.currentWater >=0)
 616              		.loc 1 206 0
 617 0068 092F     		cmp	r7, #9
 618 006a 05D8     		bhi	.L64
 207:.\wifi.c      ****         sprintf(waterString,"W%c00%d",plantID,sensors.currentWater);
 619              		.loc 1 207 0
 620 006c 564A     		ldr	r2, .L83
 621 006e 5C49     		ldr	r1, .L83+24
 622 0070 1278     		ldrb	r2, [r2]
 623 0072 0CA8     		add	r0, sp, #48
 624              	.L79:
ARM GAS  C:\temp\ccVDdllL.s 			page 16


 625 0074 FFF7FEFF 		bl	sprintf
 626              	.LVL77:
 627              	.L64:
 208:.\wifi.c      ****     
 209:.\wifi.c      ****     //Light fejlhåndtering    
 210:.\wifi.c      ****     if(sensors.currentLight > 99)
 628              		.loc 1 210 0
 629 0078 33B2     		sxth	r3, r6
 630 007a 10AF     		add	r7, sp, #64
 631 007c 632B     		cmp	r3, #99
 632 007e 04DD     		ble	.L66
 211:.\wifi.c      ****         sprintf(lightString,"L%c%d",plantID,sensors.currentLight);
 633              		.loc 1 211 0
 634 0080 514A     		ldr	r2, .L83
 635 0082 381C     		mov	r0, r7
 636 0084 1278     		ldrb	r2, [r2]
 637 0086 5749     		ldr	r1, .L83+28
 638 0088 0FE0     		b	.L80
 639              	.L66:
 212:.\wifi.c      ****     else if(sensors.currentLight <= 99 && sensors.currentLight >= 10)
 640              		.loc 1 212 0
 641 008a B6B2     		uxth	r6, r6
 642              	.LVL78:
 643 008c 321C     		mov	r2, r6
 644 008e 0A3A     		sub	r2, r2, #10
 645 0090 592A     		cmp	r2, #89
 646 0092 04D8     		bhi	.L68
 213:.\wifi.c      ****         sprintf(lightString,"L%c0%d",plantID,sensors.currentLight);
 647              		.loc 1 213 0
 648 0094 4C4A     		ldr	r2, .L83
 649 0096 381C     		mov	r0, r7
 650 0098 1278     		ldrb	r2, [r2]
 651 009a 5349     		ldr	r1, .L83+32
 652 009c 05E0     		b	.L80
 653              	.L68:
 214:.\wifi.c      ****     else if(sensors.currentLight < 10 && sensors.currentLight >=0)
 654              		.loc 1 214 0
 655 009e 092E     		cmp	r6, #9
 656 00a0 05D8     		bhi	.L67
 215:.\wifi.c      ****         sprintf(lightString,"L%c00%d",plantID,sensors.currentLight);
 657              		.loc 1 215 0
 658 00a2 381C     		mov	r0, r7
 659 00a4 484A     		ldr	r2, .L83
 660 00a6 5149     		ldr	r1, .L83+36
 661 00a8 1278     		ldrb	r2, [r2]
 662              	.L80:
 663 00aa FFF7FEFF 		bl	sprintf
 664              	.LVL79:
 665              	.L67:
 216:.\wifi.c      ****         
 217:.\wifi.c      ****     //Battery fejlhåndtering    
 218:.\wifi.c      ****     if(sensors.currentBattery > 99)
 666              		.loc 1 218 0
 667 00ae 2BB2     		sxth	r3, r5
 668 00b0 632B     		cmp	r3, #99
 669 00b2 04DD     		ble	.L69
 219:.\wifi.c      ****         sprintf(batteryString,"B%c%d",plantID,sensors.currentBattery);
ARM GAS  C:\temp\ccVDdllL.s 			page 17


 670              		.loc 1 219 0
 671 00b4 444A     		ldr	r2, .L83
 672 00b6 14A8     		add	r0, sp, #80
 673 00b8 1278     		ldrb	r2, [r2]
 674 00ba 4D49     		ldr	r1, .L83+40
 675 00bc 0FE0     		b	.L81
 676              	.L69:
 220:.\wifi.c      ****     else if(sensors.currentBattery <= 99 && sensors.currentBattery >= 10)
 677              		.loc 1 220 0
 678 00be ADB2     		uxth	r5, r5
 679              	.LVL80:
 680 00c0 2A1C     		mov	r2, r5
 681 00c2 0A3A     		sub	r2, r2, #10
 682 00c4 592A     		cmp	r2, #89
 683 00c6 04D8     		bhi	.L71
 221:.\wifi.c      ****         sprintf(batteryString,"B%c0%d",plantID,sensors.currentBattery);
 684              		.loc 1 221 0
 685 00c8 3F4A     		ldr	r2, .L83
 686 00ca 14A8     		add	r0, sp, #80
 687 00cc 1278     		ldrb	r2, [r2]
 688 00ce 4949     		ldr	r1, .L83+44
 689 00d0 05E0     		b	.L81
 690              	.L71:
 222:.\wifi.c      ****     else if(sensors.currentBattery < 10 && sensors.currentBattery >=0)
 691              		.loc 1 222 0
 692 00d2 092D     		cmp	r5, #9
 693 00d4 05D8     		bhi	.L70
 223:.\wifi.c      ****         sprintf(batteryString,"B%c00%d",plantID,sensors.currentBattery);
 694              		.loc 1 223 0
 695 00d6 3C4A     		ldr	r2, .L83
 696 00d8 4749     		ldr	r1, .L83+48
 697 00da 1278     		ldrb	r2, [r2]
 698 00dc 14A8     		add	r0, sp, #80
 699              	.L81:
 700 00de FFF7FEFF 		bl	sprintf
 701              	.LVL81:
 702              	.L70:
 224:.\wifi.c      ****          
 225:.\wifi.c      ****     //Temperature fejlhåndtering    
 226:.\wifi.c      ****     if(sensors.currentTemperature > 99)
 703              		.loc 1 226 0
 704 00e2 23B2     		sxth	r3, r4
 705 00e4 632B     		cmp	r3, #99
 706 00e6 04DD     		ble	.L72
 227:.\wifi.c      ****         sprintf(temperatureString,"T%c%d",plantID,sensors.currentTemperature);
 707              		.loc 1 227 0
 708 00e8 374A     		ldr	r2, .L83
 709 00ea 18A8     		add	r0, sp, #96
 710 00ec 1278     		ldrb	r2, [r2]
 711 00ee 4349     		ldr	r1, .L83+52
 712 00f0 0FE0     		b	.L82
 713              	.L72:
 228:.\wifi.c      ****     else if(sensors.currentTemperature <= 99 && sensors.currentTemperature >= 10)
 714              		.loc 1 228 0
 715 00f2 A4B2     		uxth	r4, r4
 716              	.LVL82:
 717 00f4 221C     		mov	r2, r4
ARM GAS  C:\temp\ccVDdllL.s 			page 18


 718 00f6 0A3A     		sub	r2, r2, #10
 719 00f8 592A     		cmp	r2, #89
 720 00fa 04D8     		bhi	.L74
 229:.\wifi.c      ****         sprintf(temperatureString,"T%c0%d",plantID,sensors.currentTemperature);
 721              		.loc 1 229 0
 722 00fc 324A     		ldr	r2, .L83
 723 00fe 18A8     		add	r0, sp, #96
 724 0100 1278     		ldrb	r2, [r2]
 725 0102 3F49     		ldr	r1, .L83+56
 726 0104 05E0     		b	.L82
 727              	.L74:
 230:.\wifi.c      ****     else if(sensors.currentTemperature < 10 && sensors.currentTemperature >=0)
 728              		.loc 1 230 0
 729 0106 092C     		cmp	r4, #9
 730 0108 05D8     		bhi	.L73
 231:.\wifi.c      ****         sprintf(temperatureString,"T%c00%d",plantID,sensors.currentTemperature);
 731              		.loc 1 231 0
 732 010a 2F4A     		ldr	r2, .L83
 733 010c 3D49     		ldr	r1, .L83+60
 734 010e 1278     		ldrb	r2, [r2]
 735 0110 18A8     		add	r0, sp, #96
 736              	.L82:
 737 0112 FFF7FEFF 		bl	sprintf
 738              	.LVL83:
 739              	.L73:
 232:.\wifi.c      ****         
 233:.\wifi.c      ****     sprintf(sendString,"%s%s%s%s%s",moistureString,waterString,lightString,temperatureString,batter
 740              		.loc 1 233 0
 741 0116 18AB     		add	r3, sp, #96
 742 0118 0193     		str	r3, [sp, #4]
 743 011a 14AB     		add	r3, sp, #80
 744 011c 3A49     		ldr	r1, .L83+64
 745 011e 08AA     		add	r2, sp, #32
 746 0120 0293     		str	r3, [sp, #8]
 747 0122 0097     		str	r7, [sp]
 748 0124 0CAB     		add	r3, sp, #48
 749 0126 3CA8     		add	r0, sp, #240
 750 0128 FFF7FEFF 		bl	sprintf
 751              	.LVL84:
 234:.\wifi.c      ****     
 235:.\wifi.c      ****     length=strlen(sendString);                          //længden af den mængde data man vil send
 752              		.loc 1 235 0
 753 012c 3CA8     		add	r0, sp, #240
 754 012e FFF7FEFF 		bl	strlen
 755              	.LVL85:
 236:.\wifi.c      ****     sprintf(WiFiString,"AT+CIPSEND=%d\r\n",length);     //AT kommando for at sende, syntax er AT+CI
 756              		.loc 1 236 0
 757 0132 364D     		ldr	r5, .L83+68
 758 0134 84B2     		uxth	r4, r0
 759 0136 291C     		mov	r1, r5
 760 0138 221C     		mov	r2, r4
 761 013a 1CA8     		add	r0, sp, #112
 762              	.LVL86:
 763 013c FFF7FEFF 		bl	sprintf
 764              	.LVL87:
 237:.\wifi.c      ****     CyDelay(50);
 765              		.loc 1 237 0
ARM GAS  C:\temp\ccVDdllL.s 			page 19


 766 0140 3220     		mov	r0, #50
 767 0142 FFF7FEFF 		bl	CyDelay
 768              	.LVL88:
 238:.\wifi.c      ****     UART_PutString(WiFiString);                         //sendString printes på uarten
 769              		.loc 1 238 0
 770 0146 1CA8     		add	r0, sp, #112
 771 0148 FFF7FEFF 		bl	UART_PutString
 772              	.LVL89:
 239:.\wifi.c      ****     CyDelay(100);
 773              		.loc 1 239 0
 774 014c 6420     		mov	r0, #100
 775 014e FFF7FEFF 		bl	CyDelay
 776              	.LVL90:
 240:.\wifi.c      ****     if(findResponse("link"))                            //hvis den ikke er forbundet, forbinder den
 777              		.loc 1 240 0
 778 0152 2F48     		ldr	r0, .L83+72
 779 0154 FFF7FEFF 		bl	findResponse
 780              	.LVL91:
 781 0158 0028     		cmp	r0, #0
 782 015a 26D0     		beq	.L75
 241:.\wifi.c      ****     {
 242:.\wifi.c      ****         CyDelay(300);
 783              		.loc 1 242 0
 784 015c 9620     		mov	r0, #150
 785 015e 4000     		lsl	r0, r0, #1
 786 0160 FFF7FEFF 		bl	CyDelay
 787              	.LVL92:
 243:.\wifi.c      ****         
 244:.\wifi.c      ****         sprintf(WiFiString,"AT+CIPSTART=\"TCP\",\"%s\",%d\r\n",DevKitIP, DevKitPortNr); //tilslut n
 788              		.loc 1 244 0
 789 0164 2B49     		ldr	r1, .L83+76
 790 0166 2C4A     		ldr	r2, .L83+80
 791 0168 2C4B     		ldr	r3, .L83+84
 792 016a 1CA8     		add	r0, sp, #112
 793 016c FFF7FEFF 		bl	sprintf
 794              	.LVL93:
 245:.\wifi.c      ****         CyDelay(50);
 795              		.loc 1 245 0
 796 0170 3220     		mov	r0, #50
 797 0172 FFF7FEFF 		bl	CyDelay
 798              	.LVL94:
 246:.\wifi.c      ****         UART_PutString(WiFiString);                                                     //sendStrin
 799              		.loc 1 246 0
 800 0176 1CA8     		add	r0, sp, #112
 801 0178 FFF7FEFF 		bl	UART_PutString
 802              	.LVL95:
 247:.\wifi.c      ****         CyDelay(1000);
 803              		.loc 1 247 0
 804 017c FA20     		mov	r0, #250
 805 017e 8000     		lsl	r0, r0, #2
 806 0180 FFF7FEFF 		bl	CyDelay
 807              	.LVL96:
 808              	.L76:
 248:.\wifi.c      ****         
 249:.\wifi.c      ****         while(findResponse("OK"));                      //venter på OK svar
 809              		.loc 1 249 0 discriminator 1
 810 0184 2648     		ldr	r0, .L83+88
ARM GAS  C:\temp\ccVDdllL.s 			page 20


 811 0186 FFF7FEFF 		bl	findResponse
 812              	.LVL97:
 813 018a 0028     		cmp	r0, #0
 814 018c FAD1     		bne	.L76
 250:.\wifi.c      ****         sprintf(WiFiString,"AT+CIPSEND=%d\r\n",length);
 815              		.loc 1 250 0
 816 018e 291C     		mov	r1, r5
 817 0190 221C     		mov	r2, r4
 818 0192 1CA8     		add	r0, sp, #112
 819 0194 FFF7FEFF 		bl	sprintf
 820              	.LVL98:
 251:.\wifi.c      ****         CyDelay(50);
 821              		.loc 1 251 0
 822 0198 3220     		mov	r0, #50
 823 019a FFF7FEFF 		bl	CyDelay
 824              	.LVL99:
 252:.\wifi.c      ****         UART_PutString(WiFiString);
 825              		.loc 1 252 0
 826 019e 1CA8     		add	r0, sp, #112
 827 01a0 FFF7FEFF 		bl	UART_PutString
 828              	.LVL100:
 253:.\wifi.c      ****         CyDelay(100);
 829              		.loc 1 253 0
 830 01a4 6420     		mov	r0, #100
 831 01a6 FFF7FEFF 		bl	CyDelay
 832              	.LVL101:
 833              	.L75:
 254:.\wifi.c      ****         UART_PutString(sendString);
 255:.\wifi.c      ****     }
 256:.\wifi.c      ****     else
 257:.\wifi.c      ****         UART_PutString(sendString);                     //printer hvis den er forbundet til servere
 834              		.loc 1 257 0
 835 01aa 3CA8     		add	r0, sp, #240
 836 01ac FFF7FEFF 		bl	UART_PutString
 837              	.LVL102:
 258:.\wifi.c      ****     
 259:.\wifi.c      ****     updatePlantData(uartString);
 838              		.loc 1 259 0
 839 01b0 1C48     		ldr	r0, .L83+92
 840 01b2 FFF7FEFF 		bl	updatePlantData
 841              	.LVL103:
 260:.\wifi.c      **** 
 261:.\wifi.c      ****     CyDelay(2000);
 842              		.loc 1 261 0
 843 01b6 FA20     		mov	r0, #250
 844 01b8 C000     		lsl	r0, r0, #3
 845 01ba FFF7FEFF 		bl	CyDelay
 846              	.LVL104:
 262:.\wifi.c      ****     UART_PutString("AT+CIPCLOSE\r\n");  //lukker forbindelse til tcp serveren(devkit)  
 847              		.loc 1 262 0
 848 01be 1A48     		ldr	r0, .L83+96
 849 01c0 FFF7FEFF 		bl	UART_PutString
 850              	.LVL105:
 263:.\wifi.c      **** }
 851              		.loc 1 263 0
 852 01c4 5DB0     		add	sp, sp, #372
 853              		@ sp needed
ARM GAS  C:\temp\ccVDdllL.s 			page 21


 854              	.LVL106:
 855 01c6 F0BD     		pop	{r4, r5, r6, r7, pc}
 856              	.L84:
 857              		.align	2
 858              	.L83:
 859 01c8 00000000 		.word	.LANCHOR1
 860 01cc 05000000 		.word	.LC13
 861 01d0 0B000000 		.word	.LC16
 862 01d4 12000000 		.word	.LC18
 863 01d8 1A000000 		.word	.LC20
 864 01dc 20000000 		.word	.LC22
 865 01e0 27000000 		.word	.LC24
 866 01e4 2F000000 		.word	.LC26
 867 01e8 35000000 		.word	.LC28
 868 01ec 3C000000 		.word	.LC30
 869 01f0 44000000 		.word	.LC32
 870 01f4 4A000000 		.word	.LC34
 871 01f8 51000000 		.word	.LC36
 872 01fc 59000000 		.word	.LC38
 873 0200 5F000000 		.word	.LC40
 874 0204 66000000 		.word	.LC42
 875 0208 6E000000 		.word	.LC44
 876 020c 79000000 		.word	.LC46
 877 0210 89000000 		.word	.LC48
 878 0214 8E000000 		.word	.LC50
 879 0218 AA000000 		.word	.LC52
 880 021c B8220000 		.word	8888
 881 0220 B8000000 		.word	.LC54
 882 0224 00010000 		.word	.LANCHOR2
 883 0228 BB000000 		.word	.LC57
 884              		.cfi_endproc
 885              	.LFE39:
 886              		.size	sendSensorData, .-sendSensorData
 887              		.section	.text.initPSoC,"ax",%progbits
 888              		.align	1
 889              		.global	initPSoC
 890              		.code	16
 891              		.thumb_func
 892              		.type	initPSoC, %function
 893              	initPSoC:
 894              	.LFB40:
 264:.\wifi.c      **** 
 265:.\wifi.c      **** void initPSoC(char *wifiSSID, char *wifiPASS, char *DevKitIPAdress) //Opstart af WiFi modul tager ~
 266:.\wifi.c      **** {
 895              		.loc 1 266 0
 896              		.cfi_startproc
 897              	.LVL107:
 898 0000 F0B5     		push	{r4, r5, r6, r7, lr}
 899              		.cfi_def_cfa_offset 20
 900              		.cfi_offset 4, -20
 901              		.cfi_offset 5, -16
 902              		.cfi_offset 6, -12
 903              		.cfi_offset 7, -8
 904              		.cfi_offset 14, -4
 905 0002 071C     		mov	r7, r0
 906 0004 C1B0     		sub	sp, sp, #260
 907              		.cfi_def_cfa_offset 280
ARM GAS  C:\temp\ccVDdllL.s 			page 22


 908              		.loc 1 266 0
 909 0006 0D1C     		mov	r5, r1
 910 0008 161C     		mov	r6, r2
 267:.\wifi.c      ****     char sendString[255];                       //char array, så det kan have texten som bliver ko
 268:.\wifi.c      ****     int i = 0;
 269:.\wifi.c      ****    
 270:.\wifi.c      ****     CyGlobalIntEnable;                          //enabler global interrupt
 911              		.loc 1 270 0
 912              	@ 270 ".\wifi.c" 1
 913 000a 62B6     		CPSIE   i
 914              	@ 0 "" 2
 271:.\wifi.c      ****         
 272:.\wifi.c      ****     ADC_SAR_Seq_1_Start();
 915              		.loc 1 272 0
 916              		.code	16
 917 000c FFF7FEFF 		bl	ADC_SAR_Seq_1_Start
 918              	.LVL108:
 273:.\wifi.c      ****     ADC_SAR_Seq_1_StartConvert();
 919              		.loc 1 273 0
 920 0010 FFF7FEFF 		bl	ADC_SAR_Seq_1_StartConvert
 921              	.LVL109:
 274:.\wifi.c      ****     
 275:.\wifi.c      ****     isr_UART_StartEx(UART_ISR);                 //initierer en bruger defineret interrupt service: 
 922              		.loc 1 275 0
 923 0014 3B48     		ldr	r0, .L92
 924 0016 FFF7FEFF 		bl	isr_UART_StartEx
 925              	.LVL110:
 276:.\wifi.c      ****     UART_Start();                               //Initier UARTEN
 926              		.loc 1 276 0
 927 001a FFF7FEFF 		bl	UART_Start
 928              	.LVL111:
 277:.\wifi.c      **** 
 278:.\wifi.c      ****     UART_PutString("AT+CIPCLOSE\r\n");
 929              		.loc 1 278 0
 930 001e 3A48     		ldr	r0, .L92+4
 931 0020 FFF7FEFF 		bl	UART_PutString
 932              	.LVL112:
 279:.\wifi.c      ****     CyDelay(500);
 933              		.loc 1 279 0
 934 0024 FA20     		mov	r0, #250
 935 0026 4000     		lsl	r0, r0, #1
 936 0028 FFF7FEFF 		bl	CyDelay
 937              	.LVL113:
 280:.\wifi.c      ****     
 281:.\wifi.c      ****     UART_PutString("AT+RST\r\n");
 938              		.loc 1 281 0
 939 002c 3748     		ldr	r0, .L92+8
 940 002e FFF7FEFF 		bl	UART_PutString
 941              	.LVL114:
 282:.\wifi.c      ****     CyDelay(3000);
 942              		.loc 1 282 0
 943 0032 3748     		ldr	r0, .L92+12
 944 0034 FFF7FEFF 		bl	CyDelay
 945              	.LVL115:
 283:.\wifi.c      ****     
 284:.\wifi.c      ****     UART_PutString("AT+CWMODE=3\r\n");          //WiFI mode sættes til AP+station mode
 946              		.loc 1 284 0
ARM GAS  C:\temp\ccVDdllL.s 			page 23


 947 0038 3648     		ldr	r0, .L92+16
 948 003a FFF7FEFF 		bl	UART_PutString
 949              	.LVL116:
 285:.\wifi.c      ****     CyDelay(500);
 950              		.loc 1 285 0
 951 003e FA20     		mov	r0, #250
 952 0040 4000     		lsl	r0, r0, #1
 953 0042 FFF7FEFF 		bl	CyDelay
 954              	.LVL117:
 286:.\wifi.c      ****                                      
 287:.\wifi.c      ****     sprintf(sendString,"AT+CWJAP=\"%s\",\"%s\"\r\n",wifiSSID, wifiPASS);    //tilslut net med SSID 
 955              		.loc 1 287 0
 956 0046 3449     		ldr	r1, .L92+20
 957 0048 3A1C     		mov	r2, r7
 958 004a 2B1C     		mov	r3, r5
 959 004c 6846     		mov	r0, sp
 960 004e FFF7FEFF 		bl	sprintf
 961              	.LVL118:
 288:.\wifi.c      ****     CyDelay(50);
 962              		.loc 1 288 0
 963 0052 3220     		mov	r0, #50
 964 0054 FFF7FEFF 		bl	CyDelay
 965              	.LVL119:
 289:.\wifi.c      ****     UART_PutString(sendString);                                         //sendString printes på ua
 966              		.loc 1 289 0
 967 0058 6846     		mov	r0, sp
 968 005a FFF7FEFF 		bl	UART_PutString
 969              	.LVL120:
 290:.\wifi.c      ****     CyDelay(5000);
 970              		.loc 1 290 0
 971 005e 2F48     		ldr	r0, .L92+24
 972 0060 FFF7FEFF 		bl	CyDelay
 973              	.LVL121:
 974 0064 0324     		mov	r4, #3
 975              	.LVL122:
 976              	.L88:
 291:.\wifi.c      ****     
 292:.\wifi.c      ****     for(i=0;i<3;i++)
 293:.\wifi.c      ****     {
 294:.\wifi.c      ****         if(findResponse("OK"))
 977              		.loc 1 294 0
 978 0066 2E48     		ldr	r0, .L92+28
 979 0068 FFF7FEFF 		bl	findResponse
 980              	.LVL123:
 981 006c 0028     		cmp	r0, #0
 982 006e 03D0     		beq	.L86
 295:.\wifi.c      ****         {
 296:.\wifi.c      ****             CyDelay(100);
 983              		.loc 1 296 0
 984 0070 6420     		mov	r0, #100
 985 0072 FFF7FEFF 		bl	CyDelay
 986              	.LVL124:
 297:.\wifi.c      ****             break;
 987              		.loc 1 297 0
 988 0076 11E0     		b	.L87
 989              	.L86:
 298:.\wifi.c      ****         }
ARM GAS  C:\temp\ccVDdllL.s 			page 24


 299:.\wifi.c      ****         else
 300:.\wifi.c      ****         {
 301:.\wifi.c      ****             sprintf(sendString,"AT+CWJAP=\"%s\",\"%s\"\r\n",wifiSSID, wifiPASS);    //tilslut net m
 990              		.loc 1 301 0 discriminator 2
 991 0078 2749     		ldr	r1, .L92+20
 992 007a 3A1C     		mov	r2, r7
 993 007c 2B1C     		mov	r3, r5
 994 007e 6846     		mov	r0, sp
 995 0080 FFF7FEFF 		bl	sprintf
 996              	.LVL125:
 302:.\wifi.c      ****             CyDelay(50);
 997              		.loc 1 302 0 discriminator 2
 998 0084 3220     		mov	r0, #50
 999 0086 FFF7FEFF 		bl	CyDelay
 1000              	.LVL126:
 303:.\wifi.c      ****             UART_PutString(sendString);                                         //sendString printe
 1001              		.loc 1 303 0 discriminator 2
 1002 008a 6846     		mov	r0, sp
 1003 008c FFF7FEFF 		bl	UART_PutString
 1004              	.LVL127:
 1005 0090 013C     		sub	r4, r4, #1
 1006              	.LVL128:
 304:.\wifi.c      ****             CyDelay(5000);
 1007              		.loc 1 304 0 discriminator 2
 1008 0092 2248     		ldr	r0, .L92+24
 1009 0094 FFF7FEFF 		bl	CyDelay
 1010              	.LVL129:
 292:.\wifi.c      ****     {
 1011              		.loc 1 292 0 discriminator 2
 1012 0098 002C     		cmp	r4, #0
 1013 009a E4D1     		bne	.L88
 1014              	.L87:
 305:.\wifi.c      ****         }
 306:.\wifi.c      ****     }
 307:.\wifi.c      ****        
 308:.\wifi.c      ****     CyDelay(100);
 1015              		.loc 1 308 0
 1016 009c 6420     		mov	r0, #100
 1017 009e FFF7FEFF 		bl	CyDelay
 1018              	.LVL130:
 309:.\wifi.c      ****         
 310:.\wifi.c      ****     sprintf(sendString,"AT+CIPSTART=\"TCP\",\"%s\",%d\r\n",DevKitIPAdress, DevKitPortNr); //tilslut
 1019              		.loc 1 310 0
 1020 00a2 204C     		ldr	r4, .L92+32
 1021 00a4 321C     		mov	r2, r6
 1022 00a6 211C     		mov	r1, r4
 1023 00a8 1F4B     		ldr	r3, .L92+36
 1024 00aa 6846     		mov	r0, sp
 1025 00ac FFF7FEFF 		bl	sprintf
 1026              	.LVL131:
 311:.\wifi.c      ****     CyDelay(50);
 1027              		.loc 1 311 0
 1028 00b0 3220     		mov	r0, #50
 1029 00b2 FFF7FEFF 		bl	CyDelay
 1030              	.LVL132:
 312:.\wifi.c      ****     UART_PutString(sendString);                                                     //sendString pr
 1031              		.loc 1 312 0
ARM GAS  C:\temp\ccVDdllL.s 			page 25


 1032 00b6 6846     		mov	r0, sp
 1033 00b8 FFF7FEFF 		bl	UART_PutString
 1034              	.LVL133:
 313:.\wifi.c      ****     CyDelay(1000);
 1035              		.loc 1 313 0
 1036 00bc FA20     		mov	r0, #250
 1037 00be 8000     		lsl	r0, r0, #2
 1038 00c0 FFF7FEFF 		bl	CyDelay
 1039              	.LVL134:
 1040 00c4 0325     		mov	r5, #3
 1041              	.LVL135:
 1042              	.L91:
 314:.\wifi.c      **** 
 315:.\wifi.c      ****     for(i=0;i<3;i++)                            //forbinde til DevKit
 316:.\wifi.c      ****     {
 317:.\wifi.c      ****         if(findResponse("OK"))
 1043              		.loc 1 317 0
 1044 00c6 1648     		ldr	r0, .L92+28
 1045 00c8 FFF7FEFF 		bl	findResponse
 1046              	.LVL136:
 1047 00cc 0028     		cmp	r0, #0
 1048 00ce 03D0     		beq	.L89
 318:.\wifi.c      ****         {
 319:.\wifi.c      ****             CyDelay(100);
 1049              		.loc 1 319 0
 1050 00d0 6420     		mov	r0, #100
 1051 00d2 FFF7FEFF 		bl	CyDelay
 1052              	.LVL137:
 320:.\wifi.c      ****             break;
 1053              		.loc 1 320 0
 1054 00d6 12E0     		b	.L85
 1055              	.L89:
 321:.\wifi.c      ****         }
 322:.\wifi.c      ****         else
 323:.\wifi.c      ****         {
 324:.\wifi.c      ****             sprintf(sendString,"AT+CIPSTART=\"TCP\",\"%s\",%d\r\n",DevKitIPAdress, DevKitPortNr); /
 1056              		.loc 1 324 0 discriminator 2
 1057 00d8 211C     		mov	r1, r4
 1058 00da 321C     		mov	r2, r6
 1059 00dc 124B     		ldr	r3, .L92+36
 1060 00de 6846     		mov	r0, sp
 1061 00e0 FFF7FEFF 		bl	sprintf
 1062              	.LVL138:
 325:.\wifi.c      ****             CyDelay(50);
 1063              		.loc 1 325 0 discriminator 2
 1064 00e4 3220     		mov	r0, #50
 1065 00e6 FFF7FEFF 		bl	CyDelay
 1066              	.LVL139:
 326:.\wifi.c      ****             UART_PutString(sendString);                                                     //sendS
 1067              		.loc 1 326 0 discriminator 2
 1068 00ea 6846     		mov	r0, sp
 1069 00ec FFF7FEFF 		bl	UART_PutString
 1070              	.LVL140:
 327:.\wifi.c      ****             CyDelay(1000);
 1071              		.loc 1 327 0 discriminator 2
 1072 00f0 FA20     		mov	r0, #250
 1073 00f2 013D     		sub	r5, r5, #1
ARM GAS  C:\temp\ccVDdllL.s 			page 26


 1074              	.LVL141:
 1075 00f4 8000     		lsl	r0, r0, #2
 1076 00f6 FFF7FEFF 		bl	CyDelay
 1077              	.LVL142:
 315:.\wifi.c      ****     {
 1078              		.loc 1 315 0 discriminator 2
 1079 00fa 002D     		cmp	r5, #0
 1080 00fc E3D1     		bne	.L91
 1081              	.L85:
 328:.\wifi.c      ****         }
 329:.\wifi.c      ****     }
 330:.\wifi.c      **** }
 1082              		.loc 1 330 0
 1083 00fe 41B0     		add	sp, sp, #260
 1084              		@ sp needed
 1085              	.LVL143:
 1086              	.LVL144:
 1087 0100 F0BD     		pop	{r4, r5, r6, r7, pc}
 1088              	.L93:
 1089 0102 C046     		.align	2
 1090              	.L92:
 1091 0104 00000000 		.word	UART_ISR
 1092 0108 BB000000 		.word	.LC57
 1093 010c C9000000 		.word	.LC61
 1094 0110 B80B0000 		.word	3000
 1095 0114 D2000000 		.word	.LC63
 1096 0118 E0000000 		.word	.LC65
 1097 011c 88130000 		.word	5000
 1098 0120 B8000000 		.word	.LC54
 1099 0124 8E000000 		.word	.LC50
 1100 0128 B8220000 		.word	8888
 1101              		.cfi_endproc
 1102              	.LFE40:
 1103              		.size	initPSoC, .-initPSoC
 1104              		.section	.text.tick,"ax",%progbits
 1105              		.align	1
 1106              		.global	tick
 1107              		.code	16
 1108              		.thumb_func
 1109              		.type	tick, %function
 1110              	tick:
 1111              	.LFB41:
 331:.\wifi.c      **** 
 332:.\wifi.c      **** void tick()   
 333:.\wifi.c      **** {
 1112              		.loc 1 333 0
 1113              		.cfi_startproc
 1114 0000 10B5     		push	{r4, lr}
 1115              		.cfi_def_cfa_offset 8
 1116              		.cfi_offset 4, -8
 1117              		.cfi_offset 14, -4
 334:.\wifi.c      ****     char sendString[128];                        //temp string til at handle lidt printning -- fjer
 335:.\wifi.c      ****     if(getStringFromUart(uartString) != 0)
 1118              		.loc 1 335 0
 1119 0002 2A4C     		ldr	r4, .L103
 333:.\wifi.c      ****     char sendString[128];                        //temp string til at handle lidt printning -- fjer
 1120              		.loc 1 333 0
ARM GAS  C:\temp\ccVDdllL.s 			page 27


 1121 0004 A6B0     		sub	sp, sp, #152
 1122              		.cfi_def_cfa_offset 160
 1123              		.loc 1 335 0
 1124 0006 201C     		mov	r0, r4
 1125 0008 FFF7FEFF 		bl	getStringFromUart
 1126              	.LVL145:
 1127 000c 0028     		cmp	r0, #0
 1128 000e 4BD0     		beq	.L94
 336:.\wifi.c      ****     {
 337:.\wifi.c      ****         if(strcmp(uartString,"GG") == 0)
 1129              		.loc 1 337 0
 1130 0010 201C     		mov	r0, r4
 1131 0012 2749     		ldr	r1, .L103+4
 1132 0014 FFF7FEFF 		bl	strcmp
 1133              	.LVL146:
 1134 0018 0028     		cmp	r0, #0
 1135 001a 01D1     		bne	.L96
 338:.\wifi.c      ****         {
 339:.\wifi.c      ****             UART_PutString("Works...");
 1136              		.loc 1 339 0
 1137 001c 2548     		ldr	r0, .L103+8
 1138 001e 20E0     		b	.L102
 1139              	.L96:
 340:.\wifi.c      ****         }
 341:.\wifi.c      ****         else if(strcmp(uartString,"Print all") == 0)
 1140              		.loc 1 341 0
 1141 0020 201C     		mov	r0, r4
 1142 0022 2549     		ldr	r1, .L103+12
 1143 0024 FFF7FEFF 		bl	strcmp
 1144              	.LVL147:
 1145 0028 0028     		cmp	r0, #0
 1146 002a 1DD1     		bne	.L97
 342:.\wifi.c      ****         {
 343:.\wifi.c      ****             sprintf(sendString,"Moist:%d Rotate:%d CurMoist:%d CurWater:%d CurBattery:%d CurTemp:%d
 1147              		.loc 1 343 0
 1148 002c 0022     		mov	r2, #0
 1149 002e 2349     		ldr	r1, .L103+16
 1150 0030 234B     		ldr	r3, .L103+20
 1151 0032 0024     		mov	r4, #0
 1152 0034 085F     		ldrsh	r0, [r1, r4]
 1153 0036 9A56     		ldrsb	r2, [r3, r2]
 1154 0038 224B     		ldr	r3, .L103+24
 1155 003a 1B78     		ldrb	r3, [r3]
 1156 003c 0090     		str	r0, [sp]
 1157 003e 0424     		mov	r4, #4
 1158 0040 085F     		ldrsh	r0, [r1, r4]
 1159 0042 5BB2     		sxtb	r3, r3
 1160 0044 0190     		str	r0, [sp, #4]
 1161 0046 0224     		mov	r4, #2
 1162 0048 085F     		ldrsh	r0, [r1, r4]
 1163 004a 0290     		str	r0, [sp, #8]
 1164 004c 0824     		mov	r4, #8
 1165 004e 085F     		ldrsh	r0, [r1, r4]
 1166 0050 0390     		str	r0, [sp, #12]
 1167 0052 0620     		mov	r0, #6
 1168 0054 095E     		ldrsh	r1, [r1, r0]
 1169 0056 06A8     		add	r0, sp, #24
ARM GAS  C:\temp\ccVDdllL.s 			page 28


 1170 0058 0491     		str	r1, [sp, #16]
 1171 005a 1B49     		ldr	r1, .L103+28
 1172 005c FFF7FEFF 		bl	sprintf
 1173              	.LVL148:
 344:.\wifi.c      ****             UART_PutString(sendString);
 1174              		.loc 1 344 0
 1175 0060 06A8     		add	r0, sp, #24
 1176              	.L102:
 1177 0062 FFF7FEFF 		bl	UART_PutString
 1178              	.LVL149:
 1179 0066 1FE0     		b	.L94
 1180              	.L97:
 345:.\wifi.c      ****         }
 346:.\wifi.c      ****         else if(strcmp(uartString,"Print sensor") == 0)
 1181              		.loc 1 346 0
 1182 0068 201C     		mov	r0, r4
 1183 006a 1849     		ldr	r1, .L103+32
 1184 006c FFF7FEFF 		bl	strcmp
 1185              	.LVL150:
 1186 0070 0028     		cmp	r0, #0
 1187 0072 11D1     		bne	.L98
 347:.\wifi.c      ****         {
 348:.\wifi.c      ****             updateSensors();
 1188              		.loc 1 348 0
 1189 0074 FFF7FEFF 		bl	updateSensors
 1190              	.LVL151:
 349:.\wifi.c      ****             CyDelay(200);
 1191              		.loc 1 349 0
 1192 0078 C820     		mov	r0, #200
 1193 007a FFF7FEFF 		bl	CyDelay
 1194              	.LVL152:
 350:.\wifi.c      ****             sendSensorData(sensors_);
 1195              		.loc 1 350 0
 1196 007e 0F4B     		ldr	r3, .L103+16
 1197 0080 5888     		ldrh	r0, [r3, #2]
 1198 0082 1A88     		ldrh	r2, [r3]
 1199 0084 D988     		ldrh	r1, [r3, #6]
 1200 0086 0004     		lsl	r0, r0, #16
 1201 0088 1043     		orr	r0, r2
 1202 008a 9A88     		ldrh	r2, [r3, #4]
 1203 008c 0904     		lsl	r1, r1, #16
 1204 008e 1143     		orr	r1, r2
 1205 0090 1A89     		ldrh	r2, [r3, #8]
 1206 0092 FFF7FEFF 		bl	sendSensorData
 1207              	.LVL153:
 1208 0096 07E0     		b	.L94
 1209              	.L98:
 351:.\wifi.c      ****         }
 352:.\wifi.c      ****         else if(strcmp(uartString,"Update sensor") == 0)
 1210              		.loc 1 352 0
 1211 0098 201C     		mov	r0, r4
 1212 009a 0D49     		ldr	r1, .L103+36
 1213 009c FFF7FEFF 		bl	strcmp
 1214              	.LVL154:
 1215 00a0 0028     		cmp	r0, #0
 1216 00a2 01D1     		bne	.L94
 353:.\wifi.c      ****         {
ARM GAS  C:\temp\ccVDdllL.s 			page 29


 354:.\wifi.c      ****             updateSensors();
 1217              		.loc 1 354 0
 1218 00a4 FFF7FEFF 		bl	updateSensors
 1219              	.LVL155:
 1220              	.L94:
 355:.\wifi.c      ****         }
 356:.\wifi.c      ****     }
 357:.\wifi.c      **** }
 1221              		.loc 1 357 0
 1222 00a8 26B0     		add	sp, sp, #152
 1223              		@ sp needed
 1224 00aa 10BD     		pop	{r4, pc}
 1225              	.L104:
 1226              		.align	2
 1227              	.L103:
 1228 00ac 00010000 		.word	.LANCHOR2
 1229 00b0 F5000000 		.word	.LC70
 1230 00b4 F8000000 		.word	.LC72
 1231 00b8 01010000 		.word	.LC74
 1232 00bc 00000000 		.word	sensors_
 1233 00c0 00000000 		.word	wantedMoisture
 1234 00c4 00000000 		.word	wantedRotate
 1235 00c8 0B010000 		.word	.LC76
 1236 00cc 5D010000 		.word	.LC81
 1237 00d0 6A010000 		.word	.LC83
 1238              		.cfi_endproc
 1239              	.LFE41:
 1240              		.size	tick, .-tick
 1241              		.global	plantID
 1242              		.global	uartString
 1243              		.global	stringRX
 1244              		.global	stringRX_len
 1245              		.comm	RXnewData,1,1
 1246              		.comm	sensors_,10,2
 1247              		.comm	wantedRotate,1,1
 1248              		.comm	water,1,1
 1249              		.comm	battery,1,1
 1250              		.comm	light,1,1
 1251              		.comm	maxTemperature,1,1
 1252              		.comm	wantedMoisture,1,1
 1253              		.comm	ID,1,1
 1254              		.comm	indexnummer1,2,2
 1255              		.comm	lightlevel,16,2
 1256              		.comm	batterylevel,16,2
 1257              		.comm	temperature,16,2
 1258              		.comm	waterlevel,100,2
 1259              		.comm	moisture,100,2
 1260              		.section	.rodata.str1.1,"aMS",%progbits,1
 1261              	.LC8:
 1262 0000 2B495044 		.ascii	"+IPD\000"
 1262      00
 1263              	.LC13:
 1264 0005 4D256325 		.ascii	"M%c%d\000"
 1264      6400
 1265              	.LC16:
 1266 000b 4D256330 		.ascii	"M%c0%d\000"
 1266      256400
ARM GAS  C:\temp\ccVDdllL.s 			page 30


 1267              	.LC18:
 1268 0012 4D256330 		.ascii	"M%c00%d\000"
 1268      30256400 
 1269              	.LC20:
 1270 001a 57256325 		.ascii	"W%c%d\000"
 1270      6400
 1271              	.LC22:
 1272 0020 57256330 		.ascii	"W%c0%d\000"
 1272      256400
 1273              	.LC24:
 1274 0027 57256330 		.ascii	"W%c00%d\000"
 1274      30256400 
 1275              	.LC26:
 1276 002f 4C256325 		.ascii	"L%c%d\000"
 1276      6400
 1277              	.LC28:
 1278 0035 4C256330 		.ascii	"L%c0%d\000"
 1278      256400
 1279              	.LC30:
 1280 003c 4C256330 		.ascii	"L%c00%d\000"
 1280      30256400 
 1281              	.LC32:
 1282 0044 42256325 		.ascii	"B%c%d\000"
 1282      6400
 1283              	.LC34:
 1284 004a 42256330 		.ascii	"B%c0%d\000"
 1284      256400
 1285              	.LC36:
 1286 0051 42256330 		.ascii	"B%c00%d\000"
 1286      30256400 
 1287              	.LC38:
 1288 0059 54256325 		.ascii	"T%c%d\000"
 1288      6400
 1289              	.LC40:
 1290 005f 54256330 		.ascii	"T%c0%d\000"
 1290      256400
 1291              	.LC42:
 1292 0066 54256330 		.ascii	"T%c00%d\000"
 1292      30256400 
 1293              	.LC44:
 1294 006e 25732573 		.ascii	"%s%s%s%s%s\000"
 1294      25732573 
 1294      257300
 1295              	.LC46:
 1296 0079 41542B43 		.ascii	"AT+CIPSEND=%d\015\012\000"
 1296      49505345 
 1296      4E443D25 
 1296      640D0A00 
 1297              	.LC48:
 1298 0089 6C696E6B 		.ascii	"link\000"
 1298      00
 1299              	.LC50:
 1300 008e 41542B43 		.ascii	"AT+CIPSTART=\"TCP\",\"%s\",%d\015\012\000"
 1300      49505354 
 1300      4152543D 
 1300      22544350 
 1300      222C2225 
ARM GAS  C:\temp\ccVDdllL.s 			page 31


 1301              	.LC52:
 1302 00aa 3139322E 		.ascii	"192.168.1.117\000"
 1302      3136382E 
 1302      312E3131 
 1302      3700
 1303              	.LC54:
 1304 00b8 4F4B00   		.ascii	"OK\000"
 1305              	.LC57:
 1306 00bb 41542B43 		.ascii	"AT+CIPCLOSE\015\012\000"
 1306      4950434C 
 1306      4F53450D 
 1306      0A00
 1307              	.LC61:
 1308 00c9 41542B52 		.ascii	"AT+RST\015\012\000"
 1308      53540D0A 
 1308      00
 1309              	.LC63:
 1310 00d2 41542B43 		.ascii	"AT+CWMODE=3\015\012\000"
 1310      574D4F44 
 1310      453D330D 
 1310      0A00
 1311              	.LC65:
 1312 00e0 41542B43 		.ascii	"AT+CWJAP=\"%s\",\"%s\"\015\012\000"
 1312      574A4150 
 1312      3D222573 
 1312      222C2225 
 1312      73220D0A 
 1313              	.LC70:
 1314 00f5 474700   		.ascii	"GG\000"
 1315              	.LC72:
 1316 00f8 576F726B 		.ascii	"Works...\000"
 1316      732E2E2E 
 1316      00
 1317              	.LC74:
 1318 0101 5072696E 		.ascii	"Print all\000"
 1318      7420616C 
 1318      6C00
 1319              	.LC76:
 1320 010b 4D6F6973 		.ascii	"Moist:%d Rotate:%d CurMoist:%d CurWater:%d CurBatte"
 1320      743A2564 
 1320      20526F74 
 1320      6174653A 
 1320      25642043 
 1321 013e 72793A25 		.ascii	"ry:%d CurTemp:%d CurLight:%d\015\012\000"
 1321      64204375 
 1321      7254656D 
 1321      703A2564 
 1321      20437572 
 1322              	.LC81:
 1323 015d 5072696E 		.ascii	"Print sensor\000"
 1323      74207365 
 1323      6E736F72 
 1323      00
 1324              	.LC83:
 1325 016a 55706461 		.ascii	"Update sensor\000"
 1325      74652073 
 1325      656E736F 
ARM GAS  C:\temp\ccVDdllL.s 			page 32


 1325      7200
 1326              		.data
 1327              		.set	.LANCHOR1,. + 0
 1328              		.type	plantID, %object
 1329              		.size	plantID, 1
 1330              	plantID:
 1331 0000 2D       		.byte	45
 1332              		.bss
 1333              		.set	.LANCHOR0,. + 0
 1334              		.set	.LANCHOR2,. + 256
 1335              		.type	stringRX_len, %object
 1336              		.size	stringRX_len, 1
 1337              	stringRX_len:
 1338 0000 00       		.space	1
 1339              		.type	stringRX, %object
 1340              		.size	stringRX, 255
 1341              	stringRX:
 1342 0001 00000000 		.space	255
 1342      00000000 
 1342      00000000 
 1342      00000000 
 1342      00000000 
 1343              		.type	uartString, %object
 1344              		.size	uartString, 255
 1345              	uartString:
 1346 0100 00000000 		.space	255
 1346      00000000 
 1346      00000000 
 1346      00000000 
 1346      00000000 
 1347              		.text
 1348              	.Letext0:
 1349              		.file 2 "c:\\program files (x86)\\cypress\\psoc creator\\3.3\\psoc creator\\import\\gnu\\arm\\4.9.
 1350              		.file 3 "Generated_Source\\PSoC4/cytypes.h"
 1351              		.file 4 "./Plantcontrol.h"
 1352              		.file 5 "./sensors.h"
 1353              		.file 6 "./motor.h"
 1354              		.file 7 "Generated_Source\\PSoC4/UART.h"
 1355              		.file 8 "c:\\program files (x86)\\cypress\\psoc creator\\3.3\\psoc creator\\import\\gnu\\arm\\4.9.
 1356              		.file 9 "c:\\program files (x86)\\cypress\\psoc creator\\3.3\\psoc creator\\import\\gnu\\arm\\4.9.
 1357              		.file 10 "c:\\program files (x86)\\cypress\\psoc creator\\3.3\\psoc creator\\import\\gnu\\arm\\4.9
 1358              		.file 11 "Generated_Source\\PSoC4/CyLib.h"
 1359              		.file 12 "Generated_Source\\PSoC4/ADC_SAR_Seq_1.h"
 1360              		.file 13 "Generated_Source\\PSoC4/isr_UART.h"